 ThreeDee

 Timestamp is 4ddffcec (Fri May 27 12:35:08 2011)

 Preferred load address is 00400000

 Start         Length     Name                   Class
 0001:00000000 0014cb59H .text                   CODE
 0001:0014cb60 000069fdH .text$x                 CODE
 0001:00153560 00000b3cH .text$yc                CODE
 0001:001540a0 0000039aH .text$yd                CODE
 0002:00000000 0000042cH .idata$5                DATA
 0002:0000042c 00000004H .CRT$XCA                DATA
 0002:00000430 0000001cH .CRT$XCC                DATA
 0002:0000044c 00000008H .CRT$XCL                DATA
 0002:00000454 000001e4H .CRT$XCU                DATA
 0002:00000638 00000004H .CRT$XCZ                DATA
 0002:0000063c 00000004H .CRT$XIA                DATA
 0002:00000640 00000014H .CRT$XIC                DATA
 0002:00000654 00000004H .CRT$XID                DATA
 0002:00000658 00000004H .CRT$XIU                DATA
 0002:0000065c 00000004H .CRT$XIY                DATA
 0002:00000660 00000004H .CRT$XIZ                DATA
 0002:00000664 00000004H .CRT$XLA                DATA
 0002:00000668 00000004H .CRT$XLC                DATA
 0002:0000066c 00000004H .CRT$XLZ                DATA
 0002:00000670 00000004H .CRT$XPA                DATA
 0002:00000674 00000004H .CRT$XPX                DATA
 0002:00000678 00000004H .CRT$XPXA               DATA
 0002:0000067c 00000004H .CRT$XPZ                DATA
 0002:00000680 00000004H .CRT$XTA                DATA
 0002:00000684 00000004H .CRT$XTU                DATA
 0002:00000688 00000004H .CRT$XTZ                DATA
 0002:00000690 0002eac0H .rdata                  DATA
 0002:0002f150 00000018H .rdata$T                DATA
 0002:0002f168 00005598H .rdata$r                DATA
 0002:00034700 00000708H .rdata$sxdata           DATA
 0002:00034e08 00000004H .rtc$IAA                DATA
 0002:00034e0c 00000004H .rtc$IZZ                DATA
 0002:00034e10 00000004H .rtc$TAA                DATA
 0002:00034e14 00000004H .rtc$TZZ                DATA
 0002:00034e18 00008984H .xdata$x                DATA
 0002:0003d79c 000000c8H .idata$2                DATA
 0002:0003d864 00000014H .idata$3                DATA
 0002:0003d878 0000042cH .idata$4                DATA
 0002:0003dca4 000011dcH .idata$6                DATA
 0002:0003ee80 00002bb5H .edata                  DATA
 0003:00000000 0000aeeeH .data                   DATA
 0003:0000af00 00003ba4H .bss                    DATA
 0004:00000000 00000001H .tls                    DATA
 0004:00000008 00000120H .tls$                   DATA
 0004:00000128 00000001H .tls$ZZZ                DATA
 0005:00000000 00000258H .rsrc$01                DATA
 0005:00000260 0000aeb8H .rsrc$02                DATA

  Address         Publics by Value              Rva+Base       Lib:Object

 0000:00000000       __except_list              00000000     <absolute>
 0000:0000002c       __tls_array                0000002c     <absolute>
 0000:000001c2       ___safe_se_handler_count   000001c2     <absolute>
 0000:00000000       ___ImageBase               00400000     <linker-defined>
 0001:00000000       ?compare@?$char_traits@D@std@@SAHPBD0I@Z 00401000 f i ThreeDeeApp.obj
 0001:00000080       _ldexpf                    00401080 f i ThreeDeeApp.obj
 0001:000000a0       ??1bad_alloc@std@@UAE@XZ   004010a0 f i ThreeDeeApp.obj
 0001:000000b0       ??_Gbad_alloc@std@@UAEPAXI@Z 004010b0 f i ThreeDeeApp.obj
 0001:000000b0       ??_Ebad_alloc@std@@UAEPAXI@Z 004010b0 f i  CIL library: CIL module
 0001:000000e0       ?_Equal@std@@YA_NPBD00@Z   004010e0 f i ThreeDeeApp.obj
 0001:00000160       ??1clone_base@exception_detail@boost@@UAE@XZ 00401160 f i ThreeDeeApp.obj
 0001:00000170       ??_Eclone_base@exception_detail@boost@@UAEPAXI@Z 00401170 f i  CIL library: CIL module
 0001:00000170       ??_Gclone_base@exception_detail@boost@@UAEPAXI@Z 00401170 f i ThreeDeeApp.obj
 0001:000001a0       ?copy_boost_exception@exception_detail@boost@@YAXPAVexception@2@PBV32@@Z 004011a0 f i ThreeDeeApp.obj
 0001:00000280       ??1sp_counted_base@detail@boost@@UAE@XZ 00401280 f i ThreeDeeApp.obj
 0001:00000290       ?destroy@sp_counted_base@detail@boost@@UAEXXZ 00401290 f i ThreeDeeApp.obj
 0001:000002a0       ??1shared_count@detail@boost@@QAE@XZ 004012a0 f i ThreeDeeApp.obj
 0001:000002e0       ??0_Locinfo@std@@QAE@PBD@Z 004012e0 f i ThreeDeeApp.obj
 0001:00000390       ??1_Locinfo@std@@QAE@XZ    00401390 f i ThreeDeeApp.obj
 0001:00000440       ??0runtime_error@std@@QAE@ABV01@@Z 00401440 f i ThreeDeeApp.obj
 0001:00000460       ??Bid@locale@std@@QAEIXZ   00401460 f i ThreeDeeApp.obj
 0001:000004a0       ?_Incref@facet@locale@std@@QAEXXZ 004014a0 f i ThreeDeeApp.obj
 0001:000004d0       ?_Decref@facet@locale@std@@QAEPAV123@XZ 004014d0 f i ThreeDeeApp.obj
 0001:00000510       ?_Getfacet@locale@std@@QBEPBVfacet@12@I@Z 00401510 f i ThreeDeeApp.obj
 0001:00000550       ??_G?$num_get@DV?$istreambuf_iterator@DU?$char_traits@D@std@@@std@@@std@@MAEPAXI@Z 00401550 f i ThreeDeeApp.obj
 0001:00000550       ??_G?$codecvt@DDH@std@@MAEPAXI@Z 00401550 f i ThreeDeeApp.obj
 0001:00000550       ??_E?$num_get@DV?$istreambuf_iterator@DU?$char_traits@D@std@@@std@@@std@@MAEPAXI@Z 00401550 f i  CIL library: CIL module
 0001:00000550       ??_Efacet@locale@std@@UAEPAXI@Z 00401550 f i  CIL library: CIL module
 0001:00000550       ??_G?$num_put@DV?$ostreambuf_iterator@DU?$char_traits@D@std@@@std@@@std@@MAEPAXI@Z 00401550 f i ThreeDeeApp.obj
 0001:00000550       ??_Gfacet@locale@std@@UAEPAXI@Z 00401550 f i ThreeDeeApp.obj
 0001:00000550       ??_E?$codecvt@DDH@std@@MAEPAXI@Z 00401550 f i  CIL library: CIL module
 0001:00000550       ??_E?$num_put@DV?$ostreambuf_iterator@DU?$char_traits@D@std@@@std@@@std@@MAEPAXI@Z 00401550 f i  CIL library: CIL module
 0001:00000580       ??1codecvt_base@std@@UAE@XZ 00401580 f i ThreeDeeApp.obj
 0001:00000580       ??1facet@locale@std@@UAE@XZ 00401580 f i ThreeDeeApp.obj
 0001:00000590       ??0?$ctype@D@std@@QAE@ABV_Locinfo@1@I@Z 00401590 f i ThreeDeeApp.obj
 0001:000005e0       ?_Getcat@?$ctype@D@std@@SAIPAPBVfacet@locale@2@PBV42@@Z 004015e0 f i ThreeDeeApp.obj
 0001:000006c0       ?do_tolower@?$ctype@D@std@@MBEDD@Z 004016c0 f i ThreeDeeApp.obj
 0001:000006e0       ?do_tolower@?$ctype@D@std@@MBEPBDPADPBD@Z 004016e0 f i ThreeDeeApp.obj
 0001:00000710       ?do_toupper@?$ctype@D@std@@MBEDD@Z 00401710 f i ThreeDeeApp.obj
 0001:00000730       ?do_toupper@?$ctype@D@std@@MBEPBDPADPBD@Z 00401730 f i ThreeDeeApp.obj
 0001:00000760       ?do_widen@?$ctype@D@std@@MBEDD@Z 00401760 f i ThreeDeeApp.obj
 0001:00000770       ?do_widen@?$ctype@D@std@@MBEPBDPBD0PAD@Z 00401770 f i ThreeDeeApp.obj
 0001:000007a0       ?do_narrow@?$ctype@D@std@@MBEDDD@Z 004017a0 f i ThreeDeeApp.obj
 0001:000007b0       ?do_narrow@?$ctype@D@std@@MBEPBDPBD0DPAD@Z 004017b0 f i ThreeDeeApp.obj
 0001:000007e0       ??_E?$ctype@D@std@@MAEPAXI@Z 004017e0 f i  CIL library: CIL module
 0001:000007e0       ??_G?$ctype@D@std@@MAEPAXI@Z 004017e0 f i ThreeDeeApp.obj
 0001:00000830       ?clear@ios_base@std@@QAEXH_N@Z 00401830 f i ThreeDeeApp.obj
 0001:00000930       ?getloc@ios_base@std@@QBE?AVlocale@2@XZ 00401930 f i ThreeDeeApp.obj
 0001:00000970       ?_Init@ios_base@std@@IAEXXZ 00401970 f i ThreeDeeApp.obj
 0001:00000a00       ??1GlslProgCompileExc@gl@cinder@@UAE@XZ 00401a00 f i cinder:GlslProg.obj
 0001:00000a00       ??1runtime_error@std@@UAE@XZ 00401a00 f i ThreeDeeApp.obj
 0001:00000a00       ??1TextureDataExc@gl@cinder@@UAE@XZ 00401a00 f i cinder:Texture.obj
 0001:00000a00       ??1failure@ios_base@std@@UAE@XZ 00401a00 f i ThreeDeeApp.obj
 0001:00000a00       ??1bad_function_call@boost@@UAE@XZ 00401a00 f i ThreeDeeApp.obj
 0001:00000a10       ??0failure@ios_base@std@@QAE@ABV012@@Z 00401a10 f i ThreeDeeApp.obj
 0001:00000a40       ??0system_error@std@@QAE@ABV01@@Z 00401a40 f i ThreeDeeApp.obj
 0001:00000a70       ??$_Fputc@D@std@@YA_NDPAU_iobuf@@@Z 00401a70 f i ThreeDeeApp.obj
 0001:00000a90       ??1FileDropEvent@app@cinder@@UAE@XZ 00401a90 f i ThreeDeeApp.obj
 0001:00000ae0       ??_GResizeEvent@app@cinder@@UAEPAXI@Z 00401ae0 f i ThreeDeeApp.obj
 0001:00000ae0       ??_EMouseEvent@app@cinder@@UAEPAXI@Z 00401ae0 f i  CIL library: CIL module
 0001:00000ae0       ??_EKeyEvent@app@cinder@@UAEPAXI@Z 00401ae0 f i  CIL library: CIL module
 0001:00000ae0       ??_EEvent@app@cinder@@UAEPAXI@Z 00401ae0 f i  CIL library: CIL module
 0001:00000ae0       ??_GKeyEvent@app@cinder@@UAEPAXI@Z 00401ae0 f i ThreeDeeApp.obj
 0001:00000ae0       ??_GMouseEvent@app@cinder@@UAEPAXI@Z 00401ae0 f i ThreeDeeApp.obj
 0001:00000ae0       ??_GEvent@app@cinder@@UAEPAXI@Z 00401ae0 f i ThreeDeeApp.obj
 0001:00000ae0       ??_EResizeEvent@app@cinder@@UAEPAXI@Z 00401ae0 f i  CIL library: CIL module
 0001:00000b10       ??1KeyEvent@app@cinder@@UAE@XZ 00401b10 f i ThreeDeeApp.obj
 0001:00000b10       ??1Event@app@cinder@@UAE@XZ 00401b10 f i ThreeDeeApp.obj
 0001:00000b10       ??1MouseEvent@app@cinder@@UAE@XZ 00401b10 f i ThreeDeeApp.obj
 0001:00000b10       ??1ResizeEvent@app@cinder@@UAE@XZ 00401b10 f i ThreeDeeApp.obj
 0001:00000b20       ?mouseMove@App@app@cinder@@UAEXVMouseEvent@23@@Z 00401b20 f i ThreeDeeApp.obj
 0001:00000b20       ?mouseUp@App@app@cinder@@UAEXVMouseEvent@23@@Z 00401b20 f i ThreeDeeApp.obj
 0001:00000b20       ?mouseDown@App@app@cinder@@UAEXVMouseEvent@23@@Z 00401b20 f i ThreeDeeApp.obj
 0001:00000b20       ?mouseWheel@App@app@cinder@@UAEXVMouseEvent@23@@Z 00401b20 f i ThreeDeeApp.obj
 0001:00000b20       ?mouseDrag@App@app@cinder@@UAEXVMouseEvent@23@@Z 00401b20 f i ThreeDeeApp.obj
 0001:00000b30       ?keyDown@App@app@cinder@@UAEXVKeyEvent@23@@Z 00401b30 f i ThreeDeeApp.obj
 0001:00000b30       ?keyUp@App@app@cinder@@UAEXVKeyEvent@23@@Z 00401b30 f i ThreeDeeApp.obj
 0001:00000b40       ?fileDrop@App@app@cinder@@UAEXVFileDropEvent@23@@Z 00401b40 f i ThreeDeeApp.obj
 0001:00000b70       ?copyWindowSurface@app@cinder@@YA?AV?$SurfaceT@E@2@XZ 00401b70 f i ThreeDeeApp.obj
 0001:00000b90       ??1CameraPersp@cinder@@UAE@XZ 00401b90 f i ThreeDeeApp.obj
 0001:00000b90       ??1Camera@cinder@@UAE@XZ   00401b90 f i ThreeDeeApp.obj
 0001:00000ba0       ?what@bad_lexical_cast@boost@@UBEPBDXZ 00401ba0 f i ThreeDeeApp.obj
 0001:00000bb0       ??1bad_lexical_cast@boost@@UAE@XZ 00401bb0 f i ThreeDeeApp.obj
 0001:00000bc0       ??_Gbad_lexical_cast@boost@@UAEPAXI@Z 00401bc0 f i ThreeDeeApp.obj
 0001:00000bc0       ??_Ebad_lexical_cast@boost@@UAEPAXI@Z 00401bc0 f i  CIL library: CIL module
 0001:00000bf0       ??_GGlslProgCompileExc@gl@cinder@@UAEPAXI@Z 00401bf0 f i cinder:GlslProg.obj
 0001:00000bf0       ??_Gbad_function_call@boost@@UAEPAXI@Z 00401bf0 f i ThreeDeeApp.obj
 0001:00000bf0       ??_Glogic_error@std@@UAEPAXI@Z 00401bf0 f i cinder:Area.obj
 0001:00000bf0       ??_Ebad_function_call@boost@@UAEPAXI@Z 00401bf0 f i  CIL library: CIL module
 0001:00000bf0       ??_Gruntime_error@std@@UAEPAXI@Z 00401bf0 f i ThreeDeeApp.obj
 0001:00000bf0       ??_GTextureDataExc@gl@cinder@@UAEPAXI@Z 00401bf0 f i cinder:Texture.obj
 0001:00000bf0       ??_Esystem_error@std@@UAEPAXI@Z 00401bf0 f i  CIL library: CIL module
 0001:00000bf0       ??_Efailure@ios_base@std@@UAEPAXI@Z 00401bf0 f i  CIL library: CIL module
 0001:00000bf0       ??_ETextureDataExc@gl@cinder@@UAEPAXI@Z 00401bf0 f i cinder:Texture.obj
 0001:00000bf0       ??_Gsystem_error@std@@UAEPAXI@Z 00401bf0 f i ThreeDeeApp.obj
 0001:00000bf0       ??_Gfailure@ios_base@std@@UAEPAXI@Z 00401bf0 f i ThreeDeeApp.obj
 0001:00000bf0       ??_Elogic_error@std@@UAEPAXI@Z 00401bf0 f i cinder:Area.obj
 0001:00000bf0       ??_Eruntime_error@std@@UAEPAXI@Z 00401bf0 f i  CIL library: CIL module
 0001:00000bf0       ??_EGlslProgCompileExc@gl@cinder@@UAEPAXI@Z 00401bf0 f i cinder:GlslProg.obj
 0001:00000c20       ??1SurfaceImage@cairo@cinder@@UAE@XZ 00401c20 f i ThreeDeeApp.obj
 0001:00000ca0       ?parse_colorA@cinderext@zugster@@YA?AV?$ColorAT@M@cinder@@ABV?$basic_string@DU?$char_traits@D@std@@V?$allocator@D@2@@std@@ABV34@@Z 00401ca0 f   ThreeDeeApp.obj
 0001:00000de0       ??1CairoSaveState@cinderext@zugster@@QAE@XZ 00401de0 f i ThreeDeeApp.obj
 0001:00000df0       ??_EIPositionable@cinderpane@zugster@@UAEPAXI@Z 00401df0 f i  CIL library: CIL module
 0001:00000df0       ??_GIPositionable@cinderpane@zugster@@UAEPAXI@Z 00401df0 f i ThreeDeeApp.obj
 0001:00000e20       ??_EIRenderable@gizmo@zugster@@UAEPAXI@Z 00401e20 f i  CIL library: CIL module
 0001:00000e20       ??_GIRenderable@gizmo@zugster@@UAEPAXI@Z 00401e20 f i ThreeDeeApp.obj
 0001:00000e50       ??EConstIter@XmlTree@cinder@@QAE?BV012@H@Z 00401e50 f i ThreeDeeApp.obj
 0001:00000ee0       ?getValue@XmlTree@cinder@@QBE?AV?$basic_string@DU?$char_traits@D@std@@V?$allocator@D@2@@std@@XZ 00401ee0 f i ThreeDeeApp.obj
 0001:00000f10       ?begin@XmlTree@cinder@@QBE?AVConstIter@12@XZ 00401f10 f i ThreeDeeApp.obj
 0001:00000f30       ?end@XmlTree@cinder@@QBE?AVConstIter@12@XZ 00401f30 f i ThreeDeeApp.obj
 0001:00000f50       ??1ConstIter@XmlTree@cinder@@QAE@XZ 00401f50 f i ThreeDeeApp.obj
 0001:00000fc0       ??_GIPersistable@gizmo@zugster@@UAEPAXI@Z 00401fc0 f i ThreeDeeApp.obj
 0001:00000fc0       ??_EIPersistable@gizmo@zugster@@UAEPAXI@Z 00401fc0 f i  CIL library: CIL module
 0001:00000ff0       ??_EIPart@gizmo@zugster@@UAEPAXI@Z 00401ff0 f i  CIL library: CIL module
 0001:00000ff0       ??_GIPart@gizmo@zugster@@UAEPAXI@Z 00401ff0 f i ThreeDeeApp.obj
 0001:00001060       ??1PositionableBase@cinderpane@zugster@@UAE@XZ 00402060 f i ThreeDeeApp.obj
 0001:00001090       ?move@PositionableBase@cinderpane@zugster@@UAEXABV?$Vec2@M@cinder@@@Z 00402090 f i ThreeDeeApp.obj
 0001:000010d0       ?getPosition@PositionableBase@cinderpane@zugster@@UBE?AV?$Vec2@M@cinder@@XZ 004020d0 f i ThreeDeeApp.obj
 0001:000010f0       ?setPosition@PositionableBase@cinderpane@zugster@@UAEXABV?$Vec2@M@cinder@@@Z 004020f0 f i ThreeDeeApp.obj
 0001:00001150       ?morph@PositionableBase@cinderpane@zugster@@UAEXABV?$Vec2@M@cinder@@@Z 00402150 f i ThreeDeeApp.obj
 0001:00001190       ?getSize@PositionableBase@cinderpane@zugster@@UBE?AV?$Vec2@M@cinder@@XZ 00402190 f i ThreeDeeApp.obj
 0001:000011b0       ?setSize@PositionableBase@cinderpane@zugster@@UAEXABV?$Vec2@M@cinder@@@Z 004021b0 f i ThreeDeeApp.obj
 0001:00001210       ?getBounds@PositionableBase@cinderpane@zugster@@UBE?AV?$RectT@M@cinder@@XZ 00402210 f i ThreeDeeApp.obj
 0001:00001260       ?isVisible@PositionableBase@cinderpane@zugster@@UBE_NXZ 00402260 f i ThreeDeeApp.obj
 0001:00001270       ?setVisible@PositionableBase@cinderpane@zugster@@UAEX_N@Z 00402270 f i ThreeDeeApp.obj
 0001:00001290       ??_EPositionableBase@cinderpane@zugster@@UAEPAXI@Z 00402290 f i  CIL library: CIL module
 0001:00001290       ??_GPositionableBase@cinderpane@zugster@@UAEPAXI@Z 00402290 f i ThreeDeeApp.obj
 0001:000012e0       ??0CommandBase@gizmo@zugster@@QAE@XZ 004022e0 f i ThreeDeeApp.obj
 0001:000013a0       ??0CommandBase@gizmo@zugster@@QAE@ABV?$Vec2@M@cinder@@0@Z 004023a0 f i ThreeDeeApp.obj
 0001:00001470       ??1CommandBase@gizmo@zugster@@UAE@XZ 00402470 f i ThreeDeeApp.obj
 0001:00001520       ?getRotationSpeed@CommandBase@gizmo@zugster@@UBENXZ 00402520 f i ThreeDeeApp.obj
 0001:00001520       ?getRotation@CommandBase@gizmo@zugster@@UBENXZ 00402520 f i ThreeDeeApp.obj
 0001:00001530       ?isFilled@CommandBase@gizmo@zugster@@UBE_NXZ 00402530 f i ThreeDeeApp.obj
 0001:00001530       ?do_always_noconv@windows_file_codecvt@@MBE_NXZ 00402530 f i libboost_filesystem-vc100-mt-s-1_44:path.obj
 0001:00001530       ?has_empty_target@function@detail@boost@@YA_NZZ 00402530 f i ThreeDeeApp.obj
 0001:00001530       ?isUrl@DataSourcePath@cinder@@UAE_NXZ 00402530 f i cinder:DataSource.obj
 0001:00001530       ?do_always_noconv@?$codecvt@_WDH@std@@MBE_NXZ 00402530 f i libboost_filesystem-vc100-mt-s-1_44:path.obj
 0001:00001530       ?providesUrl@DataTargetPath@cinder@@UAE_NXZ 00402530 f i cinder:DataTarget.obj
 0001:00001530       ?isOutlined@CommandBase@gizmo@zugster@@UBE_NXZ 00402530 f i ThreeDeeApp.obj
 0001:00001540       ?xmlEndTag@CommandBase@gizmo@zugster@@IBEAAV?$basic_ostream@DU?$char_traits@D@std@@@std@@AAV45@ABV?$basic_string@DU?$char_traits@D@std@@V?$allocator@D@2@@5@@Z 00402540 f i ThreeDeeApp.obj
 0001:000015d0       ?xmlWriteTag@CommandBase@gizmo@zugster@@IBEAAV?$basic_ostream@DU?$char_traits@D@std@@@std@@AAV45@ABV?$basic_string@DU?$char_traits@D@std@@V?$allocator@D@2@@5@ABV?$ColorAT@M@cinder@@@Z 004025d0 f i ThreeDeeApp.obj
 0001:000016a0       ?xmlWriteTag@CommandBase@gizmo@zugster@@IBEAAV?$basic_ostream@DU?$char_traits@D@std@@@std@@AAV45@ABV?$basic_string@DU?$char_traits@D@std@@V?$allocator@D@2@@5@@Z 004026a0 f i ThreeDeeApp.obj
 0001:00001730       ??_ECommandBase@gizmo@zugster@@UAEPAXI@Z 00402730 f i  CIL library: CIL module
 0001:00001730       ??_GCommandBase@gizmo@zugster@@UAEPAXI@Z 00402730 f i ThreeDeeApp.obj
 0001:00001770       ??0SolarizedTheme@gizmo@zugster@@QAE@XZ 00402770 f i ThreeDeeApp.obj
 0001:000018a0       ?getLineColor@SolarizedTheme@gizmo@zugster@@UBE?AV?$ColorAT@M@cinder@@W4DisplayState@IPart@23@_N@Z 004028a0 f i ThreeDeeApp.obj
 0001:00001a90       ?getFillColor@SolarizedTheme@gizmo@zugster@@UBE?AV?$ColorAT@M@cinder@@W4DisplayState@IPart@23@_N@Z 00402a90 f i ThreeDeeApp.obj
 0001:00001c00       ?getTextColor@SolarizedTheme@gizmo@zugster@@UBE?AV?$ColorAT@M@cinder@@W4DisplayState@IPart@23@_N@Z 00402c00 f i ThreeDeeApp.obj
 0001:00001df0       ??0SolarizedThemeDark@gizmo@zugster@@QAE@XZ 00402df0 f i ThreeDeeApp.obj
 0001:00002260       ??_GITheme@gizmo@zugster@@UAEPAXI@Z 00403260 f i ThreeDeeApp.obj
 0001:00002260       ??_GSolarizedThemeDark@gizmo@zugster@@UAEPAXI@Z 00403260 f i ThreeDeeApp.obj
 0001:00002260       ??_ESolarizedTheme@gizmo@zugster@@UAEPAXI@Z 00403260 f i  CIL library: CIL module
 0001:00002260       ??_EITheme@gizmo@zugster@@UAEPAXI@Z 00403260 f i  CIL library: CIL module
 0001:00002260       ??_ESolarizedThemeDark@gizmo@zugster@@UAEPAXI@Z 00403260 f i  CIL library: CIL module
 0001:00002260       ??_GSolarizedTheme@gizmo@zugster@@UAEPAXI@Z 00403260 f i ThreeDeeApp.obj
 0001:00002290       ??0GizmoContext@gizmo@zugster@@QAE@AAVContext@cairo@cinder@@AAVSurfaceBase@45@@Z 00403290 f i ThreeDeeApp.obj
 0001:00002440       ?restore@GizmoContext@gizmo@zugster@@QAEXXZ 00403440 f i ThreeDeeApp.obj
 0001:00002570       ?draw@GizmoContext@gizmo@zugster@@QAEX_N0W4DisplayState@IPart@23@0@Z 00403570 f i ThreeDeeApp.obj
 0001:00002690       ??1?$stack@U?$pair@V?$ColorAT@M@cinder@@V12@@std@@V?$deque@U?$pair@V?$ColorAT@M@cinder@@V12@@std@@V?$allocator@U?$pair@V?$ColorAT@M@cinder@@V12@@std@@@2@@2@@std@@QAE@XZ 00403690 f i ThreeDeeApp.obj
 0001:00002690       ??1?$stack@V?$Vec2@M@cinder@@V?$deque@V?$Vec2@M@cinder@@V?$allocator@V?$Vec2@M@cinder@@@std@@@std@@@std@@QAE@XZ 00403690 f i ThreeDeeApp.obj
 0001:000026b0       ??1GizmoSavePosition@gizmo@zugster@@QAE@XZ 004036b0 f i ThreeDeeApp.obj
 0001:000026c0       ??0PartBase@gizmo@zugster@@QAE@XZ 004036c0 f i ThreeDeeApp.obj
 0001:00002750       ??0PartBase@gizmo@zugster@@QAE@ABV?$Vec2@M@cinder@@@Z 00403750 f i ThreeDeeApp.obj
 0001:000027f0       ??0PartBase@gizmo@zugster@@QAE@N@Z 004037f0 f i ThreeDeeApp.obj
 0001:000028a0       ??0PartBase@gizmo@zugster@@QAE@ABV?$Vec2@M@cinder@@0@Z 004038a0 f i ThreeDeeApp.obj
 0001:00002930       ??1PartBase@gizmo@zugster@@UAE@XZ 00403930 f i ThreeDeeApp.obj
 0001:000029a0       ?updateGizmo@PartBase@gizmo@zugster@@UAEXXZ 004039a0 f i ThreeDeeApp.obj
 0001:000029d0       ?getDisplayState@PartBase@gizmo@zugster@@UBE?AW4DisplayState@IPart@23@XZ 004039d0 f i ThreeDeeApp.obj
 0001:000029e0       ?setDisplayState@PartBase@gizmo@zugster@@UAEXW4DisplayState@IPart@23@@Z 004039e0 f i ThreeDeeApp.obj
 0001:000029f0       ?rotate@PartBase@gizmo@zugster@@UAEXN@Z 004039f0 f i ThreeDeeApp.obj
 0001:00002a50       ?setRotation@PartBase@gizmo@zugster@@UAEXN@Z 00403a50 f i ThreeDeeApp.obj
 0001:00002a90       ?getRotation@PartBase@gizmo@zugster@@UBENXZ 00403a90 f i ThreeDeeApp.obj
 0001:00002aa0       ?setRotationSpeed@PartBase@gizmo@zugster@@UAEXN@Z 00403aa0 f i ThreeDeeApp.obj
 0001:00002ae0       ?getRotationSpeed@PartBase@gizmo@zugster@@UBENXZ 00403ae0 f i ThreeDeeApp.obj
 0001:00002af0       ?setOutline@PartBase@gizmo@zugster@@UAEX_N@Z 00403af0 f i ThreeDeeApp.obj
 0001:00002b00       ?isOutlined@PartBase@gizmo@zugster@@UBE_NXZ 00403b00 f i ThreeDeeApp.obj
 0001:00002b10       ?setFilled@PartBase@gizmo@zugster@@UAEX_N@Z 00403b10 f i ThreeDeeApp.obj
 0001:00002b20       ?isFilled@PartBase@gizmo@zugster@@UBE_NXZ 00403b20 f i ThreeDeeApp.obj
 0001:00002b30       ?loadXML@PartBase@gizmo@zugster@@UAEXABVXmlTree@cinder@@ABV?$shared_ptr@UIPartFactory@gizmo@zugster@@@boost@@@Z 00403b30 f i ThreeDeeApp.obj
 0001:00002fb0       ?onRotationChanged@PartBase@gizmo@zugster@@MAEXNN@Z 00403fb0 f i ThreeDeeApp.obj
 0001:00002fc0       ?xmlBeginPart@PartBase@gizmo@zugster@@IBEAAV?$basic_ostream@DU?$char_traits@D@std@@@std@@AAV45@ABV?$basic_string@DU?$char_traits@D@std@@V?$allocator@D@2@@5@@Z 00403fc0 f i ThreeDeeApp.obj
 0001:000031e0       ??_EPartBase@gizmo@zugster@@UAEPAXI@Z 004041e0 f i  CIL library: CIL module
 0001:000031e0       ??_GPartBase@gizmo@zugster@@UAEPAXI@Z 004041e0 f i ThreeDeeApp.obj
 0001:00003220       ??0CompositePart@gizmo@zugster@@QAE@XZ 00404220 f i ThreeDeeApp.obj
 0001:000032a0       ??0CompositePart@gizmo@zugster@@QAE@ABV?$Vec2@M@cinder@@0@Z 004042a0 f i ThreeDeeApp.obj
 0001:00003320       ??1CompositePart@gizmo@zugster@@UAE@XZ 00404320 f i ThreeDeeApp.obj
 0001:00003400       ?setDisplayState@CompositePart@gizmo@zugster@@UAEXW4DisplayState@IPart@23@@Z 00404400 f i ThreeDeeApp.obj
 0001:00003440       ?updateGizmo@CompositePart@gizmo@zugster@@UAEXXZ 00404440 f i ThreeDeeApp.obj
 0001:000034b0       ?renderGizmo@CompositePart@gizmo@zugster@@UAEXAAVGizmoContext@23@@Z 004044b0 f i ThreeDeeApp.obj
 0001:00003520       ?loadXML@CompositePart@gizmo@zugster@@UAEXABVXmlTree@cinder@@ABV?$shared_ptr@UIPartFactory@gizmo@zugster@@@boost@@@Z 00404520 f i ThreeDeeApp.obj
 0001:000037f0       ?storeXML@CompositePart@gizmo@zugster@@UBEXAAV?$basic_ostream@DU?$char_traits@D@std@@@std@@@Z 004047f0 f i ThreeDeeApp.obj
 0001:00003830       ??_GCompositePart@gizmo@zugster@@UAEPAXI@Z 00404830 f i ThreeDeeApp.obj
 0001:00003830       ??_ECompositePart@gizmo@zugster@@UAEPAXI@Z 00404830 f i  CIL library: CIL module
 0001:00003870       ??0ArcPart@gizmo@zugster@@QAE@NNNN@Z 00404870 f i ThreeDeeApp.obj
 0001:00003930       ??1ArcPart@gizmo@zugster@@UAE@XZ 00404930 f i ThreeDeeApp.obj
 0001:000039a0       ?renderGizmo@ArcPart@gizmo@zugster@@UAEXAAVGizmoContext@23@@Z 004049a0 f i ThreeDeeApp.obj
 0001:00003a90       ?loadXML@ArcPart@gizmo@zugster@@UAEXABVXmlTree@cinder@@ABV?$shared_ptr@UIPartFactory@gizmo@zugster@@@boost@@@Z 00404a90 f i ThreeDeeApp.obj
 0001:00003c90       ?storeXML@ArcPart@gizmo@zugster@@UBEXAAV?$basic_ostream@DU?$char_traits@D@std@@@std@@@Z 00404c90 f i ThreeDeeApp.obj
 0001:00003e80       ?onSizedChanged@ArcPart@gizmo@zugster@@MAEXABV?$Vec2@M@cinder@@0@Z 00404e80 f i ThreeDeeApp.obj
 0001:00003ea0       ??_GArcPart@gizmo@zugster@@UAEPAXI@Z 00404ea0 f i ThreeDeeApp.obj
 0001:00003ea0       ??_EArcPart@gizmo@zugster@@UAEPAXI@Z 00404ea0 f i  CIL library: CIL module
 0001:00003ee0       ?curve_rect@cinderext@zugster@@YAXAAVContext@cairo@cinder@@NNNNN@Z 00404ee0 f   ThreeDeeApp.obj
 0001:00004300       ?round_rect@cinderext@zugster@@YAXAAVContext@cairo@cinder@@NNNNN@Z 00405300 f   ThreeDeeApp.obj
 0001:00004450       ?grid@cinderext@zugster@@YAXAAVContext@cairo@cinder@@NNNNHH@Z 00405450 f   ThreeDeeApp.obj
 0001:00004520       ?hollow_arc@cinderext@zugster@@YAXAAVContext@cairo@cinder@@ABV?$Vec2@M@5@NNNN@Z 00405520 f   ThreeDeeApp.obj
 0001:00004640       ??0FilledArcPart@gizmo@zugster@@QAE@NNNN@Z 00405640 f i ThreeDeeApp.obj
 0001:00004720       ??1FilledArcPart@gizmo@zugster@@UAE@XZ 00405720 f i ThreeDeeApp.obj
 0001:00004790       ?renderGizmo@FilledArcPart@gizmo@zugster@@UAEXAAVGizmoContext@23@@Z 00405790 f i ThreeDeeApp.obj
 0001:00004810       ?loadXML@FilledArcPart@gizmo@zugster@@UAEXABVXmlTree@cinder@@ABV?$shared_ptr@UIPartFactory@gizmo@zugster@@@boost@@@Z 00405810 f i ThreeDeeApp.obj
 0001:000049e0       ?storeXML@FilledArcPart@gizmo@zugster@@UBEXAAV?$basic_ostream@DU?$char_traits@D@std@@@std@@@Z 004059e0 f i ThreeDeeApp.obj
 0001:00004bd0       ?onRotationChanged@FilledArcPart@gizmo@zugster@@MAEXNN@Z 00405bd0 f i ThreeDeeApp.obj
 0001:00004c50       ??_EFilledArcPart@gizmo@zugster@@UAEPAXI@Z 00405c50 f i  CIL library: CIL module
 0001:00004c50       ??_GFilledArcPart@gizmo@zugster@@UAEPAXI@Z 00405c50 f i ThreeDeeApp.obj
 0001:00004c90       ??0SegmentedFilledArcPart@gizmo@zugster@@QAE@NNHN@Z 00405c90 f i ThreeDeeApp.obj
 0001:00004d70       ??1SegmentedFilledArcPart@gizmo@zugster@@UAE@XZ 00405d70 f i ThreeDeeApp.obj
 0001:00004e10       ?renderGizmo@SegmentedFilledArcPart@gizmo@zugster@@UAEXAAVGizmoContext@23@@Z 00405e10 f i ThreeDeeApp.obj
 0001:00004f60       ?loadXML@SegmentedFilledArcPart@gizmo@zugster@@UAEXABVXmlTree@cinder@@ABV?$shared_ptr@UIPartFactory@gizmo@zugster@@@boost@@@Z 00405f60 f i ThreeDeeApp.obj
 0001:00005160       ?storeXML@SegmentedFilledArcPart@gizmo@zugster@@UBEXAAV?$basic_ostream@DU?$char_traits@D@std@@@std@@@Z 00406160 f i ThreeDeeApp.obj
 0001:00005350       ??_GSegmentedFilledArcPart@gizmo@zugster@@UAEPAXI@Z 00406350 f i ThreeDeeApp.obj
 0001:00005350       ??_ESegmentedFilledArcPart@gizmo@zugster@@UAEPAXI@Z 00406350 f i  CIL library: CIL module
 0001:000053a0       ??0PerimeterPart@gizmo@zugster@@QAE@NV?$shared_ptr@UIPart@gizmo@zugster@@@boost@@_N@Z 004063a0 f i ThreeDeeApp.obj
 0001:000054a0       ?updateGizmo@PerimeterPart@gizmo@zugster@@UAEXXZ 004064a0 f i ThreeDeeApp.obj
 0001:000054f0       ?renderGizmo@PerimeterPart@gizmo@zugster@@UAEXAAVGizmoContext@23@@Z 004064f0 f i ThreeDeeApp.obj
 0001:000055e0       ?loadXML@PerimeterPart@gizmo@zugster@@UAEXABVXmlTree@cinder@@ABV?$shared_ptr@UIPartFactory@gizmo@zugster@@@boost@@@Z 004065e0 f i ThreeDeeApp.obj
 0001:000056f0       ?storeXML@PerimeterPart@gizmo@zugster@@UBEXAAV?$basic_ostream@DU?$char_traits@D@std@@@std@@@Z 004066f0 f i ThreeDeeApp.obj
 0001:000057e0       ?onRotationChanged@PerimeterPart@gizmo@zugster@@MAEXNN@Z 004067e0 f i ThreeDeeApp.obj
 0001:00005810       ??_GPerimeterPart@gizmo@zugster@@UAEPAXI@Z 00406810 f i ThreeDeeApp.obj
 0001:00005810       ??_EPerimeterPart@gizmo@zugster@@UAEPAXI@Z 00406810 f i  CIL library: CIL module
 0001:00005840       ??_DPerimeterPart@gizmo@zugster@@QAEXXZ 00406840 f i ThreeDeeApp.obj
 0001:000058d0       ??0GradientCirclePart@gizmo@zugster@@QAE@MMABV?$ColorAT@M@cinder@@0@Z 004068d0 f i ThreeDeeApp.obj
 0001:000059b0       ??1GradientCirclePart@gizmo@zugster@@UAE@XZ 004069b0 f i ThreeDeeApp.obj
 0001:00005a20       ?renderGizmo@GradientCirclePart@gizmo@zugster@@UAEXAAVGizmoContext@23@@Z 00406a20 f i ThreeDeeApp.obj
 0001:00005ba0       ?loadXML@GradientCirclePart@gizmo@zugster@@UAEXABVXmlTree@cinder@@ABV?$shared_ptr@UIPartFactory@gizmo@zugster@@@boost@@@Z 00406ba0 f i ThreeDeeApp.obj
 0001:00005e00       ?storeXML@GradientCirclePart@gizmo@zugster@@UBEXAAV?$basic_ostream@DU?$char_traits@D@std@@@std@@@Z 00406e00 f i ThreeDeeApp.obj
 0001:00005fc0       ??_GGradientCirclePart@gizmo@zugster@@UAEPAXI@Z 00406fc0 f i ThreeDeeApp.obj
 0001:00005fc0       ??_EGradientCirclePart@gizmo@zugster@@UAEPAXI@Z 00406fc0 f i  CIL library: CIL module
 0001:00006000       ??1GradientRadial@cairo@cinder@@QAE@XZ 00407000 f i ThreeDeeApp.obj
 0001:00006010       ??0RectanglePart@gizmo@zugster@@QAE@N_N0@Z 00407010 f i ThreeDeeApp.obj
 0001:000060d0       ??0RectanglePart@gizmo@zugster@@QAE@NN_N0@Z 004070d0 f i ThreeDeeApp.obj
 0001:00006190       ??1RectanglePart@gizmo@zugster@@UAE@XZ 00407190 f i ThreeDeeApp.obj
 0001:00006200       ?renderGizmo@RectanglePart@gizmo@zugster@@UAEXAAVGizmoContext@23@@Z 00407200 f i ThreeDeeApp.obj
 0001:00006350       ?loadXML@RectanglePart@gizmo@zugster@@UAEXABVXmlTree@cinder@@ABV?$shared_ptr@UIPartFactory@gizmo@zugster@@@boost@@@Z 00407350 f i ThreeDeeApp.obj
 0001:00006360       ?storeXML@RectanglePart@gizmo@zugster@@UBEXAAV?$basic_ostream@DU?$char_traits@D@std@@@std@@@Z 00407360 f i ThreeDeeApp.obj
 0001:00006440       ??_ERectanglePart@gizmo@zugster@@UAEPAXI@Z 00407440 f i  CIL library: CIL module
 0001:00006440       ??_GRectanglePart@gizmo@zugster@@UAEPAXI@Z 00407440 f i ThreeDeeApp.obj
 0001:00006480       ??0GridPart@gizmo@zugster@@QAE@ABV?$Vec2@M@cinder@@HH_N1W4RectangleType@12@@Z 00407480 f i ThreeDeeApp.obj
 0001:00006540       ??1GridPart@gizmo@zugster@@UAE@XZ 00407540 f i ThreeDeeApp.obj
 0001:000065b0       ?renderGizmo@GridPart@gizmo@zugster@@UAEXAAVGizmoContext@23@@Z 004075b0 f i ThreeDeeApp.obj
 0001:00006930       ?loadXML@GridPart@gizmo@zugster@@UAEXABVXmlTree@cinder@@ABV?$shared_ptr@UIPartFactory@gizmo@zugster@@@boost@@@Z 00407930 f i ThreeDeeApp.obj
 0001:00006b60       ?storeXML@GridPart@gizmo@zugster@@UBEXAAV?$basic_ostream@DU?$char_traits@D@std@@@std@@@Z 00407b60 f i ThreeDeeApp.obj
 0001:00006d30       ?toType@GridPart@gizmo@zugster@@KA?AW4RectangleType@23@PBD@Z 00407d30 f i ThreeDeeApp.obj
 0001:00006df0       ??_GGridPart@gizmo@zugster@@UAEPAXI@Z 00407df0 f i ThreeDeeApp.obj
 0001:00006df0       ??_EGridPart@gizmo@zugster@@UAEPAXI@Z 00407df0 f i  CIL library: CIL module
 0001:00006e30       ??0RadialLinesPart@gizmo@zugster@@QAE@MMHMM@Z 00407e30 f i ThreeDeeApp.obj
 0001:00006f00       ??1RadialLinesPart@gizmo@zugster@@UAE@XZ 00407f00 f i ThreeDeeApp.obj
 0001:00006f70       ?renderGizmo@RadialLinesPart@gizmo@zugster@@UAEXAAVGizmoContext@23@@Z 00407f70 f i ThreeDeeApp.obj
 0001:00007160       ?loadXML@RadialLinesPart@gizmo@zugster@@UAEXABVXmlTree@cinder@@ABV?$shared_ptr@UIPartFactory@gizmo@zugster@@@boost@@@Z 00408160 f i ThreeDeeApp.obj
 0001:000073c0       ?storeXML@RadialLinesPart@gizmo@zugster@@UBEXAAV?$basic_ostream@DU?$char_traits@D@std@@@std@@@Z 004083c0 f i ThreeDeeApp.obj
 0001:000075c0       ??_GRadialLinesPart@gizmo@zugster@@UAEPAXI@Z 004085c0 f i ThreeDeeApp.obj
 0001:000075c0       ??_ERadialLinesPart@gizmo@zugster@@UAEPAXI@Z 004085c0 f i  CIL library: CIL module
 0001:00007600       ??0RegularPolygonPart@gizmo@zugster@@QAE@MH_N0@Z 00408600 f i ThreeDeeApp.obj
 0001:000076c0       ??1RegularPolygonPart@gizmo@zugster@@UAE@XZ 004086c0 f i ThreeDeeApp.obj
 0001:00007730       ?renderGizmo@RegularPolygonPart@gizmo@zugster@@UAEXAAVGizmoContext@23@@Z 00408730 f i ThreeDeeApp.obj
 0001:000078d0       ?storeXML@RegularPolygonPart@gizmo@zugster@@UBEXAAV?$basic_ostream@DU?$char_traits@D@std@@@std@@@Z 004088d0 f i ThreeDeeApp.obj
 0001:000079b0       ??_ERegularPolygonPart@gizmo@zugster@@UAEPAXI@Z 004089b0 f i  CIL library: CIL module
 0001:000079b0       ??_GRegularPolygonPart@gizmo@zugster@@UAEPAXI@Z 004089b0 f i ThreeDeeApp.obj
 0001:000079f0       ??0CirclePart@gizmo@zugster@@QAE@N_N0@Z 004089f0 f i ThreeDeeApp.obj
 0001:00007aa0       ??1CirclePart@gizmo@zugster@@UAE@XZ 00408aa0 f i ThreeDeeApp.obj
 0001:00007b10       ?renderGizmo@CirclePart@gizmo@zugster@@UAEXAAVGizmoContext@23@@Z 00408b10 f i ThreeDeeApp.obj
 0001:00007b80       ?loadXML@CirclePart@gizmo@zugster@@UAEXABVXmlTree@cinder@@ABV?$shared_ptr@UIPartFactory@gizmo@zugster@@@boost@@@Z 00408b80 f i ThreeDeeApp.obj
 0001:00007b90       ?storeXML@CirclePart@gizmo@zugster@@UBEXAAV?$basic_ostream@DU?$char_traits@D@std@@@std@@@Z 00408b90 f i ThreeDeeApp.obj
 0001:00007c70       ??_ECirclePart@gizmo@zugster@@UAEPAXI@Z 00408c70 f i  CIL library: CIL module
 0001:00007c70       ??_GCirclePart@gizmo@zugster@@UAEPAXI@Z 00408c70 f i ThreeDeeApp.obj
 0001:00007cb0       ??_D?$basic_ostringstream@DU?$char_traits@D@std@@V?$allocator@D@2@@std@@QAEXXZ 00408cb0 f i ThreeDeeApp.obj
 0001:00007d30       ??0SetLinewidth@gizmo@zugster@@QAE@N@Z 00408d30 f i ThreeDeeApp.obj
 0001:00007dd0       ??1SetLinewidth@gizmo@zugster@@UAE@XZ 00408dd0 f i ThreeDeeApp.obj
 0001:00007e40       ?renderGizmo@SetLinewidth@gizmo@zugster@@UAEXAAVGizmoContext@23@@Z 00408e40 f i ThreeDeeApp.obj
 0001:00007e60       ?loadXML@SetLinewidth@gizmo@zugster@@UAEXABVXmlTree@cinder@@ABV?$shared_ptr@UIPartFactory@gizmo@zugster@@@boost@@@Z 00408e60 f i ThreeDeeApp.obj
 0001:00007e80       ?storeXML@SetLinewidth@gizmo@zugster@@UBEXAAV?$basic_ostream@DU?$char_traits@D@std@@@std@@@Z 00408e80 f i ThreeDeeApp.obj
 0001:00007f20       ??_ESetLinewidth@gizmo@zugster@@UAEPAXI@Z 00408f20 f i  CIL library: CIL module
 0001:00007f20       ??_GSetLinewidth@gizmo@zugster@@UAEPAXI@Z 00408f20 f i ThreeDeeApp.obj
 0001:00007f60       ??0ContextSave@gizmo@zugster@@QAE@XZ 00408f60 f i ThreeDeeApp.obj
 0001:00008000       ?renderGizmo@ContextSave@gizmo@zugster@@UAEXAAVGizmoContext@23@@Z 00409000 f i ThreeDeeApp.obj
 0001:00008070       ?storeXML@ContextSave@gizmo@zugster@@UBEXAAV?$basic_ostream@DU?$char_traits@D@std@@@std@@@Z 00409070 f i ThreeDeeApp.obj
 0001:00008100       ??0ContextRestore@gizmo@zugster@@QAE@XZ 00409100 f i ThreeDeeApp.obj
 0001:000081a0       ?renderGizmo@ContextRestore@gizmo@zugster@@UAEXAAVGizmoContext@23@@Z 004091a0 f i ThreeDeeApp.obj
 0001:000081c0       ?storeXML@ContextRestore@gizmo@zugster@@UBEXAAV?$basic_ostream@DU?$char_traits@D@std@@@std@@@Z 004091c0 f i ThreeDeeApp.obj
 0001:00008250       ??_GContextRestore@gizmo@zugster@@UAEPAXI@Z 00409250 f i ThreeDeeApp.obj
 0001:00008250       ??_GContextSave@gizmo@zugster@@UAEPAXI@Z 00409250 f i ThreeDeeApp.obj
 0001:00008250       ??_EContextSave@gizmo@zugster@@UAEPAXI@Z 00409250 f i  CIL library: CIL module
 0001:00008250       ??_EContextRestore@gizmo@zugster@@UAEPAXI@Z 00409250 f i  CIL library: CIL module
 0001:00008290       ??0CustomFn@gizmo@zugster@@QAE@P6AXAAVGizmoContext@12@@Z@Z 00409290 f i ThreeDeeApp.obj
 0001:00008330       ??1CustomFn@gizmo@zugster@@UAE@XZ 00409330 f i ThreeDeeApp.obj
 0001:000083a0       ?renderGizmo@CustomFn@gizmo@zugster@@UAEXAAVGizmoContext@23@@Z 004093a0 f i ThreeDeeApp.obj
 0001:000083c0       ??_ECustomFn@gizmo@zugster@@UAEPAXI@Z 004093c0 f i  CIL library: CIL module
 0001:000083c0       ??_GCustomFn@gizmo@zugster@@UAEPAXI@Z 004093c0 f i ThreeDeeApp.obj
 0001:00008400       ??0Gizmo@gizmo@zugster@@QAE@XZ 00409400 f i ThreeDeeApp.obj
 0001:000084a0       ??0Gizmo@gizmo@zugster@@QAE@NN@Z 004094a0 f i ThreeDeeApp.obj
 0001:00008560       ??1Gizmo@gizmo@zugster@@UAE@XZ 00409560 f i ThreeDeeApp.obj
 0001:000085d0       ?renderGizmo@Gizmo@gizmo@zugster@@UAEXAAVGizmoContext@23@@Z 004095d0 f i ThreeDeeApp.obj
 0001:00008680       ?storeXML@Gizmo@gizmo@zugster@@UBEXAAV?$basic_ostream@DU?$char_traits@D@std@@@std@@@Z 00409680 f i ThreeDeeApp.obj
 0001:00008790       ??_GGizmo@gizmo@zugster@@UAEPAXI@Z 00409790 f i ThreeDeeApp.obj
 0001:00008790       ??_EGizmo@gizmo@zugster@@UAEPAXI@Z 00409790 f i  CIL library: CIL module
 0001:000087d0       ?render_to_image@gizmo@zugster@@YA?AVSurfaceImage@cairo@cinder@@NNV?$shared_ptr@VGizmo@gizmo@zugster@@@boost@@_N1@Z 004097d0 f   ThreeDeeApp.obj
 0001:00008940       ??1GizmoContext@gizmo@zugster@@QAE@XZ 00409940 f i ThreeDeeApp.obj
 0001:000089b0       ?render_to_texture@gizmo@zugster@@YA?AVTexture@gl@cinder@@NNV?$shared_ptr@VGizmo@gizmo@zugster@@@boost@@_N1@Z 004099b0 f   ThreeDeeApp.obj
 0001:00008af0       ??1IPane@cinderpane@zugster@@UAE@XZ 00409af0 f i ThreeDeeApp.obj
 0001:00008b10       ??_EIPane@cinderpane@zugster@@UAEPAXI@Z 00409b10 f i  CIL library: CIL module
 0001:00008b10       ??_GIPane@cinderpane@zugster@@UAEPAXI@Z 00409b10 f i ThreeDeeApp.obj
 0001:00008b50       ??1PaneBase@cinderpane@zugster@@UAE@XZ 00409b50 f i ThreeDeeApp.obj
 0001:00008c30       ?renderPane@PaneBase@cinderpane@zugster@@UAE?AVTexture@gl@cinder@@XZ 00409c30 f i ThreeDeeApp.obj
 0001:00008c70       ??_EPaneBase@cinderpane@zugster@@UAEPAXI@Z 00409c70 f i  CIL library: CIL module
 0001:00008c70       ??_GPaneBase@cinderpane@zugster@@UAEPAXI@Z 00409c70 f i ThreeDeeApp.obj
 0001:00008ca0       ??0GizmoPane@gizmo@zugster@@QAE@ABV?$Vec2@M@cinder@@0V?$shared_ptr@VGizmo@gizmo@zugster@@@boost@@@Z 00409ca0 f i ThreeDeeApp.obj
 0001:00008dd0       ??1GizmoPane@gizmo@zugster@@UAE@XZ 00409dd0 f i ThreeDeeApp.obj
 0001:00008e80       ?updatePane@GizmoPane@gizmo@zugster@@UAEXXZ 00409e80 f i ThreeDeeApp.obj
 0001:00008f70       ??_GGizmoPane@gizmo@zugster@@UAEPAXI@Z 00409f70 f i ThreeDeeApp.obj
 0001:00008f70       ??_EGizmoPane@gizmo@zugster@@UAEPAXI@Z 00409f70 f i  CIL library: CIL module
 0001:00008fa0       ??_ETouchEvent@app@cinder@@UAEPAXI@Z 00409fa0 f i  CIL library: CIL module
 0001:00008fa0       ??_GTouchEvent@app@cinder@@UAEPAXI@Z 00409fa0 f i ThreeDeeApp.obj
 0001:00008ff0       ??1TouchEvent@app@cinder@@UAE@XZ 00409ff0 f i ThreeDeeApp.obj
 0001:00009020       ?touchesMoved@AppBasic@app@cinder@@UAEXVTouchEvent@23@@Z 0040a020 f i ThreeDeeApp.obj
 0001:00009020       ?touchesBegan@AppBasic@app@cinder@@UAEXVTouchEvent@23@@Z 0040a020 f i ThreeDeeApp.obj
 0001:00009020       ?touchesEnded@AppBasic@app@cinder@@UAEXVTouchEvent@23@@Z 0040a020 f i ThreeDeeApp.obj
 0001:00009040       ?getSettings@AppBasic@app@cinder@@UBEABVSettings@123@XZ 0040a040 f i ThreeDeeApp.obj
 0001:00009050       ??1IMouseListener@cinderpane@zugster@@UAE@XZ 0040a050 f i ThreeDeeApp.obj
 0001:00009060       ?onMouseDrag@IMouseListener@cinderpane@zugster@@UAE_NVMouseEvent@app@cinder@@@Z 0040a060 f i ThreeDeeApp.obj
 0001:00009060       ?onMouseUp@IMouseListener@cinderpane@zugster@@UAE_NVMouseEvent@app@cinder@@@Z 0040a060 f i ThreeDeeApp.obj
 0001:00009060       ?onMouseEnter@IMouseListener@cinderpane@zugster@@UAE_NVMouseEvent@app@cinder@@@Z 0040a060 f i ThreeDeeApp.obj
 0001:00009060       ?onMouseExit@IMouseListener@cinderpane@zugster@@UAE_NVMouseEvent@app@cinder@@@Z 0040a060 f i ThreeDeeApp.obj
 0001:00009060       ?onMouseWheel@IMouseListener@cinderpane@zugster@@UAE_NVMouseEvent@app@cinder@@@Z 0040a060 f i ThreeDeeApp.obj
 0001:00009060       ?onMouseDown@IMouseListener@cinderpane@zugster@@UAE_NVMouseEvent@app@cinder@@@Z 0040a060 f i ThreeDeeApp.obj
 0001:00009060       ?onMouseMove@IMouseListener@cinderpane@zugster@@UAE_NVMouseEvent@app@cinder@@@Z 0040a060 f i ThreeDeeApp.obj
 0001:00009070       ??_GIMouseListener@cinderpane@zugster@@UAEPAXI@Z 0040a070 f i ThreeDeeApp.obj
 0001:00009070       ??_EIMouseListener@cinderpane@zugster@@UAEPAXI@Z 0040a070 f i  CIL library: CIL module
 0001:000090a0       ?onKeyUp@IKeyListener@cinderpane@zugster@@UAE_NVKeyEvent@app@cinder@@@Z 0040a0a0 f i ThreeDeeApp.obj
 0001:000090a0       ?onKeyDown@IKeyListener@cinderpane@zugster@@UAE_NVKeyEvent@app@cinder@@@Z 0040a0a0 f i ThreeDeeApp.obj
 0001:000090b0       ??0EventDispatcher@cinderpane@zugster@@QAE@XZ 0040a0b0 f i ThreeDeeApp.obj
 0001:000091e0       ??1EventDispatcher@cinderpane@zugster@@UAE@XZ 0040a1e0 f i ThreeDeeApp.obj
 0001:00009290       ?add@EventDispatcher@cinderpane@zugster@@QAEXV?$shared_ptr@UIKeyListener@cinderpane@zugster@@@boost@@@Z 0040a290 f i ThreeDeeApp.obj
 0001:00009340       ?add@EventDispatcher@cinderpane@zugster@@QAEXV?$shared_ptr@UIMouseListener@cinderpane@zugster@@@boost@@@Z 0040a340 f i ThreeDeeApp.obj
 0001:000093f0       ?onMouseDown@EventDispatcher@cinderpane@zugster@@UAE_NVMouseEvent@app@cinder@@@Z 0040a3f0 f i ThreeDeeApp.obj
 0001:00009600       ?onMouseUp@EventDispatcher@cinderpane@zugster@@UAE_NVMouseEvent@app@cinder@@@Z 0040a600 f i ThreeDeeApp.obj
 0001:00009810       ?onMouseWheel@EventDispatcher@cinderpane@zugster@@UAE_NVMouseEvent@app@cinder@@@Z 0040a810 f i ThreeDeeApp.obj
 0001:00009a20       ?onMouseMove@EventDispatcher@cinderpane@zugster@@UAE_NVMouseEvent@app@cinder@@@Z 0040aa20 f i ThreeDeeApp.obj
 0001:00009c00       ?onMouseDrag@EventDispatcher@cinderpane@zugster@@UAE_NVMouseEvent@app@cinder@@@Z 0040ac00 f i ThreeDeeApp.obj
 0001:00009e10       ?onKeyDown@EventDispatcher@cinderpane@zugster@@UAE_NVKeyEvent@app@cinder@@@Z 0040ae10 f i ThreeDeeApp.obj
 0001:00009f20       ?onKeyUp@EventDispatcher@cinderpane@zugster@@UAE_NVKeyEvent@app@cinder@@@Z 0040af20 f i ThreeDeeApp.obj
 0001:0000a030       ?onTouchesBegan@EventDispatcher@cinderpane@zugster@@UAE_NVTouchEvent@app@cinder@@@Z 0040b030 f i ThreeDeeApp.obj
 0001:0000a0f0       ?onTouchesMoved@EventDispatcher@cinderpane@zugster@@UAE_NVTouchEvent@app@cinder@@@Z 0040b0f0 f i ThreeDeeApp.obj
 0001:0000a1b0       ?onTouchesEnded@EventDispatcher@cinderpane@zugster@@UAE_NVTouchEvent@app@cinder@@@Z 0040b1b0 f i ThreeDeeApp.obj
 0001:0000a270       ??_EEventDispatcher@cinderpane@zugster@@UAEPAXI@Z 0040b270 f i  CIL library: CIL module
 0001:0000a270       ??_GEventDispatcher@cinderpane@zugster@@UAEPAXI@Z 0040b270 f i ThreeDeeApp.obj
 0001:0000a2a0       ??1?$shared_ptr@VContextSave@gizmo@zugster@@@boost@@QAE@XZ 0040b2a0 f i ThreeDeeApp.obj
 0001:0000a2a0       ??1?$shared_ptr@VCirclePart@gizmo@zugster@@@boost@@QAE@XZ 0040b2a0 f i ThreeDeeApp.obj
 0001:0000a2a0       ??1?$shared_ptr@VSolarizedThemeDark@gizmo@zugster@@@boost@@QAE@XZ 0040b2a0 f i ThreeDeeApp.obj
 0001:0000a2a0       ??1?$shared_ptr@VCustomFn@gizmo@zugster@@@boost@@QAE@XZ 0040b2a0 f i ThreeDeeApp.obj
 0001:0000a2a0       ??1?$shared_ptr@UITheme@gizmo@zugster@@@boost@@QAE@XZ 0040b2a0 f i ThreeDeeApp.obj
 0001:0000a2a0       ??1?$shared_ptr@VRectanglePart@gizmo@zugster@@@boost@@QAE@XZ 0040b2a0 f i ThreeDeeApp.obj
 0001:0000a2a0       ??1?$shared_ptr@UIPane@cinderpane@zugster@@@boost@@QAE@XZ 0040b2a0 f i ThreeDeeApp.obj
 0001:0000a2a0       ??1?$shared_ptr@VArcPart@gizmo@zugster@@@boost@@QAE@XZ 0040b2a0 f i ThreeDeeApp.obj
 0001:0000a2a0       ??1?$shared_ptr@VRadialLinesPart@gizmo@zugster@@@boost@@QAE@XZ 0040b2a0 f i ThreeDeeApp.obj
 0001:0000a2a0       ??1?$shared_ptr@VFilledArcPart@gizmo@zugster@@@boost@@QAE@XZ 0040b2a0 f i ThreeDeeApp.obj
 0001:0000a2a0       ??1?$shared_ptr@VPerimeterPart@gizmo@zugster@@@boost@@QAE@XZ 0040b2a0 f i ThreeDeeApp.obj
 0001:0000a2a0       ??1?$shared_ptr@UIPart@gizmo@zugster@@@boost@@QAE@XZ 0040b2a0 f i ThreeDeeApp.obj
 0001:0000a2a0       ??1?$shared_ptr@VSetLinewidth@gizmo@zugster@@@boost@@QAE@XZ 0040b2a0 f i ThreeDeeApp.obj
 0001:0000a2a0       ??1?$shared_ptr@VGizmo@gizmo@zugster@@@boost@@QAE@XZ 0040b2a0 f i ThreeDeeApp.obj
 0001:0000a2a0       ??1?$shared_ptr@UIMouseListener@cinderpane@zugster@@@boost@@QAE@XZ 0040b2a0 f i ThreeDeeApp.obj
 0001:0000a2a0       ??1?$shared_ptr@VGradientCirclePart@gizmo@zugster@@@boost@@QAE@XZ 0040b2a0 f i ThreeDeeApp.obj
 0001:0000a2a0       ??1?$shared_ptr@VGridPart@gizmo@zugster@@@boost@@QAE@XZ 0040b2a0 f i ThreeDeeApp.obj
 0001:0000a2a0       ??1?$shared_ptr@UIPositionable@cinderpane@zugster@@@boost@@QAE@XZ 0040b2a0 f i ThreeDeeApp.obj
 0001:0000a2a0       ??1?$shared_ptr@VRegularPolygonPart@gizmo@zugster@@@boost@@QAE@XZ 0040b2a0 f i ThreeDeeApp.obj
 0001:0000a2a0       ??1?$shared_ptr@UIKeyListener@cinderpane@zugster@@@boost@@QAE@XZ 0040b2a0 f i ThreeDeeApp.obj
 0001:0000a2a0       ??1?$shared_ptr@VContextRestore@gizmo@zugster@@@boost@@QAE@XZ 0040b2a0 f i ThreeDeeApp.obj
 0001:0000a2a0       ??1?$shared_ptr@VSegmentedFilledArcPart@gizmo@zugster@@@boost@@QAE@XZ 0040b2a0 f i ThreeDeeApp.obj
 0001:0000a2a0       ??1?$shared_ptr@VGizmoPane@gizmo@zugster@@@boost@@QAE@XZ 0040b2a0 f i ThreeDeeApp.obj
 0001:0000a2e0       ??1SaveViewport@cinderpane@zugster@@QAE@XZ 0040b2e0 f i ThreeDeeApp.obj
 0001:0000a2f0       ??1SetWindowMatrix@cinderpane@zugster@@QAE@XZ 0040b2f0 f i ThreeDeeApp.obj
 0001:0000a300       ??1SetAlphaBlend@cinderpane@zugster@@QAE@XZ 0040b300 f i ThreeDeeApp.obj
 0001:0000a310       ?render_shader@cinderpane@zugster@@YAXAAVGlslProg@gl@cinder@@AAVFbo@45@1@Z 0040b310 f   ThreeDeeApp.obj
 0001:0000a420       ??1Interface@cinderpane@zugster@@QAE@XZ 0040b420 f i ThreeDeeApp.obj
 0001:0000a540       ?add@Interface@cinderpane@zugster@@QAEXV?$shared_ptr@UIPane@cinderpane@zugster@@@boost@@@Z 0040b540 f i ThreeDeeApp.obj
 0001:0000a6c0       ?screenshot@Interface@cinderpane@zugster@@QAEXXZ 0040b6c0 f i ThreeDeeApp.obj
 0001:0000a9c0       ?onKeyDown@Interface@cinderpane@zugster@@QAE_NVKeyEvent@app@cinder@@@Z 0040b9c0 f i ThreeDeeApp.obj
 0001:0000abe0       ?setup@Interface@cinderpane@zugster@@QAEXPAVAppBasic@app@cinder@@@Z 0040bbe0 f i ThreeDeeApp.obj
 0001:0000b530       ?onResize@Interface@cinderpane@zugster@@QAE_NVResizeEvent@app@cinder@@@Z 0040c530 f i ThreeDeeApp.obj
 0001:0000b540       ?update@Interface@cinderpane@zugster@@QAEXXZ 0040c540 f i ThreeDeeApp.obj
 0001:0000b5f0       ?render_framebuffer@Interface@cinderpane@zugster@@AAEXXZ 0040c5f0 f i ThreeDeeApp.obj
 0001:0000b6d0       ?render_framebuffer_shaded@Interface@cinderpane@zugster@@AAEXXZ 0040c6d0 f i ThreeDeeApp.obj
 0001:0000b880       ?render_framebuffer_to_screen@Interface@cinderpane@zugster@@AAEXXZ 0040c880 f i ThreeDeeApp.obj
 0001:0000b9a0       ?render_plain@Interface@cinderpane@zugster@@AAEXXZ 0040c9a0 f i ThreeDeeApp.obj
 0001:0000ba40       ?draw@Interface@cinderpane@zugster@@AAEXXZ 0040ca40 f i ThreeDeeApp.obj
 0001:0000bb70       ??1GlslProg@gl@cinder@@QAE@XZ 0040cb70 f i ThreeDeeApp.obj
 0001:0000bbb0       ?make_gizmo@@YA?AV?$shared_ptr@VGizmo@gizmo@zugster@@@boost@@M@Z 0040cbb0 f   ThreeDeeApp.obj
 0001:0000c5b0       ?make_cube_gizmo@@YA?AV?$shared_ptr@VGizmo@gizmo@zugster@@@boost@@V12@@Z 0040d5b0 f   ThreeDeeApp.obj
 0001:0000c700       ?custom@@YAXAAVGizmoContext@gizmo@zugster@@@Z 0040d700 f   ThreeDeeApp.obj
 0001:0000c8a0       ?make_custom@@YA?AV?$shared_ptr@VGizmo@gizmo@zugster@@@boost@@XZ 0040d8a0 f   ThreeDeeApp.obj
 0001:0000c9a0       ?make_reticle@@YA?AV?$shared_ptr@VGizmo@gizmo@zugster@@@boost@@XZ 0040d9a0 f   ThreeDeeApp.obj
 0001:0000cbb0       ?make_fancy_compass@@YA?AV?$shared_ptr@VGizmo@gizmo@zugster@@@boost@@N@Z 0040dbb0 f   ThreeDeeApp.obj
 0001:0000d6b0       ?setup@ThreeDeeApp@@UAEXXZ 0040e6b0 f   ThreeDeeApp.obj
 0001:0000dcf0       ?prepareSettings@ThreeDeeApp@@UAEXPAVSettings@AppBasic@app@cinder@@@Z 0040ecf0 f   ThreeDeeApp.obj
 0001:0000ddb0       ?resize@ThreeDeeApp@@UAEXVResizeEvent@app@cinder@@@Z 0040edb0 f   ThreeDeeApp.obj
 0001:0000de60       ?update@ThreeDeeApp@@UAEXXZ 0040ee60 f   ThreeDeeApp.obj
 0001:0000dfd0       ?draw@ThreeDeeApp@@UAEXXZ  0040efd0 f   ThreeDeeApp.obj
 0001:0000e0d0       _WinMain@16                0040f0d0 f   ThreeDeeApp.obj
 0001:0000e130       ??0ThreeDeeApp@@QAE@XZ     0040f130 f i ThreeDeeApp.obj
 0001:0000e270       ??_GThreeDeeApp@@UAEPAXI@Z 0040f270 f i ThreeDeeApp.obj
 0001:0000e270       ??_EThreeDeeApp@@UAEPAXI@Z 0040f270 f i  CIL library: CIL module
 0001:0000e2a0       ??1ThreeDeeApp@@UAE@XZ     0040f2a0 f i ThreeDeeApp.obj
 0001:0000e3b0       ??1?$refcount_ptr@Uerror_info_container@exception_detail@boost@@@exception_detail@boost@@QAE@XZ 0040f3b0 f i ThreeDeeApp.obj
 0001:0000e3d0       ??0?$basic_string@DU?$char_traits@D@std@@V?$allocator@D@2@@std@@QAE@ABV01@@Z 0040f3d0 f i ThreeDeeApp.obj
 0001:0000e400       ??0?$basic_string@DU?$char_traits@D@std@@V?$allocator@D@2@@std@@QAE@PBD@Z 0040f400 f i ThreeDeeApp.obj
 0001:0000e440       ?_Myptr@?$basic_string@DU?$char_traits@D@std@@V?$allocator@D@2@@std@@QBEPBDXZ 0040f440 f i ThreeDeeApp.obj
 0001:0000e440       ?c_str@?$basic_string@DU?$char_traits@D@std@@V?$allocator@D@2@@std@@QBEPBDXZ 0040f440 f i ThreeDeeApp.obj
 0001:0000e450       ??1?$_Yarn@D@std@@QAE@XZ   0040f450 f i ThreeDeeApp.obj
 0001:0000e470       ??1?$basic_ostream@DU?$char_traits@D@std@@@std@@UAE@XZ 0040f470 f i ThreeDeeApp.obj
 0001:0000e480       ??6?$basic_ostream@DU?$char_traits@D@std@@@std@@QAEAAV01@P6AAAV01@AAV01@@Z@Z 0040f480 f i ThreeDeeApp.obj
 0001:0000e4a0       ??6?$basic_ostream@DU?$char_traits@D@std@@@std@@QAEAAV01@_N@Z 0040f4a0 f i ThreeDeeApp.obj
 0001:0000e670       ??6?$basic_ostream@DU?$char_traits@D@std@@@std@@QAEAAV01@M@Z 0040f670 f i ThreeDeeApp.obj
 0001:0000e850       ??6?$basic_ostream@DU?$char_traits@D@std@@@std@@QAEAAV01@N@Z 0040f850 f i ThreeDeeApp.obj
 0001:0000ea30       ?put@?$basic_ostream@DU?$char_traits@D@std@@@std@@QAEAAV12@D@Z 0040fa30 f i ThreeDeeApp.obj
 0001:0000eba0       ?flush@?$basic_ostream@DU?$char_traits@D@std@@@std@@QAEAAV12@XZ 0040fba0 f i ThreeDeeApp.obj
 0001:0000ec00       ??1?$basic_ios@DU?$char_traits@D@std@@@std@@UAE@XZ 0040fc00 f i ThreeDeeApp.obj
 0001:0000ec10       ??1_Sentry_base@?$basic_istream@DU?$char_traits@D@std@@@std@@QAE@XZ 0040fc10 f i ThreeDeeApp.obj
 0001:0000ec10       ??1sentry@?$basic_istream@DU?$char_traits@D@std@@@std@@QAE@XZ 0040fc10 f i ThreeDeeApp.obj
 0001:0000ec30       ??1?$basic_streambuf@DU?$char_traits@D@std@@@std@@UAE@XZ 0040fc30 f i ThreeDeeApp.obj
 0001:0000ecb0       ?snextc@?$basic_streambuf@DU?$char_traits@D@std@@@std@@QAEHXZ 0040fcb0 f i ThreeDeeApp.obj
 0001:0000ed30       ?_Lock@?$basic_streambuf@DU?$char_traits@D@std@@@std@@UAEXXZ 0040fd30 f i ThreeDeeApp.obj
 0001:0000ed40       ?_Unlock@?$basic_streambuf@DU?$char_traits@D@std@@@std@@UAEXXZ 0040fd40 f i ThreeDeeApp.obj
 0001:0000ed50       ?overflow@?$basic_streambuf@DU?$char_traits@D@std@@@std@@MAEHH@Z 0040fd50 f i ThreeDeeApp.obj
 0001:0000ed50       ?pbackfail@?$basic_streambuf@DU?$char_traits@D@std@@@std@@MAEHH@Z 0040fd50 f i ThreeDeeApp.obj
 0001:0000ed60       ?showmanyc@?$basic_streambuf@DU?$char_traits@D@std@@@std@@MAE_JXZ 0040fd60 f i ThreeDeeApp.obj
 0001:0000ed70       ?underflow@?$basic_streambuf@DU?$char_traits@D@std@@@std@@MAEHXZ 0040fd70 f i ThreeDeeApp.obj
 0001:0000ed80       ?uflow@?$basic_streambuf@DU?$char_traits@D@std@@@std@@MAEHXZ 0040fd80 f i ThreeDeeApp.obj
 0001:0000edb0       ?xsgetn@?$basic_streambuf@DU?$char_traits@D@std@@@std@@MAE_JPAD_J@Z 0040fdb0 f i ThreeDeeApp.obj
 0001:0000ee90       ?xsputn@?$basic_streambuf@DU?$char_traits@D@std@@@std@@MAE_JPBD_J@Z 0040fe90 f i ThreeDeeApp.obj
 0001:0000ef70       ?seekoff@?$basic_streambuf@DU?$char_traits@D@std@@@std@@MAE?AV?$fpos@H@2@_JHH@Z 0040ff70 f i ThreeDeeApp.obj
 0001:0000efa0       ?seekpos@?$basic_streambuf@DU?$char_traits@D@std@@@std@@MAE?AV?$fpos@H@2@V32@H@Z 0040ffa0 f i ThreeDeeApp.obj
 0001:0000efd0       ?setbuf@?$basic_streambuf@DU?$char_traits@D@std@@@std@@MAEPAV12@PAD_J@Z 0040ffd0 f i ThreeDeeApp.obj
 0001:0000efe0       ??0?$vector@V?$basic_string@DU?$char_traits@D@std@@V?$allocator@D@2@@std@@V?$allocator@V?$basic_string@DU?$char_traits@D@std@@V?$allocator@D@2@@std@@@2@@std@@QAE@ABV01@@Z 0040ffe0 f i ThreeDeeApp.obj
 0001:0000f0c0       ?_Tidy@?$vector@V?$basic_string@DU?$char_traits@D@std@@V?$allocator@D@2@@std@@V?$allocator@V?$basic_string@DU?$char_traits@D@std@@V?$allocator@D@2@@std@@@2@@std@@IAEXXZ 004100c0 f i ThreeDeeApp.obj
 0001:0000f0c0       ??1?$vector@V?$basic_string@DU?$char_traits@D@std@@V?$allocator@D@2@@std@@V?$allocator@V?$basic_string@DU?$char_traits@D@std@@V?$allocator@D@2@@std@@@2@@std@@QAE@XZ 004100c0 f i ThreeDeeApp.obj
 0001:0000f110       ??1?$basic_stringbuf@DU?$char_traits@D@std@@V?$allocator@D@2@@std@@UAE@XZ 00410110 f i ThreeDeeApp.obj
 0001:0000f180       ?overflow@?$basic_stringbuf@DU?$char_traits@D@std@@V?$allocator@D@2@@std@@MAEHH@Z 00410180 f i ThreeDeeApp.obj
 0001:0000f330       ?pbackfail@?$basic_stringbuf@DU?$char_traits@D@std@@V?$allocator@D@2@@std@@MAEHH@Z 00410330 f i ThreeDeeApp.obj
 0001:0000f380       ?underflow@?$basic_stringbuf@DU?$char_traits@D@std@@V?$allocator@D@2@@std@@MAEHXZ 00410380 f i ThreeDeeApp.obj
 0001:0000f3f0       ?seekoff@?$basic_stringbuf@DU?$char_traits@D@std@@V?$allocator@D@2@@std@@MAE?AV?$fpos@H@2@_JHH@Z 004103f0 f i ThreeDeeApp.obj
 0001:0000f5b0       ?seekpos@?$basic_stringbuf@DU?$char_traits@D@std@@V?$allocator@D@2@@std@@MAE?AV?$fpos@H@2@V32@H@Z 004105b0 f i ThreeDeeApp.obj
 0001:0000f6e0       ??4?$shared_ptr@UObj@Texture@gl@cinder@@@tr1@std@@QAEAAV012@ABV012@@Z 004106e0 f i ThreeDeeApp.obj
 0001:0000f780       ??1?$is_any_ofF@D@detail@algorithm@boost@@QAE@XZ 00410780 f i ThreeDeeApp.obj
 0001:0000f780       ??1?$token_finderF@U?$is_any_ofF@D@detail@algorithm@boost@@@detail@algorithm@boost@@QAE@XZ 00410780 f i ThreeDeeApp.obj
 0001:0000f7a0       ??0?$vector@V?$_List_const_iterator@V?$_List_val@VXmlTree@cinder@@V?$allocator@VXmlTree@cinder@@@std@@@std@@@std@@V?$allocator@V?$_List_const_iterator@V?$_List_val@VXmlTree@cinder@@V?$allocator@VXmlTree@cinder@@@std@@@std@@@std@@@2@@std@@QAE@ABV01@@Z 004107a0 f i ThreeDeeApp.obj
 0001:0000f7a0       ??0?$vector@PBV?$list@VXmlTree@cinder@@V?$allocator@VXmlTree@cinder@@@std@@@std@@V?$allocator@PBV?$list@VXmlTree@cinder@@V?$allocator@VXmlTree@cinder@@@std@@@std@@@2@@std@@QAE@ABV01@@Z 004107a0 f i ThreeDeeApp.obj
 0001:0000f860       ?reserve@?$vector@V?$shared_ptr@UIPart@gizmo@zugster@@@boost@@V?$allocator@V?$shared_ptr@UIPart@gizmo@zugster@@@boost@@@std@@@std@@QAEXI@Z 00410860 f i ThreeDeeApp.obj
 0001:0000f860       ?reserve@?$vector@V?$shared_ptr@UIPane@cinderpane@zugster@@@boost@@V?$allocator@V?$shared_ptr@UIPane@cinderpane@zugster@@@boost@@@std@@@std@@QAEXI@Z 00410860 f i ThreeDeeApp.obj
 0001:0000f940       ?push_back@?$vector@V?$shared_ptr@UIPane@cinderpane@zugster@@@boost@@V?$allocator@V?$shared_ptr@UIPane@cinderpane@zugster@@@boost@@@std@@@std@@QAEXABV?$shared_ptr@UIPane@cinderpane@zugster@@@boost@@@Z 00410940 f i ThreeDeeApp.obj
 0001:0000f940       ?push_back@?$vector@V?$shared_ptr@UIPart@gizmo@zugster@@@boost@@V?$allocator@V?$shared_ptr@UIPart@gizmo@zugster@@@boost@@@std@@@std@@QAEXABV?$shared_ptr@UIPart@gizmo@zugster@@@boost@@@Z 00410940 f i ThreeDeeApp.obj
 0001:0000f9c0       ??0?$basic_ostringstream@DU?$char_traits@D@std@@V?$allocator@D@2@@std@@QAE@H@Z 004109c0 f i ThreeDeeApp.obj
 0001:0000fac0       ?str@?$basic_ostringstream@DU?$char_traits@D@std@@V?$allocator@D@2@@std@@QBE?AV?$basic_string@DU?$char_traits@D@std@@V?$allocator@D@2@@2@XZ 00410ac0 f i ThreeDeeApp.obj
 0001:0000faf0       ??1?$basic_filebuf@DU?$char_traits@D@std@@@std@@UAE@XZ 00410af0 f i ThreeDeeApp.obj
 0001:0000fb80       ?_Lock@?$basic_filebuf@DU?$char_traits@D@std@@@std@@UAEXXZ 00410b80 f i ThreeDeeApp.obj
 0001:0000fb90       ?_Unlock@?$basic_filebuf@DU?$char_traits@D@std@@@std@@UAEXXZ 00410b90 f i ThreeDeeApp.obj
 0001:0000fba0       ?overflow@?$basic_filebuf@DU?$char_traits@D@std@@@std@@MAEHH@Z 00410ba0 f i ThreeDeeApp.obj
 0001:0000fd90       ?pbackfail@?$basic_filebuf@DU?$char_traits@D@std@@@std@@MAEHH@Z 00410d90 f i ThreeDeeApp.obj
 0001:0000fe20       ?underflow@?$basic_filebuf@DU?$char_traits@D@std@@@std@@MAEHXZ 00410e20 f i ThreeDeeApp.obj
 0001:0000fe70       ?uflow@?$basic_filebuf@DU?$char_traits@D@std@@@std@@MAEHXZ 00410e70 f i ThreeDeeApp.obj
 0001:00010080       ?seekoff@?$basic_filebuf@DU?$char_traits@D@std@@@std@@MAE?AV?$fpos@H@2@_JHH@Z 00411080 f i ThreeDeeApp.obj
 0001:00010180       ?seekpos@?$basic_filebuf@DU?$char_traits@D@std@@@std@@MAE?AV?$fpos@H@2@V32@H@Z 00411180 f i ThreeDeeApp.obj
 0001:00010260       ?setbuf@?$basic_filebuf@DU?$char_traits@D@std@@@std@@MAEPAV?$basic_streambuf@DU?$char_traits@D@std@@@2@PAD_J@Z 00411260 f i ThreeDeeApp.obj
 0001:000102c0       ?sync@?$basic_filebuf@DU?$char_traits@D@std@@@std@@MAEHXZ 004112c0 f i ThreeDeeApp.obj
 0001:000102f0       ?imbue@?$basic_filebuf@DU?$char_traits@D@std@@@std@@MAEXABVlocale@2@@Z 004112f0 f i ThreeDeeApp.obj
 0001:00010310       ??0?$vector@VTouch@TouchEvent@app@cinder@@V?$allocator@VTouch@TouchEvent@app@cinder@@@std@@@std@@QAE@ABV01@@Z 00411310 f i ThreeDeeApp.obj
 0001:000103f0       ?registerCb@?$CallbackMgr@$$A6A_NVTouchEvent@app@cinder@@@Z@cinder@@QAEIV?$function@$$A6A_NVTouchEvent@app@cinder@@@Z@tr1@std@@@Z 004113f0 f i ThreeDeeApp.obj
 0001:000103f0       ?registerCb@?$CallbackMgr@$$A6A_NVResizeEvent@app@cinder@@@Z@cinder@@QAEIV?$function@$$A6A_NVResizeEvent@app@cinder@@@Z@tr1@std@@@Z 004113f0 f i ThreeDeeApp.obj
 0001:000103f0       ?registerCb@?$CallbackMgr@$$A6A_NVMouseEvent@app@cinder@@@Z@cinder@@QAEIV?$function@$$A6A_NVMouseEvent@app@cinder@@@Z@tr1@std@@@Z 004113f0 f i ThreeDeeApp.obj
 0001:000103f0       ?registerCb@?$CallbackMgr@$$A6A_NVKeyEvent@app@cinder@@@Z@cinder@@QAEIV?$function@$$A6A_NVKeyEvent@app@cinder@@@Z@tr1@std@@@Z 004113f0 f i ThreeDeeApp.obj
 0001:000104f0       ??1?$function@$$A6A_NVMouseEvent@app@cinder@@@Z@tr1@std@@QAE@XZ 004114f0 f i ThreeDeeApp.obj
 0001:000104f0       ??1?$function@$$A6A_NVTouchEvent@app@cinder@@@Z@tr1@std@@QAE@XZ 004114f0 f i ThreeDeeApp.obj
 0001:000104f0       ??1?$function@$$A6A_NVKeyEvent@app@cinder@@@Z@tr1@std@@QAE@XZ 004114f0 f i ThreeDeeApp.obj
 0001:000104f0       ??1?$function@$$A6A_NVResizeEvent@app@cinder@@@Z@tr1@std@@QAE@XZ 004114f0 f i ThreeDeeApp.obj
 0001:00010520       ??1?$list@V?$shared_ptr@UIMouseListener@cinderpane@zugster@@@boost@@V?$allocator@V?$shared_ptr@UIMouseListener@cinderpane@zugster@@@boost@@@std@@@std@@QAE@XZ 00411520 f i ThreeDeeApp.obj
 0001:00010520       ??1?$list@V?$shared_ptr@UIKeyListener@cinderpane@zugster@@@boost@@V?$allocator@V?$shared_ptr@UIKeyListener@cinderpane@zugster@@@boost@@@std@@@std@@QAE@XZ 00411520 f i ThreeDeeApp.obj
 0001:00010570       ??1?$vector@V?$shared_ptr@UIPane@cinderpane@zugster@@@boost@@V?$allocator@V?$shared_ptr@UIPane@cinderpane@zugster@@@boost@@@std@@@std@@QAE@XZ 00411570 f i ThreeDeeApp.obj
 0001:000105b0       ??_E?$basic_ostream@DU?$char_traits@D@std@@@std@@UAEPAXI@Z 004115b0 f i  CIL library: CIL module
 0001:000105b0       ??_G?$basic_ostream@DU?$char_traits@D@std@@@std@@UAEPAXI@Z 004115b0 f i ThreeDeeApp.obj
 0001:000105f0       ??_G?$basic_ios@DU?$char_traits@D@std@@@std@@UAEPAXI@Z 004115f0 f i ThreeDeeApp.obj
 0001:000105f0       ??_Gios_base@std@@UAEPAXI@Z 004115f0 f i ThreeDeeApp.obj
 0001:000105f0       ??_Eios_base@std@@UAEPAXI@Z 004115f0 f i  CIL library: CIL module
 0001:000105f0       ??_E?$basic_ios@DU?$char_traits@D@std@@@std@@UAEPAXI@Z 004115f0 f i  CIL library: CIL module
 0001:00010620       ??_G?$basic_istream@DU?$char_traits@D@std@@@std@@UAEPAXI@Z 00411620 f i ThreeDeeApp.obj
 0001:00010620       ??_E?$basic_istream@DU?$char_traits@D@std@@@std@@UAEPAXI@Z 00411620 f i  CIL library: CIL module
 0001:00010660       ??_G?$basic_streambuf@DU?$char_traits@D@std@@@std@@UAEPAXI@Z 00411660 f i ThreeDeeApp.obj
 0001:00010660       ??_E?$basic_streambuf@DU?$char_traits@D@std@@@std@@UAEPAXI@Z 00411660 f i  CIL library: CIL module
 0001:00010660       ??_G?$lexical_stream_limited_src@DV?$basic_streambuf@DU?$char_traits@D@std@@@std@@U?$char_traits@D@2@@detail@boost@@UAEPAXI@Z 00411660 f i ThreeDeeApp.obj
 0001:00010660       ??_E?$lexical_stream_limited_src@DV?$basic_streambuf@DU?$char_traits@D@std@@@std@@U?$char_traits@D@2@@detail@boost@@UAEPAXI@Z 00411660 f i  CIL library: CIL module
 0001:00010690       ??_E?$basic_stringbuf@DU?$char_traits@D@std@@V?$allocator@D@2@@std@@UAEPAXI@Z 00411690 f i  CIL library: CIL module
 0001:00010690       ??_G?$basic_stringbuf@DU?$char_traits@D@std@@V?$allocator@D@2@@std@@UAEPAXI@Z 00411690 f i ThreeDeeApp.obj
 0001:000106c0       ??1?$pair@IV?$function@$$A6A_NVKeyEvent@app@cinder@@@Z@tr1@std@@@std@@QAE@XZ 004116c0 f i ThreeDeeApp.obj
 0001:000106c0       ??1?$pair@IV?$function@$$A6A_NVTouchEvent@app@cinder@@@Z@tr1@std@@@std@@QAE@XZ 004116c0 f i ThreeDeeApp.obj
 0001:000106c0       ??1?$pair@IV?$function@$$A6A_NVMouseEvent@app@cinder@@@Z@tr1@std@@@std@@QAE@XZ 004116c0 f i ThreeDeeApp.obj
 0001:000106c0       ??1?$pair@IV?$function@$$A6A_NVResizeEvent@app@cinder@@@Z@tr1@std@@@std@@QAE@XZ 004116c0 f i ThreeDeeApp.obj
 0001:000106f0       ??_G?$basic_ostringstream@DU?$char_traits@D@std@@V?$allocator@D@2@@std@@UAEPAXI@Z 004116f0 f i ThreeDeeApp.obj
 0001:000106f0       ??_E?$basic_ostringstream@DU?$char_traits@D@std@@V?$allocator@D@2@@std@@UAEPAXI@Z 004116f0 f i  CIL library: CIL module
 0001:00010790       ??_E?$basic_filebuf@DU?$char_traits@D@std@@@std@@UAEPAXI@Z 00411790 f i  CIL library: CIL module
 0001:00010790       ??_G?$basic_filebuf@DU?$char_traits@D@std@@@std@@UAEPAXI@Z 00411790 f i ThreeDeeApp.obj
 0001:00010830       ??_D?$basic_ostream@DU?$char_traits@D@std@@@std@@QAEXXZ 00411830 f i ThreeDeeApp.obj
 0001:00010850       ??_D?$basic_istream@DU?$char_traits@D@std@@@std@@QAEXXZ 00411850 f i ThreeDeeApp.obj
 0001:00010870       ?assign@?$basic_string@DU?$char_traits@D@std@@V?$allocator@D@2@@std@@QAEAAV12@$$QAV12@@Z 00411870 f i ThreeDeeApp.obj
 0001:000108f0       ?append@?$basic_string@DU?$char_traits@D@std@@V?$allocator@D@2@@std@@QAEAAV12@ID@Z 004118f0 f i ThreeDeeApp.obj
 0001:000109a0       ?assign@?$basic_string@DU?$char_traits@D@std@@V?$allocator@D@2@@std@@QAEAAV12@ABV12@II@Z 004119a0 f i ThreeDeeApp.obj
 0001:00010a90       ?compare@?$basic_string@DU?$char_traits@D@std@@V?$allocator@D@2@@std@@QBEHIIPBDI@Z 00411a90 f i ThreeDeeApp.obj
 0001:00010b00       ?_Tidy@?$basic_string@DU?$char_traits@D@std@@V?$allocator@D@2@@std@@QAEX_NI@Z 00411b00 f i ThreeDeeApp.obj
 0001:00010b50       ?allocate@?$allocator@D@std@@QAEPADI@Z 00411b50 f i ThreeDeeApp.obj
 0001:00010ba0       ??0?$basic_ostream@DU?$char_traits@D@std@@@std@@QAE@PAV?$basic_streambuf@DU?$char_traits@D@std@@@1@_N@Z 00411ba0 f i ThreeDeeApp.obj
 0001:00010c70       ?_Ipfx@?$basic_istream@DU?$char_traits@D@std@@@std@@QAE_N_N@Z 00411c70 f i ThreeDeeApp.obj
 0001:00010e10       ?_Gnavail@?$basic_streambuf@DU?$char_traits@D@std@@@std@@IBE_JXZ 00411e10 f i ThreeDeeApp.obj
 0001:00010e30       ?_Pnavail@?$basic_streambuf@DU?$char_traits@D@std@@@std@@IBE_JXZ 00411e30 f i ThreeDeeApp.obj
 0001:00010e50       ?str@?$basic_stringbuf@DU?$char_traits@D@std@@V?$allocator@D@2@@std@@QBE?AV?$basic_string@DU?$char_traits@D@std@@V?$allocator@D@2@@2@XZ 00411e50 f i ThreeDeeApp.obj
 0001:00010f80       ??R?$less@V?$basic_string@DU?$char_traits@D@std@@V?$allocator@D@2@@std@@@std@@QBE_NABV?$basic_string@DU?$char_traits@D@std@@V?$allocator@D@2@@1@0@Z 00411f80 f i ThreeDeeApp.obj
 0001:00010fe0       ?push_back@?$deque@U?$pair@V?$ColorAT@M@cinder@@V12@@std@@V?$allocator@U?$pair@V?$ColorAT@M@cinder@@V12@@std@@@2@@std@@QAEX$$QAU?$pair@V?$ColorAT@M@cinder@@V12@@2@@Z 00411fe0 f i ThreeDeeApp.obj
 0001:00011090       ?_Tidy@?$deque@U?$pair@V?$ColorAT@M@cinder@@V12@@std@@V?$allocator@U?$pair@V?$ColorAT@M@cinder@@V12@@std@@@2@@std@@IAEXXZ 00412090 f i ThreeDeeApp.obj
 0001:00011090       ?_Tidy@?$deque@V?$Vec2@M@cinder@@V?$allocator@V?$Vec2@M@cinder@@@std@@@std@@IAEXXZ 00412090 f i ThreeDeeApp.obj
 0001:00011100       ?push_back@?$deque@V?$Vec2@M@cinder@@V?$allocator@V?$Vec2@M@cinder@@@std@@@std@@QAEXABV?$Vec2@M@cinder@@@Z 00412100 f i ThreeDeeApp.obj
 0001:000111b0       ?_Reserve@?$vector@V?$shared_ptr@UIPart@gizmo@zugster@@@boost@@V?$allocator@V?$shared_ptr@UIPart@gizmo@zugster@@@boost@@@std@@@std@@IAEXI@Z 004121b0 f i ThreeDeeApp.obj
 0001:000111b0       ?_Reserve@?$vector@V?$shared_ptr@UIPane@cinderpane@zugster@@@boost@@V?$allocator@V?$shared_ptr@UIPane@cinderpane@zugster@@@boost@@@std@@@std@@IAEXI@Z 004121b0 f i ThreeDeeApp.obj
 0001:00011200       ?allocate@?$allocator@V?$shared_ptr@UIPane@cinderpane@zugster@@@boost@@@std@@QAEPAV?$shared_ptr@UIPane@cinderpane@zugster@@@boost@@I@Z 00412200 f i ThreeDeeApp.obj
 0001:00011200       ?allocate@?$allocator@V?$shared_ptr@UIPart@gizmo@zugster@@@boost@@@std@@QAEPAV?$shared_ptr@UIPart@gizmo@zugster@@@boost@@I@Z 00412200 f i ThreeDeeApp.obj
 0001:00011260       ?close@?$basic_filebuf@DU?$char_traits@D@std@@@std@@QAEPAV12@XZ 00412260 f i ThreeDeeApp.obj
 0001:000112f0       ?_Init@?$basic_filebuf@DU?$char_traits@D@std@@@std@@IAEXPAU_iobuf@@W4_Initfl@12@@Z 004122f0 f i ThreeDeeApp.obj
 0001:00011390       ?_Endwrite@?$basic_filebuf@DU?$char_traits@D@std@@@std@@IAE_NXZ 00412390 f i ThreeDeeApp.obj
 0001:000114d0       ?_Initcvt@?$basic_filebuf@DU?$char_traits@D@std@@@std@@IAEXPBV?$codecvt@DDH@2@@Z 004124d0 f i ThreeDeeApp.obj
 0001:00011560       ?_Reset_back@?$basic_filebuf@DU?$char_traits@D@std@@@std@@AAEXXZ 00412560 f i ThreeDeeApp.obj
 0001:00011590       ?_Set_back@?$basic_filebuf@DU?$char_traits@D@std@@@std@@AAEXXZ 00412590 f i ThreeDeeApp.obj
 0001:000115d0       ?_Buy@?$vector@VTouch@TouchEvent@app@cinder@@V?$allocator@VTouch@TouchEvent@app@cinder@@@std@@@std@@IAE_NI@Z 004125d0 f i ThreeDeeApp.obj
 0001:00011630       ??1?$_List_val@V?$shared_ptr@UIKeyListener@cinderpane@zugster@@@boost@@V?$allocator@V?$shared_ptr@UIKeyListener@cinderpane@zugster@@@boost@@@std@@@std@@QAE@XZ 00412630 f i ThreeDeeApp.obj
 0001:00011630       ??1?$_List_val@V?$shared_ptr@UIMouseListener@cinderpane@zugster@@@boost@@V?$allocator@V?$shared_ptr@UIMouseListener@cinderpane@zugster@@@boost@@@std@@@std@@QAE@XZ 00412630 f i ThreeDeeApp.obj
 0001:00011630       ??1?$_List_val@V?$shared_ptr@UITouchListener@cinderpane@zugster@@@boost@@V?$allocator@V?$shared_ptr@UITouchListener@cinderpane@zugster@@@boost@@@std@@@std@@QAE@XZ 00412630 f i ThreeDeeApp.obj
 0001:00011640       ??1sentry@?$basic_ostream@DU?$char_traits@D@std@@@std@@QAE@XZ 00412640 f i ThreeDeeApp.obj
 0001:000116b0       ?put@?$num_put@DV?$ostreambuf_iterator@DU?$char_traits@D@std@@@std@@@std@@QBE?AV?$ostreambuf_iterator@DU?$char_traits@D@std@@@2@V32@AAVios_base@2@D_N@Z 004126b0 f i ThreeDeeApp.obj
 0001:000116e0       ?do_put@?$num_put@DV?$ostreambuf_iterator@DU?$char_traits@D@std@@@std@@@std@@MBE?AV?$ostreambuf_iterator@DU?$char_traits@D@std@@@2@V32@AAVios_base@2@D_N@Z 004126e0 f i ThreeDeeApp.obj
 0001:00011930       ?do_put@?$num_put@DV?$ostreambuf_iterator@DU?$char_traits@D@std@@@std@@@std@@MBE?AV?$ostreambuf_iterator@DU?$char_traits@D@std@@@2@V32@AAVios_base@2@DJ@Z 00412930 f i ThreeDeeApp.obj
 0001:000119b0       ?do_put@?$num_put@DV?$ostreambuf_iterator@DU?$char_traits@D@std@@@std@@@std@@MBE?AV?$ostreambuf_iterator@DU?$char_traits@D@std@@@2@V32@AAVios_base@2@DK@Z 004129b0 f i ThreeDeeApp.obj
 0001:00011a30       ?do_put@?$num_put@DV?$ostreambuf_iterator@DU?$char_traits@D@std@@@std@@@std@@MBE?AV?$ostreambuf_iterator@DU?$char_traits@D@std@@@2@V32@AAVios_base@2@D_J@Z 00412a30 f i ThreeDeeApp.obj
 0001:00011ac0       ?do_put@?$num_put@DV?$ostreambuf_iterator@DU?$char_traits@D@std@@@std@@@std@@MBE?AV?$ostreambuf_iterator@DU?$char_traits@D@std@@@2@V32@AAVios_base@2@D_K@Z 00412ac0 f i ThreeDeeApp.obj
 0001:00011b50       ?do_put@?$num_put@DV?$ostreambuf_iterator@DU?$char_traits@D@std@@@std@@@std@@MBE?AV?$ostreambuf_iterator@DU?$char_traits@D@std@@@2@V32@AAVios_base@2@DN@Z 00412b50 f i ThreeDeeApp.obj
 0001:00011d60       ?do_put@?$num_put@DV?$ostreambuf_iterator@DU?$char_traits@D@std@@@std@@@std@@MBE?AV?$ostreambuf_iterator@DU?$char_traits@D@std@@@2@V32@AAVios_base@2@DO@Z 00412d60 f i ThreeDeeApp.obj
 0001:00011f60       ?do_put@?$num_put@DV?$ostreambuf_iterator@DU?$char_traits@D@std@@@std@@@std@@MBE?AV?$ostreambuf_iterator@DU?$char_traits@D@std@@@2@V32@AAVios_base@2@DPBX@Z 00412f60 f i ThreeDeeApp.obj
 0001:00011fd0       ?do_out@?$codecvt@DDH@std@@MBEHAAHPBD1AAPBDPAD3AAPAD@Z 00412fd0 f i ThreeDeeApp.obj
 0001:00011fd0       ?do_in@?$codecvt@DDH@std@@MBEHAAHPBD1AAPBDPAD3AAPAD@Z 00412fd0 f i ThreeDeeApp.obj
 0001:00011ff0       ?do_unshift@?$codecvt@DDH@std@@MBEHAAHPAD1AAPAD@Z 00412ff0 f i ThreeDeeApp.obj
 0001:00012010       ?do_length@?$codecvt@DDH@std@@MBEHABHPBD1I@Z 00413010 f i ThreeDeeApp.obj
 0001:00012030       ?append@?$basic_string@DU?$char_traits@D@std@@V?$allocator@D@2@@std@@QAEAAV12@ABV12@II@Z 00413030 f i ThreeDeeApp.obj
 0001:00012120       ?append@?$basic_string@DU?$char_traits@D@std@@V?$allocator@D@2@@std@@QAEAAV12@PBDI@Z 00413120 f i ThreeDeeApp.obj
 0001:00012240       ?assign@?$basic_string@DU?$char_traits@D@std@@V?$allocator@D@2@@std@@QAEAAV12@PBDI@Z 00413240 f i ThreeDeeApp.obj
 0001:00012340       ?assign@?$basic_string@DU?$char_traits@D@std@@V?$allocator@D@2@@std@@QAEAAV12@ID@Z 00413340 f i ThreeDeeApp.obj
 0001:00012400       ?insert@?$basic_string@DU?$char_traits@D@std@@V?$allocator@D@2@@std@@QAEAAV12@IID@Z 00413400 f i ThreeDeeApp.obj
 0001:00012500       ?_Chassign@?$basic_string@DU?$char_traits@D@std@@V?$allocator@D@2@@std@@QAEXIID@Z 00413500 f i ThreeDeeApp.obj
 0001:00012540       ?_Grow@?$basic_string@DU?$char_traits@D@std@@V?$allocator@D@2@@std@@QAE_NI_N@Z 00413540 f i ThreeDeeApp.obj
 0001:000125f0       ?_Osfx@?$basic_ostream@DU?$char_traits@D@std@@@std@@QAEXXZ 004135f0 f i ThreeDeeApp.obj
 0001:00012690       ??0?$basic_streambuf@DU?$char_traits@D@std@@@std@@IAE@XZ 00413690 f i ThreeDeeApp.obj
 0001:00012780       ?allocate@?$allocator@V?$basic_string@DU?$char_traits@D@std@@V?$allocator@D@2@@std@@@std@@QAEPAV?$basic_string@DU?$char_traits@D@std@@V?$allocator@D@2@@2@I@Z 00413780 f i ThreeDeeApp.obj
 0001:000127e0       ?_Reserve@?$vector@U?$pair@IV?$function@$$A6A_NVKeyEvent@app@cinder@@@Z@tr1@std@@@std@@V?$allocator@U?$pair@IV?$function@$$A6A_NVKeyEvent@app@cinder@@@Z@tr1@std@@@std@@@2@@std@@IAEXI@Z 004137e0 f i ThreeDeeApp.obj
 0001:000127e0       ?_Reserve@?$vector@U?$pair@IV?$function@$$A6A_NVTouchEvent@app@cinder@@@Z@tr1@std@@@std@@V?$allocator@U?$pair@IV?$function@$$A6A_NVTouchEvent@app@cinder@@@Z@tr1@std@@@std@@@2@@std@@IAEXI@Z 004137e0 f i ThreeDeeApp.obj
 0001:000127e0       ?_Reserve@?$vector@U?$pair@IV?$function@$$A6A_NVResizeEvent@app@cinder@@@Z@tr1@std@@@std@@V?$allocator@U?$pair@IV?$function@$$A6A_NVResizeEvent@app@cinder@@@Z@tr1@std@@@std@@@2@@std@@IAEXI@Z 004137e0 f i ThreeDeeApp.obj
 0001:000127e0       ?_Reserve@?$vector@U?$pair@IV?$function@$$A6A_NVMouseEvent@app@cinder@@@Z@tr1@std@@@std@@V?$allocator@U?$pair@IV?$function@$$A6A_NVMouseEvent@app@cinder@@@Z@tr1@std@@@std@@@2@@std@@IAEXI@Z 004137e0 f i ThreeDeeApp.obj
 0001:00012830       ?allocate@?$allocator@I@std@@QAEPAII@Z 00413830 f i cinder:Fbo.obj
 0001:00012830       ?allocate@?$allocator@PBV?$list@VXmlTree@cinder@@V?$allocator@VXmlTree@cinder@@@std@@@std@@@std@@QAEPAPBV?$list@VXmlTree@cinder@@V?$allocator@VXmlTree@cinder@@@std@@@2@I@Z 00413830 f i ThreeDeeApp.obj
 0001:00012830       ?allocate@?$allocator@V?$_List_const_iterator@V?$_List_val@VXmlTree@cinder@@V?$allocator@VXmlTree@cinder@@@std@@@std@@@std@@@std@@QAEPAV?$_List_const_iterator@V?$_List_val@VXmlTree@cinder@@V?$allocator@VXmlTree@cinder@@@std@@@std@@@2@I@Z 00413830 f i ThreeDeeApp.obj
 0001:00012890       ?end@?$deque@V?$Vec2@M@cinder@@V?$allocator@V?$Vec2@M@cinder@@@std@@@std@@QAE?AV?$_Deque_iterator@V?$Vec2@M@cinder@@V?$allocator@V?$Vec2@M@cinder@@@std@@@2@XZ 00413890 f i ThreeDeeApp.obj
 0001:00012890       ?end@?$deque@U?$pair@V?$ColorAT@M@cinder@@V12@@std@@V?$allocator@U?$pair@V?$ColorAT@M@cinder@@V12@@std@@@2@@std@@QAE?AV?$_Deque_iterator@U?$pair@V?$ColorAT@M@cinder@@V12@@std@@V?$allocator@U?$pair@V?$ColorAT@M@cinder@@V12@@std@@@2@@2@XZ 00413890 f i ThreeDeeApp.obj
 0001:000128b0       ?_Growmap@?$deque@U?$pair@V?$ColorAT@M@cinder@@V12@@std@@V?$allocator@U?$pair@V?$ColorAT@M@cinder@@V12@@std@@@2@@std@@IAEXI@Z 004138b0 f i ThreeDeeApp.obj
 0001:00012a40       ?_Growmap@?$deque@V?$Vec2@M@cinder@@V?$allocator@V?$Vec2@M@cinder@@@std@@@std@@IAEXI@Z 00413a40 f i ThreeDeeApp.obj
 0001:00012bd0       ?allocate@?$allocator@VTouch@TouchEvent@app@cinder@@@std@@QAEPAVTouch@TouchEvent@app@cinder@@I@Z 00413bd0 f i ThreeDeeApp.obj
 0001:00012c30       ?_Buynode@?$_List_val@V?$shared_ptr@UIKeyListener@cinderpane@zugster@@@boost@@V?$allocator@V?$shared_ptr@UIKeyListener@cinderpane@zugster@@@boost@@@std@@@std@@QAEPAU_Node@?$_List_nod@V?$shared_ptr@UIKeyListener@cinderpane@zugster@@@boost@@V?$allocator@V?$shared_ptr@UIKeyListener@cinderpane@zugster@@@boost@@@std@@@2@PAU342@0ABV?$shared_ptr@UIKeyListener@cinderpane@zugster@@@boost@@@Z 00413c30 f i ThreeDeeApp.obj
 0001:00012c30       ?_Buynode@?$_List_val@V?$shared_ptr@UIMouseListener@cinderpane@zugster@@@boost@@V?$allocator@V?$shared_ptr@UIMouseListener@cinderpane@zugster@@@boost@@@std@@@std@@QAEPAU_Node@?$_List_nod@V?$shared_ptr@UIMouseListener@cinderpane@zugster@@@boost@@V?$allocator@V?$shared_ptr@UIMouseListener@cinderpane@zugster@@@boost@@@std@@@2@PAU342@0ABV?$shared_ptr@UIMouseListener@cinderpane@zugster@@@boost@@@Z 00413c30 f i ThreeDeeApp.obj
 0001:00012ca0       ?clear@?$list@V?$shared_ptr@UITouchListener@cinderpane@zugster@@@boost@@V?$allocator@V?$shared_ptr@UITouchListener@cinderpane@zugster@@@boost@@@std@@@std@@QAEXXZ 00413ca0 f i ThreeDeeApp.obj
 0001:00012ca0       ?clear@?$list@V?$shared_ptr@UIKeyListener@cinderpane@zugster@@@boost@@V?$allocator@V?$shared_ptr@UIKeyListener@cinderpane@zugster@@@boost@@@std@@@std@@QAEXXZ 00413ca0 f i ThreeDeeApp.obj
 0001:00012ca0       ?clear@?$list@V?$shared_ptr@UIMouseListener@cinderpane@zugster@@@boost@@V?$allocator@V?$shared_ptr@UIMouseListener@cinderpane@zugster@@@boost@@@std@@@std@@QAEXXZ 00413ca0 f i ThreeDeeApp.obj
 0001:00012d10       ??1_Sentry_base@?$basic_ostream@DU?$char_traits@D@std@@@std@@QAE@XZ 00413d10 f i ThreeDeeApp.obj
 0001:00012d30       ?_Fput@?$num_put@DV?$ostreambuf_iterator@DU?$char_traits@D@std@@@std@@@std@@ABA?AV?$ostreambuf_iterator@DU?$char_traits@D@std@@@2@V32@AAVios_base@2@DPBDIIII@Z 00413d30 f i ThreeDeeApp.obj
 0001:00013340       ?_Ifmt@?$num_put@DV?$ostreambuf_iterator@DU?$char_traits@D@std@@@std@@@std@@ABAPADPADPBDH@Z 00414340 f i ThreeDeeApp.obj
 0001:000133d0       ?_Iput@?$num_put@DV?$ostreambuf_iterator@DU?$char_traits@D@std@@@std@@@std@@ABA?AV?$ostreambuf_iterator@DU?$char_traits@D@std@@@2@V32@AAVios_base@2@DPADI@Z 004143d0 f i ThreeDeeApp.obj
 0001:000136a0       ?_Put@?$num_put@DV?$ostreambuf_iterator@DU?$char_traits@D@std@@@std@@@std@@ABA?AV?$ostreambuf_iterator@DU?$char_traits@D@std@@@2@V32@PBDI@Z 004146a0 f i ThreeDeeApp.obj
 0001:000136a0       ?_Putc@?$num_put@DV?$ostreambuf_iterator@DU?$char_traits@D@std@@@std@@@std@@ABA?AV?$ostreambuf_iterator@DU?$char_traits@D@std@@@2@V32@PBDI@Z 004146a0 f i ThreeDeeApp.obj
 0001:00013710       ?_Rep@?$num_put@DV?$ostreambuf_iterator@DU?$char_traits@D@std@@@std@@@std@@ABA?AV?$ostreambuf_iterator@DU?$char_traits@D@std@@@2@V32@DI@Z 00414710 f i ThreeDeeApp.obj
 0001:00013780       ??G?$_Deque_iterator@U?$pair@V?$ColorAT@M@cinder@@V12@@std@@V?$allocator@U?$pair@V?$ColorAT@M@cinder@@V12@@std@@@2@@std@@QBE?AV01@H@Z 00414780 f i ThreeDeeApp.obj
 0001:00013780       ??G?$_Deque_iterator@V?$Vec2@M@cinder@@V?$allocator@V?$Vec2@M@cinder@@@std@@@std@@QBE?AV01@H@Z 00414780 f i ThreeDeeApp.obj
 0001:000137c0       ?falsename@?$numpunct@D@std@@QBE?AV?$basic_string@DU?$char_traits@D@std@@V?$allocator@D@2@@2@XZ 004147c0 f i ThreeDeeApp.obj
 0001:000137e0       ?truename@?$numpunct@D@std@@QBE?AV?$basic_string@DU?$char_traits@D@std@@V?$allocator@D@2@@2@XZ 004147e0 f i ThreeDeeApp.obj
 0001:00013800       ?do_decimal_point@?$numpunct@D@std@@MBEDXZ 00414800 f i ThreeDeeApp.obj
 0001:00013810       ?do_thousands_sep@?$numpunct@D@std@@MBEDXZ 00414810 f i ThreeDeeApp.obj
 0001:00013820       ?do_grouping@?$numpunct@D@std@@MBE?AV?$basic_string@DU?$char_traits@D@std@@V?$allocator@D@2@@2@XZ 00414820 f i ThreeDeeApp.obj
 0001:00013870       ?do_falsename@?$numpunct@D@std@@MBE?AV?$basic_string@DU?$char_traits@D@std@@V?$allocator@D@2@@2@XZ 00414870 f i ThreeDeeApp.obj
 0001:000138c0       ?do_truename@?$numpunct@D@std@@MBE?AV?$basic_string@DU?$char_traits@D@std@@V?$allocator@D@2@@2@XZ 004148c0 f i ThreeDeeApp.obj
 0001:00013910       ??_E?$_Impl_no_alloc1@U?$_Callable_obj@V?$binder1st@V?$mem_fun1_t@_NVEventDispatcher@cinderpane@zugster@@VMouseEvent@app@cinder@@@std@@@std@@$0A@@tr1@std@@_NVMouseEvent@app@cinder@@@tr1@std@@UAEPAXI@Z 00414910 f i  CIL library: CIL module
 0001:00013910       ??_G?$_Impl_base1@_NVMouseEvent@app@cinder@@@tr1@std@@UAEPAXI@Z 00414910 f i ThreeDeeApp.obj
 0001:00013910       ??_G?$_Impl_no_alloc1@U?$_Callable_obj@V?$binder1st@V?$mem_fun1_t@_NVEventDispatcher@cinderpane@zugster@@VMouseEvent@app@cinder@@@std@@@std@@$0A@@tr1@std@@_NVMouseEvent@app@cinder@@@tr1@std@@UAEPAXI@Z 00414910 f i ThreeDeeApp.obj
 0001:00013910       ??_E?$_Impl_base1@_NVMouseEvent@app@cinder@@@tr1@std@@UAEPAXI@Z 00414910 f i  CIL library: CIL module
 0001:00013940       ??_E?$_Impl_no_alloc1@U?$_Callable_obj@V?$binder1st@V?$mem_fun1_t@_NVInterface@cinderpane@zugster@@VResizeEvent@app@cinder@@@std@@@std@@$0A@@tr1@std@@_NVResizeEvent@app@cinder@@@tr1@std@@UAEPAXI@Z 00414940 f i  CIL library: CIL module
 0001:00013940       ??_E?$_Impl_base1@_NVResizeEvent@app@cinder@@@tr1@std@@UAEPAXI@Z 00414940 f i  CIL library: CIL module
 0001:00013940       ??_G?$_Impl_base1@_NVResizeEvent@app@cinder@@@tr1@std@@UAEPAXI@Z 00414940 f i ThreeDeeApp.obj
 0001:00013940       ??_G?$_Impl_no_alloc1@U?$_Callable_obj@V?$binder1st@V?$mem_fun1_t@_NVInterface@cinderpane@zugster@@VResizeEvent@app@cinder@@@std@@@std@@$0A@@tr1@std@@_NVResizeEvent@app@cinder@@@tr1@std@@UAEPAXI@Z 00414940 f i ThreeDeeApp.obj
 0001:00013970       ??_E?$numpunct@D@std@@MAEPAXI@Z 00414970 f i  CIL library: CIL module
 0001:00013970       ??_G?$numpunct@D@std@@MAEPAXI@Z 00414970 f i ThreeDeeApp.obj
 0001:000139c0       ?replace@?$basic_string@DU?$char_traits@D@std@@V?$allocator@D@2@@std@@QAEAAV12@IIABV12@II@Z 004149c0 f i ThreeDeeApp.obj
 0001:00013ce0       ?_Copy@?$basic_string@DU?$char_traits@D@std@@V?$allocator@D@2@@std@@QAEXII@Z 00414ce0 f i ThreeDeeApp.obj
 0001:00013e50       ?widen@?$basic_ios@DU?$char_traits@D@std@@@std@@QBEDD@Z 00414e50 f i ThreeDeeApp.obj
 0001:00013f00       ?reserve@?$vector@U?$pair@IV?$function@$$A6A_NVMouseEvent@app@cinder@@@Z@tr1@std@@@std@@V?$allocator@U?$pair@IV?$function@$$A6A_NVMouseEvent@app@cinder@@@Z@tr1@std@@@std@@@2@@std@@QAEXI@Z 00414f00 f i ThreeDeeApp.obj
 0001:00013f00       ?reserve@?$vector@U?$pair@IV?$function@$$A6A_NVTouchEvent@app@cinder@@@Z@tr1@std@@@std@@V?$allocator@U?$pair@IV?$function@$$A6A_NVTouchEvent@app@cinder@@@Z@tr1@std@@@std@@@2@@std@@QAEXI@Z 00414f00 f i ThreeDeeApp.obj
 0001:00013f00       ?reserve@?$vector@U?$pair@IV?$function@$$A6A_NVKeyEvent@app@cinder@@@Z@tr1@std@@@std@@V?$allocator@U?$pair@IV?$function@$$A6A_NVKeyEvent@app@cinder@@@Z@tr1@std@@@std@@@2@@std@@QAEXI@Z 00414f00 f i ThreeDeeApp.obj
 0001:00013f00       ?reserve@?$vector@U?$pair@IV?$function@$$A6A_NVResizeEvent@app@cinder@@@Z@tr1@std@@@std@@V?$allocator@U?$pair@IV?$function@$$A6A_NVResizeEvent@app@cinder@@@Z@tr1@std@@@std@@@2@@std@@QAEXI@Z 00414f00 f i ThreeDeeApp.obj
 0001:00013ff0       ?_Putgrouped@?$num_put@DV?$ostreambuf_iterator@DU?$char_traits@D@std@@@std@@@std@@ABA?AV?$ostreambuf_iterator@DU?$char_traits@D@std@@@2@V32@PBDID@Z 00414ff0 f i ThreeDeeApp.obj
 0001:00014090       ??4?$ostreambuf_iterator@DU?$char_traits@D@std@@@std@@QAEAAV01@D@Z 00415090 f i ThreeDeeApp.obj
 0001:000140e0       ?grouping@?$numpunct@D@std@@QBE?AV?$basic_string@DU?$char_traits@D@std@@V?$allocator@D@2@@2@XZ 004150e0 f i ThreeDeeApp.obj
 0001:00014100       ?_Tidy@?$numpunct@D@std@@AAEXXZ 00415100 f i ThreeDeeApp.obj
 0001:00014130       ?allocate@?$allocator@U?$pair@IV?$function@$$A6A_NVKeyEvent@app@cinder@@@Z@tr1@std@@@std@@@std@@QAEPAU?$pair@IV?$function@$$A6A_NVKeyEvent@app@cinder@@@Z@tr1@std@@@2@I@Z 00415130 f i ThreeDeeApp.obj
 0001:00014130       ?allocate@?$allocator@U?$pair@IV?$function@$$A6A_NVResizeEvent@app@cinder@@@Z@tr1@std@@@std@@@std@@QAEPAU?$pair@IV?$function@$$A6A_NVResizeEvent@app@cinder@@@Z@tr1@std@@@2@I@Z 00415130 f i ThreeDeeApp.obj
 0001:00014130       ?allocate@?$allocator@U?$pair@IV?$function@$$A6A_NVMouseEvent@app@cinder@@@Z@tr1@std@@@std@@@std@@QAEPAU?$pair@IV?$function@$$A6A_NVMouseEvent@app@cinder@@@Z@tr1@std@@@2@I@Z 00415130 f i ThreeDeeApp.obj
 0001:00014130       ?allocate@?$allocator@U?$pair@IV?$function@$$A6A_NVTouchEvent@app@cinder@@@Z@tr1@std@@@std@@@std@@QAEPAU?$pair@IV?$function@$$A6A_NVTouchEvent@app@cinder@@@Z@tr1@std@@@2@I@Z 00415130 f i ThreeDeeApp.obj
 0001:00014180       ??$use_facet@V?$ctype@D@std@@@std@@YAABV?$ctype@D@0@ABVlocale@0@@Z 00415180 f i ThreeDeeApp.obj
 0001:000142c0       ??X?$Matrix44@M@cinder@@QAEAAV01@ABV01@@Z 004152c0 f i ThreeDeeApp.obj
 0001:00014540       ?createRotation@?$Matrix44@M@cinder@@SA?AV12@ABV?$Vec3@M@2@M@Z 00415540 f i ThreeDeeApp.obj
 0001:00014690       ??$?6DU?$char_traits@D@std@@V?$allocator@D@1@@std@@YAAAV?$basic_ostream@DU?$char_traits@D@std@@@0@AAV10@ABV?$basic_string@DU?$char_traits@D@std@@V?$allocator@D@2@@0@@Z 00415690 f i ThreeDeeApp.obj
 0001:00014910       ??$is_any_of@$$BY01$$CBD@algorithm@boost@@YA?AU?$is_any_ofF@D@detail@01@AAY01$$CBD@Z 00415910 f i ThreeDeeApp.obj
 0001:00014960       ??$split@V?$vector@V?$basic_string@DU?$char_traits@D@std@@V?$allocator@D@2@@std@@V?$allocator@V?$basic_string@DU?$char_traits@D@std@@V?$allocator@D@2@@std@@@2@@std@@$$CBV?$basic_string@DU?$char_traits@D@std@@V?$allocator@D@2@@2@U?$is_any_ofF@D@detail@algorithm@boost@@@algorithm@boost@@YAAAV?$vector@V?$basic_string@DU?$char_traits@D@std@@V?$allocator@D@2@@std@@V?$allocator@V?$basic_string@DU?$char_traits@D@std@@V?$allocator@D@2@@std@@@2@@std@@AAV23@ABV?$basic_string@DU?$char_traits@D@std@@V?$allocator@D@2@@3@U?$is_any_ofF@D@detail@01@W4token_compress_mode_type@01@@Z 00415960 f i ThreeDeeApp.obj
 0001:00014a20       ??$?6U?$char_traits@D@std@@@std@@YAAAV?$basic_ostream@DU?$char_traits@D@std@@@0@AAV10@PBD@Z 00415a20 f i ThreeDeeApp.obj
 0001:00014cd0       ??$write_color@M@cinderext@zugster@@YAAAV?$basic_ostream@DU?$char_traits@D@std@@@std@@AAV23@ABV?$ColorAT@M@cinder@@@Z 00415cd0 f i ThreeDeeApp.obj
 0001:00014d50       ??$make_shared@VSolarizedThemeDark@gizmo@zugster@@@boost@@YA?AV?$shared_ptr@VSolarizedThemeDark@gizmo@zugster@@@0@XZ 00415d50 f i ThreeDeeApp.obj
 0001:00014e80       ??$getAttributeValue@N@XmlTree@cinder@@QBENABV?$basic_string@DU?$char_traits@D@std@@V?$allocator@D@2@@std@@ABN@Z 00415e80 f i ThreeDeeApp.obj
 0001:00014f00       ??$getAttributeValue@_N@XmlTree@cinder@@QBE_NABV?$basic_string@DU?$char_traits@D@std@@V?$allocator@D@2@@std@@AB_N@Z 00415f00 f i ThreeDeeApp.obj
 0001:00015000       ??$getAttributeValue@V?$basic_string@DU?$char_traits@D@std@@V?$allocator@D@2@@std@@@XmlTree@cinder@@QBE?AV?$basic_string@DU?$char_traits@D@std@@V?$allocator@D@2@@std@@ABV23@0@Z 00416000 f i ThreeDeeApp.obj
 0001:00015090       ??$parse_vec2@N@cinderext@zugster@@YA?AV?$Vec2@N@cinder@@ABV?$basic_string@DU?$char_traits@D@std@@V?$allocator@D@2@@std@@@Z 00416090 f i ThreeDeeApp.obj
 0001:000151e0       ??$xmlWriteTag@N@CommandBase@gizmo@zugster@@IBEAAV?$basic_ostream@DU?$char_traits@D@std@@@std@@AAV34@ABV?$basic_string@DU?$char_traits@D@std@@V?$allocator@D@2@@4@ABN@Z 004161e0 f i ThreeDeeApp.obj
 0001:000152b0       ??$xmlWriteTag@H@CommandBase@gizmo@zugster@@IBEAAV?$basic_ostream@DU?$char_traits@D@std@@@std@@AAV34@ABV?$basic_string@DU?$char_traits@D@std@@V?$allocator@D@2@@4@ABH@Z 004162b0 f i ThreeDeeApp.obj
 0001:00015380       ??$xmlWriteTag@M@CommandBase@gizmo@zugster@@IBEAAV?$basic_ostream@DU?$char_traits@D@std@@@std@@AAV34@ABV?$basic_string@DU?$char_traits@D@std@@V?$allocator@D@2@@4@ABM@Z 00416380 f i ThreeDeeApp.obj
 0001:00015450       ??$xmlGetChildValue@V?$basic_string@DU?$char_traits@D@std@@V?$allocator@D@2@@std@@@CommandBase@gizmo@zugster@@IAE?AV?$basic_string@DU?$char_traits@D@std@@V?$allocator@D@2@@std@@ABVXmlTree@cinder@@ABV34@1@Z 00416450 f i ThreeDeeApp.obj
 0001:00015520       ??$xmlWriteTag@PBD@CommandBase@gizmo@zugster@@IBEAAV?$basic_ostream@DU?$char_traits@D@std@@@std@@AAV34@ABV?$basic_string@DU?$char_traits@D@std@@V?$allocator@D@2@@4@ABQBD@Z 00416520 f i ThreeDeeApp.obj
 0001:000155f0       ??$getValue@N@XmlTree@cinder@@QBENABN@Z 004165f0 f i ThreeDeeApp.obj
 0001:00015670       ??$make_shared@VGizmo@gizmo@zugster@@@boost@@YA?AV?$shared_ptr@VGizmo@gizmo@zugster@@@0@XZ 00416670 f i ThreeDeeApp.obj
 0001:000157b0       ??$dynamic_pointer_cast@UIPositionable@cinderpane@zugster@@UIMouseListener@23@@boost@@YA?AV?$shared_ptr@UIPositionable@cinderpane@zugster@@@0@ABV?$shared_ptr@UIMouseListener@cinderpane@zugster@@@0@@Z 004167b0 f i ThreeDeeApp.obj
 0001:000157d0       ??$dynamic_pointer_cast@UIKeyListener@cinderpane@zugster@@UIPane@23@@boost@@YA?AV?$shared_ptr@UIKeyListener@cinderpane@zugster@@@0@ABV?$shared_ptr@UIPane@cinderpane@zugster@@@0@@Z 004167d0 f i ThreeDeeApp.obj
 0001:000157f0       ??$dynamic_pointer_cast@UIMouseListener@cinderpane@zugster@@UIPane@23@@boost@@YA?AV?$shared_ptr@UIMouseListener@cinderpane@zugster@@@0@ABV?$shared_ptr@UIPane@cinderpane@zugster@@@0@@Z 004167f0 f i ThreeDeeApp.obj
 0001:00015810       ??$?6U?$char_traits@D@std@@@std@@YAAAV?$basic_ostream@DU?$char_traits@D@std@@@0@AAV10@D@Z 00416810 f i ThreeDeeApp.obj
 0001:00015ab0       ??$make_shared@VContextSave@gizmo@zugster@@@boost@@YA?AV?$shared_ptr@VContextSave@gizmo@zugster@@@0@XZ 00416ab0 f i ThreeDeeApp.obj
 0001:00015be0       ??$make_shared@VContextRestore@gizmo@zugster@@@boost@@YA?AV?$shared_ptr@VContextRestore@gizmo@zugster@@@0@XZ 00416be0 f i ThreeDeeApp.obj
 0001:00015d10       ??$make_shared@VCirclePart@gizmo@zugster@@M_N_N@boost@@YA?AV?$shared_ptr@VCirclePart@gizmo@zugster@@@0@ABMAB_N1@Z 00416d10 f i ThreeDeeApp.obj
 0001:00015e60       ??$make_shared@VArcPart@gizmo@zugster@@MMHH@boost@@YA?AV?$shared_ptr@VArcPart@gizmo@zugster@@@0@ABM0ABH1@Z 00416e60 f i ThreeDeeApp.obj
 0001:00015fd0       ??$make_shared@VGradientCirclePart@gizmo@zugster@@MMV?$ColorAT@M@cinder@@V45@@boost@@YA?AV?$shared_ptr@VGradientCirclePart@gizmo@zugster@@@0@ABM0ABV?$ColorAT@M@cinder@@1@Z 00416fd0 f i ThreeDeeApp.obj
 0001:00016140       ??$make_shared@VFilledArcPart@gizmo@zugster@@MMHH@boost@@YA?AV?$shared_ptr@VFilledArcPart@gizmo@zugster@@@0@ABM0ABH1@Z 00417140 f i ThreeDeeApp.obj
 0001:000162b0       ??$make_shared@VSetLinewidth@gizmo@zugster@@N@boost@@YA?AV?$shared_ptr@VSetLinewidth@gizmo@zugster@@@0@ABN@Z 004172b0 f i ThreeDeeApp.obj
 0001:000163e0       ??$make_shared@VSegmentedFilledArcPart@gizmo@zugster@@MMHH@boost@@YA?AV?$shared_ptr@VSegmentedFilledArcPart@gizmo@zugster@@@0@ABM0ABH1@Z 004173e0 f i ThreeDeeApp.obj
 0001:00016540       ??$make_shared@VRadialLinesPart@gizmo@zugster@@MMHHH@boost@@YA?AV?$shared_ptr@VRadialLinesPart@gizmo@zugster@@@0@ABM0ABH11@Z 00417540 f i ThreeDeeApp.obj
 0001:000166b0       ??$make_shared@VRectanglePart@gizmo@zugster@@H@boost@@YA?AV?$shared_ptr@VRectanglePart@gizmo@zugster@@@0@ABH@Z 004176b0 f i ThreeDeeApp.obj
 0001:00016800       ??$make_shared@VCustomFn@gizmo@zugster@@$$A6AXAAVGizmoContext@23@@Z@boost@@YA?AV?$shared_ptr@VCustomFn@gizmo@zugster@@@0@A6AXAAVGizmoContext@gizmo@zugster@@@Z@Z 00417800 f i ThreeDeeApp.obj
 0001:00016930       ??$make_shared@VGizmo@gizmo@zugster@@HH@boost@@YA?AV?$shared_ptr@VGizmo@gizmo@zugster@@@0@ABH0@Z 00417930 f i ThreeDeeApp.obj
 0001:00016a90       ??$make_shared@VRectanglePart@gizmo@zugster@@HH_N_N@boost@@YA?AV?$shared_ptr@VRectanglePart@gizmo@zugster@@@0@ABH0AB_N1@Z 00417a90 f i ThreeDeeApp.obj
 0001:00016bf0       ??$make_shared@VGridPart@gizmo@zugster@@V?$Vec2@M@cinder@@HH_N_N@boost@@YA?AV?$shared_ptr@VGridPart@gizmo@zugster@@@0@ABV?$Vec2@M@cinder@@ABH1AB_N2@Z 00417bf0 f i ThreeDeeApp.obj
 0001:00016d50       ??$make_shared@VGradientCirclePart@gizmo@zugster@@NNV?$ColorAT@M@cinder@@V45@@boost@@YA?AV?$shared_ptr@VGradientCirclePart@gizmo@zugster@@@0@ABN0ABV?$ColorAT@M@cinder@@1@Z 00417d50 f i ThreeDeeApp.obj
 0001:00016ed0       ??$make_shared@VCirclePart@gizmo@zugster@@N@boost@@YA?AV?$shared_ptr@VCirclePart@gizmo@zugster@@@0@ABN@Z 00417ed0 f i ThreeDeeApp.obj
 0001:00017010       ??$make_shared@VRadialLinesPart@gizmo@zugster@@NNH@boost@@YA?AV?$shared_ptr@VRadialLinesPart@gizmo@zugster@@@0@ABN0ABH@Z 00418010 f i ThreeDeeApp.obj
 0001:00017190       ??$make_shared@VSegmentedFilledArcPart@gizmo@zugster@@NHHH@boost@@YA?AV?$shared_ptr@VSegmentedFilledArcPart@gizmo@zugster@@@0@ABNABH11@Z 00418190 f i ThreeDeeApp.obj
 0001:000172f0       ??$make_shared@VRegularPolygonPart@gizmo@zugster@@HH_N_N@boost@@YA?AV?$shared_ptr@VRegularPolygonPart@gizmo@zugster@@@0@ABH0AB_N1@Z 004182f0 f i ThreeDeeApp.obj
 0001:00017450       ??$make_shared@VPerimeterPart@gizmo@zugster@@NV?$shared_ptr@UIPart@gizmo@zugster@@@boost@@_N@boost@@YA?AV?$shared_ptr@VPerimeterPart@gizmo@zugster@@@0@ABNABV?$shared_ptr@UIPart@gizmo@zugster@@@0@AB_N@Z 00418450 f i ThreeDeeApp.obj
 0001:000175d0       ??$make_shared@VRadialLinesPart@gizmo@zugster@@HHH@boost@@YA?AV?$shared_ptr@VRadialLinesPart@gizmo@zugster@@@0@ABH00@Z 004185d0 f i ThreeDeeApp.obj
 0001:00017740       ??$make_shared@VFilledArcPart@gizmo@zugster@@NHHH@boost@@YA?AV?$shared_ptr@VFilledArcPart@gizmo@zugster@@@0@ABNABH11@Z 00418740 f i ThreeDeeApp.obj
 0001:000178b0       ??$make_shared@VGizmoPane@gizmo@zugster@@V?$Vec2@M@cinder@@V45@V?$shared_ptr@VGizmo@gizmo@zugster@@@boost@@@boost@@YA?AV?$shared_ptr@VGizmoPane@gizmo@zugster@@@0@ABV?$Vec2@M@cinder@@0ABV?$shared_ptr@VGizmo@gizmo@zugster@@@0@@Z 004188b0 f i ThreeDeeApp.obj
 0001:00017a10       ??$use_facet@V?$num_put@DV?$ostreambuf_iterator@DU?$char_traits@D@std@@@std@@@std@@@std@@YAABV?$num_put@DV?$ostreambuf_iterator@DU?$char_traits@D@std@@@std@@@0@ABVlocale@0@@Z 00418a10 f i ThreeDeeApp.obj
 0001:00017b50       ??$make_pair@AAIAAV?$function@$$A6A_NVKeyEvent@app@cinder@@@Z@tr1@std@@@std@@YA?AU?$pair@IV?$function@$$A6A_NVKeyEvent@app@cinder@@@Z@tr1@std@@@0@AAIAAV?$function@$$A6A_NVKeyEvent@app@cinder@@@Z@tr1@0@@Z 00418b50 f i ThreeDeeApp.obj
 0001:00017b50       ??$make_pair@AAIAAV?$function@$$A6A_NVMouseEvent@app@cinder@@@Z@tr1@std@@@std@@YA?AU?$pair@IV?$function@$$A6A_NVMouseEvent@app@cinder@@@Z@tr1@std@@@0@AAIAAV?$function@$$A6A_NVMouseEvent@app@cinder@@@Z@tr1@0@@Z 00418b50 f i ThreeDeeApp.obj
 0001:00017b50       ??$make_pair@AAIAAV?$function@$$A6A_NVResizeEvent@app@cinder@@@Z@tr1@std@@@std@@YA?AU?$pair@IV?$function@$$A6A_NVResizeEvent@app@cinder@@@Z@tr1@std@@@0@AAIAAV?$function@$$A6A_NVResizeEvent@app@cinder@@@Z@tr1@0@@Z 00418b50 f i ThreeDeeApp.obj
 0001:00017b50       ??$make_pair@AAIAAV?$function@$$A6A_NVTouchEvent@app@cinder@@@Z@tr1@std@@@std@@YA?AU?$pair@IV?$function@$$A6A_NVTouchEvent@app@cinder@@@Z@tr1@std@@@0@AAIAAV?$function@$$A6A_NVTouchEvent@app@cinder@@@Z@tr1@0@@Z 00418b50 f i ThreeDeeApp.obj
 0001:00017ba0       ??$use_facet@V?$codecvt@DDH@std@@@std@@YAABV?$codecvt@DDH@0@ABVlocale@0@@Z 00418ba0 f i ThreeDeeApp.obj
 0001:00017ce0       ??$_Reset@UObj@Fbo@gl@cinder@@@?$_Ptr_base@UObj@Fbo@gl@cinder@@@tr1@std@@QAEXABV012@@Z 00418ce0 f i ThreeDeeApp.obj
 0001:00017ce0       ??$_Reset@UObj@GlslProg@gl@cinder@@@?$_Ptr_base@UObj@GlslProg@gl@cinder@@@tr1@std@@QAEXABV012@@Z 00418ce0 f i ThreeDeeApp.obj
 0001:00017d40       ??$use_facet@V?$numpunct@D@std@@@std@@YAABV?$numpunct@D@0@ABVlocale@0@@Z 00418d40 f i ThreeDeeApp.obj
 0001:00017e80       ??0exception@boost@@QAE@ABV01@@Z 00418e80 f i ThreeDeeApp.obj
 0001:00017ec0       ??0clone_base@exception_detail@boost@@QAE@ABV012@@Z 00418ec0 f i ThreeDeeApp.obj
 0001:00017ed0       ??0bad_alloc@std@@QAE@ABV01@@Z 00418ed0 f i ThreeDeeApp.obj
 0001:00017ef0       ??6?$basic_ostream@DU?$char_traits@D@std@@@std@@QAEAAV01@H@Z 00418ef0 f i ThreeDeeApp.obj
 0001:000180d0       ?sputn@?$basic_streambuf@DU?$char_traits@D@std@@@std@@QAE_JPBD_J@Z 004190d0 f i ThreeDeeApp.obj
 0001:000180f0       ?construct@?$allocator@U?$pair@IV?$function@$$A6A_NVKeyEvent@app@cinder@@@Z@tr1@std@@@std@@@std@@QAEXPAU?$pair@IV?$function@$$A6A_NVKeyEvent@app@cinder@@@Z@tr1@std@@@2@$$QAU32@@Z 004190f0 f i ThreeDeeApp.obj
 0001:000180f0       ?construct@?$allocator@U?$pair@IV?$function@$$A6A_NVMouseEvent@app@cinder@@@Z@tr1@std@@@std@@@std@@QAEXPAU?$pair@IV?$function@$$A6A_NVMouseEvent@app@cinder@@@Z@tr1@std@@@2@$$QAU32@@Z 004190f0 f i ThreeDeeApp.obj
 0001:000180f0       ?construct@?$allocator@U?$pair@IV?$function@$$A6A_NVResizeEvent@app@cinder@@@Z@tr1@std@@@std@@@std@@QAEXPAU?$pair@IV?$function@$$A6A_NVResizeEvent@app@cinder@@@Z@tr1@std@@@2@$$QAU32@@Z 004190f0 f i ThreeDeeApp.obj
 0001:000180f0       ?construct@?$allocator@U?$pair@IV?$function@$$A6A_NVTouchEvent@app@cinder@@@Z@tr1@std@@@std@@@std@@QAEXPAU?$pair@IV?$function@$$A6A_NVTouchEvent@app@cinder@@@Z@tr1@std@@@2@$$QAU32@@Z 004190f0 f i ThreeDeeApp.obj
 0001:00018190       ?_Getcat@?$num_put@DV?$ostreambuf_iterator@DU?$char_traits@D@std@@@std@@@std@@SAIPAPBVfacet@locale@2@PBV42@@Z 00419190 f i ThreeDeeApp.obj
 0001:00018250       ?_Getcat@?$codecvt@DDH@std@@SAIPAPBVfacet@locale@2@PBV42@@Z 00419250 f i ThreeDeeApp.obj
 0001:00018300       ?_Getcat@?$numpunct@D@std@@SAIPAPBVfacet@locale@2@PBV42@@Z 00419300 f i ThreeDeeApp.obj
 0001:000183d0       ??1?$sp_ms_deleter@VSolarizedThemeDark@gizmo@zugster@@@detail@boost@@QAE@XZ 004193d0 f i ThreeDeeApp.obj
 0001:000183f0       ?_Init@?$numpunct@D@std@@IAEXABV_Locinfo@2@_N@Z 004193f0 f i ThreeDeeApp.obj
 0001:00018530       ??$token_finder@U?$is_any_ofF@D@detail@algorithm@boost@@@algorithm@boost@@YA?AU?$token_finderF@U?$is_any_ofF@D@detail@algorithm@boost@@@detail@01@U?$is_any_ofF@D@301@W4token_compress_mode_type@01@@Z 00419530 f i ThreeDeeApp.obj
 0001:00018670       ??$iter_split@V?$vector@V?$basic_string@DU?$char_traits@D@std@@V?$allocator@D@2@@std@@V?$allocator@V?$basic_string@DU?$char_traits@D@std@@V?$allocator@D@2@@std@@@2@@std@@$$CBV?$basic_string@DU?$char_traits@D@std@@V?$allocator@D@2@@2@U?$token_finderF@U?$is_any_ofF@D@detail@algorithm@boost@@@detail@algorithm@boost@@@algorithm@boost@@YAAAV?$vector@V?$basic_string@DU?$char_traits@D@std@@V?$allocator@D@2@@std@@V?$allocator@V?$basic_string@DU?$char_traits@D@std@@V?$allocator@D@2@@std@@@2@@std@@AAV23@ABV?$basic_string@DU?$char_traits@D@std@@V?$allocator@D@2@@3@U?$token_finderF@U?$is_any_ofF@D@detail@algorithm@boost@@@detail@01@@Z 00419670 f i ThreeDeeApp.obj
 0001:000188a0       ??$lexical_cast@MV?$basic_string@DU?$char_traits@D@std@@V?$allocator@D@2@@std@@$0A@D@detail@boost@@YAMABV?$basic_string@DU?$char_traits@D@std@@V?$allocator@D@2@@std@@PADI@Z 004198a0 f i ThreeDeeApp.obj
 0001:00018980       ??$getValue@V?$basic_string@DU?$char_traits@D@std@@V?$allocator@D@2@@std@@@Attr@XmlTree@cinder@@QBE?AV?$basic_string@DU?$char_traits@D@std@@V?$allocator@D@2@@std@@XZ 00419980 f i ThreeDeeApp.obj
 0001:000189a0       ??$getValue@M@XmlTree@cinder@@QBEMABM@Z 004199a0 f i ThreeDeeApp.obj
 0001:00018a20       ??$getValue@H@XmlTree@cinder@@QBEHABH@Z 00419a20 f i ThreeDeeApp.obj
 0001:00018aa0       ??$getValue@V?$basic_string@DU?$char_traits@D@std@@V?$allocator@D@2@@std@@@XmlTree@cinder@@QBE?AV?$basic_string@DU?$char_traits@D@std@@V?$allocator@D@2@@std@@ABV23@@Z 00419aa0 f i ThreeDeeApp.obj
 0001:00018b20       ??$?0UIMouseListener@cinderpane@zugster@@@?$shared_ptr@UIPositionable@cinderpane@zugster@@@boost@@QAE@ABV?$shared_ptr@UIMouseListener@cinderpane@zugster@@@1@Udynamic_cast_tag@detail@1@@Z 00419b20 f i ThreeDeeApp.obj
 0001:00018be0       ??$?0UIPane@cinderpane@zugster@@@?$shared_ptr@UIKeyListener@cinderpane@zugster@@@boost@@QAE@ABV?$shared_ptr@UIPane@cinderpane@zugster@@@1@Udynamic_cast_tag@detail@1@@Z 00419be0 f i ThreeDeeApp.obj
 0001:00018ca0       ??$?0UIPane@cinderpane@zugster@@@?$shared_ptr@UIMouseListener@cinderpane@zugster@@@boost@@QAE@ABV?$shared_ptr@UIPane@cinderpane@zugster@@@1@Udynamic_cast_tag@detail@1@@Z 00419ca0 f i ThreeDeeApp.obj
 0001:00018d60       ??$_Destroy_range@V?$allocator@V?$shared_ptr@UIPane@cinderpane@zugster@@@boost@@@std@@@std@@YAXPAV?$shared_ptr@UIPane@cinderpane@zugster@@@boost@@0AAV?$allocator@V?$shared_ptr@UIPane@cinderpane@zugster@@@boost@@@0@U_Nonscalar_ptr_iterator_tag@0@@Z 00419d60 f i ThreeDeeApp.obj
 0001:00018d60       ??$_Destroy_range@V?$allocator@V?$shared_ptr@UIPart@gizmo@zugster@@@boost@@@std@@@std@@YAXPAV?$shared_ptr@UIPart@gizmo@zugster@@@boost@@0AAV?$allocator@V?$shared_ptr@UIPart@gizmo@zugster@@@boost@@@0@U_Nonscalar_ptr_iterator_tag@0@@Z 00419d60 f i ThreeDeeApp.obj
 0001:00018db0       ??$_Destroy_range@V?$allocator@V?$basic_string@DU?$char_traits@D@std@@V?$allocator@D@2@@std@@@std@@@std@@YAXPAV?$basic_string@DU?$char_traits@D@std@@V?$allocator@D@2@@0@0AAV?$allocator@V?$basic_string@DU?$char_traits@D@std@@V?$allocator@D@2@@std@@@0@U_Nonscalar_ptr_iterator_tag@0@@Z 00419db0 f i ThreeDeeApp.obj
 0001:00018df0       ??$_Maklocstr@D@std@@YAPADPBDPADABU_Cvtvec@@@Z 00419df0 f i ThreeDeeApp.obj
 0001:00018e30       ??1?$lexical_stream_limited_src@DV?$basic_streambuf@DU?$char_traits@D@std@@@std@@U?$char_traits@D@2@@detail@boost@@UAE@XZ 00419e30 f i ThreeDeeApp.obj
 0001:00018e40       ??0?$split_iterator@V?$_String_const_iterator@DU?$char_traits@D@std@@V?$allocator@D@2@@std@@@algorithm@boost@@QAE@ABV012@@Z 00419e40 f i ThreeDeeApp.obj
 0001:00018eb0       ??1?$transform_iterator@U?$copy_iterator_rangeF@V?$basic_string@DU?$char_traits@D@std@@V?$allocator@D@2@@std@@V?$_String_const_iterator@DU?$char_traits@D@std@@V?$allocator@D@2@@2@@detail@algorithm@boost@@V?$split_iterator@V?$_String_const_iterator@DU?$char_traits@D@std@@V?$allocator@D@2@@std@@@34@Uuse_default@4@U64@@boost@@QAE@XZ 00419eb0 f i ThreeDeeApp.obj
 0001:00018eb0       ??1?$find_iterator_base@V?$_String_const_iterator@DU?$char_traits@D@std@@V?$allocator@D@2@@std@@@detail@algorithm@boost@@IAE@XZ 00419eb0 f i ThreeDeeApp.obj
 0001:00018eb0       ??1?$split_iterator@V?$_String_const_iterator@DU?$char_traits@D@std@@V?$allocator@D@2@@std@@@algorithm@boost@@QAE@XZ 00419eb0 f i ThreeDeeApp.obj
 0001:00018ee0       ?push_back@?$vector@V?$basic_string@DU?$char_traits@D@std@@V?$allocator@D@2@@std@@V?$allocator@V?$basic_string@DU?$char_traits@D@std@@V?$allocator@D@2@@std@@@2@@std@@QAEX$$QAV?$basic_string@DU?$char_traits@D@std@@V?$allocator@D@2@@2@@Z 00419ee0 f i ThreeDeeApp.obj
 0001:00018fb0       ?erase@?$vector@V?$basic_string@DU?$char_traits@D@std@@V?$allocator@D@2@@std@@V?$allocator@V?$basic_string@DU?$char_traits@D@std@@V?$allocator@D@2@@std@@@2@@std@@QAE?AV?$_Vector_iterator@V?$_Vector_val@V?$basic_string@DU?$char_traits@D@std@@V?$allocator@D@2@@std@@V?$allocator@V?$basic_string@DU?$char_traits@D@std@@V?$allocator@D@2@@std@@@2@@std@@@2@V?$_Vector_const_iterator@V?$_Vector_val@V?$basic_string@DU?$char_traits@D@std@@V?$allocator@D@2@@std@@V?$allocator@V?$basic_string@DU?$char_traits@D@std@@V?$allocator@D@2@@std@@@2@@std@@@2@0@Z 00419fb0 f i ThreeDeeApp.obj
 0001:00019000       ?_Reserve@?$vector@V?$basic_string@DU?$char_traits@D@std@@V?$allocator@D@2@@std@@V?$allocator@V?$basic_string@DU?$char_traits@D@std@@V?$allocator@D@2@@std@@@2@@std@@IAEXI@Z 0041a000 f i ThreeDeeApp.obj
 0001:00019080       ?reserve@?$vector@V?$basic_string@DU?$char_traits@D@std@@V?$allocator@D@2@@std@@V?$allocator@V?$basic_string@DU?$char_traits@D@std@@V?$allocator@D@2@@std@@@2@@std@@QAEXI@Z 0041a080 f i ThreeDeeApp.obj
 0001:000191a0       ??$as_literal@V?$basic_string@DU?$char_traits@D@std@@V?$allocator@D@2@@std@@@boost@@YA?AV?$iterator_range@V?$_String_const_iterator@DU?$char_traits@D@std@@V?$allocator@D@2@@std@@@0@ABV?$basic_string@DU?$char_traits@D@std@@V?$allocator@D@2@@std@@@Z 0041a1a0 f i ThreeDeeApp.obj
 0001:00019210       ??$?0U?$token_finderF@U?$is_any_ofF@D@detail@algorithm@boost@@@detail@algorithm@boost@@@?$split_iterator@V?$_String_const_iterator@DU?$char_traits@D@std@@V?$allocator@D@2@@std@@@algorithm@boost@@QAE@V?$_String_const_iterator@DU?$char_traits@D@std@@V?$allocator@D@2@@std@@0U?$token_finderF@U?$is_any_ofF@D@detail@algorithm@boost@@@detail@12@@Z 0041a210 f i ThreeDeeApp.obj
 0001:000192e0       ??$make_transform_iterator@U?$copy_iterator_rangeF@V?$basic_string@DU?$char_traits@D@std@@V?$allocator@D@2@@std@@V?$_String_const_iterator@DU?$char_traits@D@std@@V?$allocator@D@2@@2@@detail@algorithm@boost@@V?$split_iterator@V?$_String_const_iterator@DU?$char_traits@D@std@@V?$allocator@D@2@@std@@@34@@boost@@YA?AV?$transform_iterator@U?$copy_iterator_rangeF@V?$basic_string@DU?$char_traits@D@std@@V?$allocator@D@2@@std@@V?$_String_const_iterator@DU?$char_traits@D@std@@V?$allocator@D@2@@2@@detail@algorithm@boost@@V?$split_iterator@V?$_String_const_iterator@DU?$char_traits@D@std@@V?$allocator@D@2@@std@@@34@Uuse_default@4@U64@@0@V?$split_iterator@V?$_String_const_iterator@DU?$char_traits@D@std@@V?$allocator@D@2@@std@@@algorithm@0@U?$copy_iterator_rangeF@V?$basic_string@DU?$char_traits@D@std@@V?$allocator@D@2@@std@@V?$_String_const_iterator@DU?$char_traits@D@std@@V?$allocator@D@2@@2@@detail@30@@Z 0041a2e0 f i ThreeDeeApp.obj
 0001:00019360       ??$?0V?$transform_iterator@U?$copy_iterator_rangeF@V?$basic_string@DU?$char_traits@D@std@@V?$allocator@D@2@@std@@V?$_String_const_iterator@DU?$char_traits@D@std@@V?$allocator@D@2@@2@@detail@algorithm@boost@@V?$split_iterator@V?$_String_const_iterator@DU?$char_traits@D@std@@V?$allocator@D@2@@std@@@34@Uuse_default@4@U64@@boost@@@?$vector@V?$basic_string@DU?$char_traits@D@std@@V?$allocator@D@2@@std@@V?$allocator@V?$basic_string@DU?$char_traits@D@std@@V?$allocator@D@2@@std@@@2@@std@@QAE@V?$transform_iterator@U?$copy_iterator_rangeF@V?$basic_string@DU?$char_traits@D@std@@V?$allocator@D@2@@std@@V?$_String_const_iterator@DU?$char_traits@D@std@@V?$allocator@D@2@@2@@detail@algorithm@boost@@V?$split_iterator@V?$_String_const_iterator@DU?$char_traits@D@std@@V?$allocator@D@2@@std@@@34@Uuse_default@4@U64@@boost@@0@Z 0041a360 f i ThreeDeeApp.obj
 0001:00019440       ??$?5M@?$lexical_stream_limited_src@DV?$basic_streambuf@DU?$char_traits@D@std@@@std@@U?$char_traits@D@2@@detail@boost@@QAE_NAAM@Z 0041a440 f i ThreeDeeApp.obj
 0001:00019530       ??$throw_exception@Vbad_lexical_cast@boost@@@boost@@YAXABVbad_lexical_cast@0@@Z 0041a530 f i ThreeDeeApp.obj
 0001:00019590       ??$?0PAVSolarizedThemeDark@gizmo@zugster@@V?$sp_ms_deleter@VSolarizedThemeDark@gizmo@zugster@@@detail@boost@@@shared_count@detail@boost@@QAE@PAVSolarizedThemeDark@gizmo@zugster@@V?$sp_ms_deleter@VSolarizedThemeDark@gizmo@zugster@@@12@@Z 0041a590 f i ThreeDeeApp.obj
 0001:00019680       ??$lexical_cast@V?$basic_string@DU?$char_traits@D@std@@V?$allocator@D@2@@std@@V12@@boost@@YA?AV?$basic_string@DU?$char_traits@D@std@@V?$allocator@D@2@@std@@ABV12@@Z 0041a680 f i ThreeDeeApp.obj
 0001:000196a0       ??$lexical_cast@NV?$basic_string@DU?$char_traits@D@std@@V?$allocator@D@2@@std@@$0A@D@detail@boost@@YANABV?$basic_string@DU?$char_traits@D@std@@V?$allocator@D@2@@std@@PADI@Z 0041a6a0 f i ThreeDeeApp.obj
 0001:00019790       ??$?0PAVGizmo@gizmo@zugster@@V?$sp_ms_deleter@VGizmo@gizmo@zugster@@@detail@boost@@@shared_count@detail@boost@@QAE@PAVGizmo@gizmo@zugster@@V?$sp_ms_deleter@VGizmo@gizmo@zugster@@@12@@Z 0041a790 f i ThreeDeeApp.obj
 0001:00019870       ??$?0PAVContextSave@gizmo@zugster@@V?$sp_ms_deleter@VContextSave@gizmo@zugster@@@detail@boost@@@shared_count@detail@boost@@QAE@PAVContextSave@gizmo@zugster@@V?$sp_ms_deleter@VContextSave@gizmo@zugster@@@12@@Z 0041a870 f i ThreeDeeApp.obj
 0001:00019950       ??$?0PAVContextRestore@gizmo@zugster@@V?$sp_ms_deleter@VContextRestore@gizmo@zugster@@@detail@boost@@@shared_count@detail@boost@@QAE@PAVContextRestore@gizmo@zugster@@V?$sp_ms_deleter@VContextRestore@gizmo@zugster@@@12@@Z 0041a950 f i ThreeDeeApp.obj
 0001:00019a30       ??$?0PAVCirclePart@gizmo@zugster@@V?$sp_ms_deleter@VCirclePart@gizmo@zugster@@@detail@boost@@@shared_count@detail@boost@@QAE@PAVCirclePart@gizmo@zugster@@V?$sp_ms_deleter@VCirclePart@gizmo@zugster@@@12@@Z 0041aa30 f i ThreeDeeApp.obj
 0001:00019b10       ??$?0PAVArcPart@gizmo@zugster@@V?$sp_ms_deleter@VArcPart@gizmo@zugster@@@detail@boost@@@shared_count@detail@boost@@QAE@PAVArcPart@gizmo@zugster@@V?$sp_ms_deleter@VArcPart@gizmo@zugster@@@12@@Z 0041ab10 f i ThreeDeeApp.obj
 0001:00019c00       ??$?0PAVGradientCirclePart@gizmo@zugster@@V?$sp_ms_deleter@VGradientCirclePart@gizmo@zugster@@@detail@boost@@@shared_count@detail@boost@@QAE@PAVGradientCirclePart@gizmo@zugster@@V?$sp_ms_deleter@VGradientCirclePart@gizmo@zugster@@@12@@Z 0041ac00 f i ThreeDeeApp.obj
 0001:00019cf0       ??$?0PAVFilledArcPart@gizmo@zugster@@V?$sp_ms_deleter@VFilledArcPart@gizmo@zugster@@@detail@boost@@@shared_count@detail@boost@@QAE@PAVFilledArcPart@gizmo@zugster@@V?$sp_ms_deleter@VFilledArcPart@gizmo@zugster@@@12@@Z 0041acf0 f i ThreeDeeApp.obj
 0001:00019de0       ??$?0PAVSetLinewidth@gizmo@zugster@@V?$sp_ms_deleter@VSetLinewidth@gizmo@zugster@@@detail@boost@@@shared_count@detail@boost@@QAE@PAVSetLinewidth@gizmo@zugster@@V?$sp_ms_deleter@VSetLinewidth@gizmo@zugster@@@12@@Z 0041ade0 f i ThreeDeeApp.obj
 0001:00019ec0       ??$?0PAVSegmentedFilledArcPart@gizmo@zugster@@V?$sp_ms_deleter@VSegmentedFilledArcPart@gizmo@zugster@@@detail@boost@@@shared_count@detail@boost@@QAE@PAVSegmentedFilledArcPart@gizmo@zugster@@V?$sp_ms_deleter@VSegmentedFilledArcPart@gizmo@zugster@@@12@@Z 0041aec0 f i ThreeDeeApp.obj
 0001:00019fb0       ??$?0PAVRadialLinesPart@gizmo@zugster@@V?$sp_ms_deleter@VRadialLinesPart@gizmo@zugster@@@detail@boost@@@shared_count@detail@boost@@QAE@PAVRadialLinesPart@gizmo@zugster@@V?$sp_ms_deleter@VRadialLinesPart@gizmo@zugster@@@12@@Z 0041afb0 f i ThreeDeeApp.obj
 0001:0001a0a0       ??$_Insert@V?$_Vector_iterator@V?$_Vector_val@V?$shared_ptr@UIPart@gizmo@zugster@@@boost@@V?$allocator@V?$shared_ptr@UIPart@gizmo@zugster@@@boost@@@std@@@std@@@std@@@?$vector@V?$shared_ptr@UIPart@gizmo@zugster@@@boost@@V?$allocator@V?$shared_ptr@UIPart@gizmo@zugster@@@boost@@@std@@@std@@QAEXV?$_Vector_const_iterator@V?$_Vector_val@V?$shared_ptr@UIPart@gizmo@zugster@@@boost@@V?$allocator@V?$shared_ptr@UIPart@gizmo@zugster@@@boost@@@std@@@std@@@1@V?$_Vector_iterator@V?$_Vector_val@V?$shared_ptr@UIPart@gizmo@zugster@@@boost@@V?$allocator@V?$shared_ptr@UIPart@gizmo@zugster@@@boost@@@std@@@std@@@1@1Uforward_iterator_tag@1@@Z 0041b0a0 f i ThreeDeeApp.obj
 0001:0001a260       ??$?0PAVRectanglePart@gizmo@zugster@@V?$sp_ms_deleter@VRectanglePart@gizmo@zugster@@@detail@boost@@@shared_count@detail@boost@@QAE@PAVRectanglePart@gizmo@zugster@@V?$sp_ms_deleter@VRectanglePart@gizmo@zugster@@@12@@Z 0041b260 f i ThreeDeeApp.obj
 0001:0001a340       ??$?0PAVCustomFn@gizmo@zugster@@V?$sp_ms_deleter@VCustomFn@gizmo@zugster@@@detail@boost@@@shared_count@detail@boost@@QAE@PAVCustomFn@gizmo@zugster@@V?$sp_ms_deleter@VCustomFn@gizmo@zugster@@@12@@Z 0041b340 f i ThreeDeeApp.obj
 0001:0001a420       ??$?0PAVGridPart@gizmo@zugster@@V?$sp_ms_deleter@VGridPart@gizmo@zugster@@@detail@boost@@@shared_count@detail@boost@@QAE@PAVGridPart@gizmo@zugster@@V?$sp_ms_deleter@VGridPart@gizmo@zugster@@@12@@Z 0041b420 f i ThreeDeeApp.obj
 0001:0001a500       ??$?0PAVRegularPolygonPart@gizmo@zugster@@V?$sp_ms_deleter@VRegularPolygonPart@gizmo@zugster@@@detail@boost@@@shared_count@detail@boost@@QAE@PAVRegularPolygonPart@gizmo@zugster@@V?$sp_ms_deleter@VRegularPolygonPart@gizmo@zugster@@@12@@Z 0041b500 f i ThreeDeeApp.obj
 0001:0001a5e0       ??$?0PAVPerimeterPart@gizmo@zugster@@V?$sp_ms_deleter@VPerimeterPart@gizmo@zugster@@@detail@boost@@@shared_count@detail@boost@@QAE@PAVPerimeterPart@gizmo@zugster@@V?$sp_ms_deleter@VPerimeterPart@gizmo@zugster@@@12@@Z 0041b5e0 f i ThreeDeeApp.obj
 0001:0001a6c0       ??$?0PAVGizmoPane@gizmo@zugster@@V?$sp_ms_deleter@VGizmoPane@gizmo@zugster@@@detail@boost@@@shared_count@detail@boost@@QAE@PAVGizmoPane@gizmo@zugster@@V?$sp_ms_deleter@VGizmoPane@gizmo@zugster@@@12@@Z 0041b6c0 f i ThreeDeeApp.obj
 0001:0001a7a0       ??$_Uninit_copy@V?$_Vector_const_iterator@V?$_Vector_val@V?$basic_string@DU?$char_traits@D@std@@V?$allocator@D@2@@std@@V?$allocator@V?$basic_string@DU?$char_traits@D@std@@V?$allocator@D@2@@std@@@2@@std@@@std@@PAV?$basic_string@DU?$char_traits@D@std@@V?$allocator@D@2@@2@V?$allocator@V?$basic_string@DU?$char_traits@D@std@@V?$allocator@D@2@@std@@@2@@std@@YAPAV?$basic_string@DU?$char_traits@D@std@@V?$allocator@D@2@@0@V?$_Vector_const_iterator@V?$_Vector_val@V?$basic_string@DU?$char_traits@D@std@@V?$allocator@D@2@@std@@V?$allocator@V?$basic_string@DU?$char_traits@D@std@@V?$allocator@D@2@@std@@@2@@std@@@0@0PAV10@AAV?$allocator@V?$basic_string@DU?$char_traits@D@std@@V?$allocator@D@2@@std@@@0@U_Nonscalar_ptr_iterator_tag@0@@Z 0041b7a0 f i ThreeDeeApp.obj
 0001:0001a860       ??$_Uninit_copy@V?$_Vector_const_iterator@V?$_Vector_val@V?$_List_const_iterator@V?$_List_val@VXmlTree@cinder@@V?$allocator@VXmlTree@cinder@@@std@@@std@@@std@@V?$allocator@V?$_List_const_iterator@V?$_List_val@VXmlTree@cinder@@V?$allocator@VXmlTree@cinder@@@std@@@std@@@std@@@2@@std@@@std@@PAV?$_List_const_iterator@V?$_List_val@VXmlTree@cinder@@V?$allocator@VXmlTree@cinder@@@std@@@std@@@2@V?$allocator@V?$_List_const_iterator@V?$_List_val@VXmlTree@cinder@@V?$allocator@VXmlTree@cinder@@@std@@@std@@@std@@@2@@std@@YAPAV?$_List_const_iterator@V?$_List_val@VXmlTree@cinder@@V?$allocator@VXmlTree@cinder@@@std@@@std@@@0@V?$_Vector_const_iterator@V?$_Vector_val@V?$_List_const_iterator@V?$_List_val@VXmlTree@cinder@@V?$allocator@VXmlTree@cinder@@@std@@@std@@@std@@V?$allocator@V?$_List_const_iterator@V?$_List_val@VXmlTree@cinder@@V?$allocator@VXmlTree@cinder@@@std@@@std@@@std@@@2@@std@@@0@0PAV10@AAV?$allocator@V?$_List_const_iterator@V?$_List_val@VXmlTree@cinder@@V?$allocator@VXmlTree@cinder@@@std@@@std@@@std@@@0@U_Nonscalar_ptr_iterator_tag@0@@Z 0041b860 f i ThreeDeeApp.obj
 0001:0001a860       ??$_Uninit_copy@V?$_Vector_const_iterator@V?$_Vector_val@PBV?$list@VXmlTree@cinder@@V?$allocator@VXmlTree@cinder@@@std@@@std@@V?$allocator@PBV?$list@VXmlTree@cinder@@V?$allocator@VXmlTree@cinder@@@std@@@std@@@2@@std@@@std@@PAPBV?$list@VXmlTree@cinder@@V?$allocator@VXmlTree@cinder@@@std@@@2@V?$allocator@PBV?$list@VXmlTree@cinder@@V?$allocator@VXmlTree@cinder@@@std@@@std@@@2@@std@@YAPAPBV?$list@VXmlTree@cinder@@V?$allocator@VXmlTree@cinder@@@std@@@0@V?$_Vector_const_iterator@V?$_Vector_val@PBV?$list@VXmlTree@cinder@@V?$allocator@VXmlTree@cinder@@@std@@@std@@V?$allocator@PBV?$list@VXmlTree@cinder@@V?$allocator@VXmlTree@cinder@@@std@@@std@@@2@@std@@@0@0PAPBV10@AAV?$allocator@PBV?$list@VXmlTree@cinder@@V?$allocator@VXmlTree@cinder@@@std@@@std@@@0@U_Nonscalar_ptr_iterator_tag@0@@Z 0041b860 f i ThreeDeeApp.obj
 0001:0001a890       ??$_Uninit_copy@V?$_Vector_const_iterator@V?$_Vector_val@VTouch@TouchEvent@app@cinder@@V?$allocator@VTouch@TouchEvent@app@cinder@@@std@@@std@@@std@@PAVTouch@TouchEvent@app@cinder@@V?$allocator@VTouch@TouchEvent@app@cinder@@@2@@std@@YAPAVTouch@TouchEvent@app@cinder@@V?$_Vector_const_iterator@V?$_Vector_val@VTouch@TouchEvent@app@cinder@@V?$allocator@VTouch@TouchEvent@app@cinder@@@std@@@std@@@0@0PAV1234@AAV?$allocator@VTouch@TouchEvent@app@cinder@@@0@U_Nonscalar_ptr_iterator_tag@0@@Z 0041b890 f i ThreeDeeApp.obj
 0001:0001a8e0       ??$_Uninit_move@PAV?$shared_ptr@UIPart@gizmo@zugster@@@boost@@PAV12@V?$allocator@V?$shared_ptr@UIPart@gizmo@zugster@@@boost@@@std@@V12@@std@@YAPAV?$shared_ptr@UIPart@gizmo@zugster@@@boost@@PAV12@00AAV?$allocator@V?$shared_ptr@UIPart@gizmo@zugster@@@boost@@@0@0U_Nonscalar_ptr_iterator_tag@0@@Z 0041b8e0 f i ThreeDeeApp.obj
 0001:0001a8e0       ??$_Uninit_move@PAV?$shared_ptr@UIPane@cinderpane@zugster@@@boost@@PAV12@V?$allocator@V?$shared_ptr@UIPane@cinderpane@zugster@@@boost@@@std@@V12@@std@@YAPAV?$shared_ptr@UIPane@cinderpane@zugster@@@boost@@PAV12@00AAV?$allocator@V?$shared_ptr@UIPane@cinderpane@zugster@@@boost@@@0@0U_Nonscalar_ptr_iterator_tag@0@@Z 0041b8e0 f i ThreeDeeApp.obj
 0001:0001a920       ??$_Dest_val@V?$allocator@V?$basic_string@DU?$char_traits@D@std@@V?$allocator@D@2@@std@@@std@@V?$basic_string@DU?$char_traits@D@std@@V?$allocator@D@2@@2@@std@@YAXAAV?$allocator@V?$basic_string@DU?$char_traits@D@std@@V?$allocator@D@2@@std@@@0@PAV?$basic_string@DU?$char_traits@D@std@@V?$allocator@D@2@@0@@Z 0041b920 f i ThreeDeeApp.obj
 0001:0001a950       ??$_Dest_val@V?$allocator@U?$pair@IV?$function@$$A6A_NVMouseEvent@app@cinder@@@Z@tr1@std@@@std@@@std@@U?$pair@IV?$function@$$A6A_NVMouseEvent@app@cinder@@@Z@tr1@std@@@2@@std@@YAXAAV?$allocator@U?$pair@IV?$function@$$A6A_NVMouseEvent@app@cinder@@@Z@tr1@std@@@std@@@0@PAU?$pair@IV?$function@$$A6A_NVMouseEvent@app@cinder@@@Z@tr1@std@@@0@@Z 0041b950 f i ThreeDeeApp.obj
 0001:0001a950       ??$_Dest_val@V?$allocator@U?$pair@IV?$function@$$A6A_NVKeyEvent@app@cinder@@@Z@tr1@std@@@std@@@std@@U?$pair@IV?$function@$$A6A_NVKeyEvent@app@cinder@@@Z@tr1@std@@@2@@std@@YAXAAV?$allocator@U?$pair@IV?$function@$$A6A_NVKeyEvent@app@cinder@@@Z@tr1@std@@@std@@@0@PAU?$pair@IV?$function@$$A6A_NVKeyEvent@app@cinder@@@Z@tr1@std@@@0@@Z 0041b950 f i ThreeDeeApp.obj
 0001:0001a950       ??$_Dest_val@V?$allocator@U?$pair@IV?$function@$$A6A_NVResizeEvent@app@cinder@@@Z@tr1@std@@@std@@@std@@U?$pair@IV?$function@$$A6A_NVResizeEvent@app@cinder@@@Z@tr1@std@@@2@@std@@YAXAAV?$allocator@U?$pair@IV?$function@$$A6A_NVResizeEvent@app@cinder@@@Z@tr1@std@@@std@@@0@PAU?$pair@IV?$function@$$A6A_NVResizeEvent@app@cinder@@@Z@tr1@std@@@0@@Z 0041b950 f i ThreeDeeApp.obj
 0001:0001a950       ??$_Dest_val@V?$allocator@U?$pair@IV?$function@$$A6A_NVTouchEvent@app@cinder@@@Z@tr1@std@@@std@@@std@@U?$pair@IV?$function@$$A6A_NVTouchEvent@app@cinder@@@Z@tr1@std@@@2@@std@@YAXAAV?$allocator@U?$pair@IV?$function@$$A6A_NVTouchEvent@app@cinder@@@Z@tr1@std@@@std@@@0@PAU?$pair@IV?$function@$$A6A_NVTouchEvent@app@cinder@@@Z@tr1@std@@@0@@Z 0041b950 f i ThreeDeeApp.obj
 0001:0001a980       ??$_Uninit_move@PAU?$pair@IV?$function@$$A6A_NVKeyEvent@app@cinder@@@Z@tr1@std@@@std@@PAU12@V?$allocator@U?$pair@IV?$function@$$A6A_NVKeyEvent@app@cinder@@@Z@tr1@std@@@std@@@2@U12@@std@@YAPAU?$pair@IV?$function@$$A6A_NVKeyEvent@app@cinder@@@Z@tr1@std@@@0@PAU10@00AAV?$allocator@U?$pair@IV?$function@$$A6A_NVKeyEvent@app@cinder@@@Z@tr1@std@@@std@@@0@0U_Nonscalar_ptr_iterator_tag@0@@Z 0041b980 f i ThreeDeeApp.obj
 0001:0001a980       ??$_Uninit_move@PAU?$pair@IV?$function@$$A6A_NVTouchEvent@app@cinder@@@Z@tr1@std@@@std@@PAU12@V?$allocator@U?$pair@IV?$function@$$A6A_NVTouchEvent@app@cinder@@@Z@tr1@std@@@std@@@2@U12@@std@@YAPAU?$pair@IV?$function@$$A6A_NVTouchEvent@app@cinder@@@Z@tr1@std@@@0@PAU10@00AAV?$allocator@U?$pair@IV?$function@$$A6A_NVTouchEvent@app@cinder@@@Z@tr1@std@@@std@@@0@0U_Nonscalar_ptr_iterator_tag@0@@Z 0041b980 f i ThreeDeeApp.obj
 0001:0001a980       ??$_Uninit_move@PAU?$pair@IV?$function@$$A6A_NVResizeEvent@app@cinder@@@Z@tr1@std@@@std@@PAU12@V?$allocator@U?$pair@IV?$function@$$A6A_NVResizeEvent@app@cinder@@@Z@tr1@std@@@std@@@2@U12@@std@@YAPAU?$pair@IV?$function@$$A6A_NVResizeEvent@app@cinder@@@Z@tr1@std@@@0@PAU10@00AAV?$allocator@U?$pair@IV?$function@$$A6A_NVResizeEvent@app@cinder@@@Z@tr1@std@@@std@@@0@0U_Nonscalar_ptr_iterator_tag@0@@Z 0041b980 f i ThreeDeeApp.obj
 0001:0001a980       ??$_Uninit_move@PAU?$pair@IV?$function@$$A6A_NVMouseEvent@app@cinder@@@Z@tr1@std@@@std@@PAU12@V?$allocator@U?$pair@IV?$function@$$A6A_NVMouseEvent@app@cinder@@@Z@tr1@std@@@std@@@2@U12@@std@@YAPAU?$pair@IV?$function@$$A6A_NVMouseEvent@app@cinder@@@Z@tr1@std@@@0@PAU10@00AAV?$allocator@U?$pair@IV?$function@$$A6A_NVMouseEvent@app@cinder@@@Z@tr1@std@@@std@@@0@0U_Nonscalar_ptr_iterator_tag@0@@Z 0041b980 f i ThreeDeeApp.obj
 0001:0001aa70       ??$?RV?$_String_const_iterator@DU?$char_traits@D@std@@V?$allocator@D@2@@std@@@?$token_finderF@U?$is_any_ofF@D@detail@algorithm@boost@@@detail@algorithm@boost@@QBE?AV?$iterator_range@V?$_String_const_iterator@DU?$char_traits@D@std@@V?$allocator@D@2@@std@@@3@V?$_String_const_iterator@DU?$char_traits@D@std@@V?$allocator@D@2@@std@@0@Z 0041ba70 f i ThreeDeeApp.obj
 0001:0001ab80       ??0?$clone_impl@U?$error_info_injector@Vbad_lexical_cast@boost@@@exception_detail@boost@@@exception_detail@boost@@QAE@ABV012@@Z 0041bb80 f i ThreeDeeApp.obj
 0001:0001abc0       ??0?$error_info_injector@Vbad_lexical_cast@boost@@@exception_detail@boost@@QAE@ABU012@@Z 0041bbc0 f i ThreeDeeApp.obj
 0001:0001ac60       ??0bad_lexical_cast@boost@@QAE@ABV01@@Z 0041bc60 f i ThreeDeeApp.obj
 0001:0001ac90       ??_E?$clone_impl@U?$error_info_injector@Vbad_lexical_cast@boost@@@exception_detail@boost@@@exception_detail@boost@@UAEPAXI@Z 0041bc90 f i  CIL library: CIL module
 0001:0001ac90       ??_G?$clone_impl@U?$error_info_injector@Vbad_lexical_cast@boost@@@exception_detail@boost@@@exception_detail@boost@@UAEPAXI@Z 0041bc90 f i ThreeDeeApp.obj
 0001:0001acf0       ??_E?$error_info_injector@Vbad_lexical_cast@boost@@@exception_detail@boost@@UAEPAXI@Z 0041bcf0 f i  CIL library: CIL module
 0001:0001acf0       ??_G?$error_info_injector@Vbad_lexical_cast@boost@@@exception_detail@boost@@UAEPAXI@Z 0041bcf0 f i ThreeDeeApp.obj
 0001:0001ad50       ??0?$basic_istream@DU?$char_traits@D@std@@@std@@QAE@PAV?$basic_streambuf@DU?$char_traits@D@std@@@1@_N@Z 0041bd50 f i ThreeDeeApp.obj
 0001:0001ae00       ??5?$basic_istream@DU?$char_traits@D@std@@@std@@QAEAAV01@AAM@Z 0041be00 f i ThreeDeeApp.obj
 0001:0001afa0       ?get@?$basic_istream@DU?$char_traits@D@std@@@std@@QAEHXZ 0041bfa0 f i ThreeDeeApp.obj
 0001:0001b130       ??1?$sp_ms_deleter@VSetLinewidth@gizmo@zugster@@@detail@boost@@QAE@XZ 0041c130 f i ThreeDeeApp.obj
 0001:0001b130       ??R?$sp_ms_deleter@VRegularPolygonPart@gizmo@zugster@@@detail@boost@@QAEXPAVRegularPolygonPart@gizmo@zugster@@@Z 0041c130 f i ThreeDeeApp.obj
 0001:0001b130       ??R?$sp_ms_deleter@VGridPart@gizmo@zugster@@@detail@boost@@QAEXPAVGridPart@gizmo@zugster@@@Z 0041c130 f i ThreeDeeApp.obj
 0001:0001b130       ??1?$sp_ms_deleter@VRegularPolygonPart@gizmo@zugster@@@detail@boost@@QAE@XZ 0041c130 f i ThreeDeeApp.obj
 0001:0001b130       ??1?$sp_ms_deleter@VGridPart@gizmo@zugster@@@detail@boost@@QAE@XZ 0041c130 f i ThreeDeeApp.obj
 0001:0001b130       ??1?$sp_ms_deleter@VSegmentedFilledArcPart@gizmo@zugster@@@detail@boost@@QAE@XZ 0041c130 f i ThreeDeeApp.obj
 0001:0001b130       ??R?$sp_ms_deleter@VRadialLinesPart@gizmo@zugster@@@detail@boost@@QAEXPAVRadialLinesPart@gizmo@zugster@@@Z 0041c130 f i ThreeDeeApp.obj
 0001:0001b130       ??1?$sp_ms_deleter@VGradientCirclePart@gizmo@zugster@@@detail@boost@@QAE@XZ 0041c130 f i ThreeDeeApp.obj
 0001:0001b130       ??R?$sp_ms_deleter@VPerimeterPart@gizmo@zugster@@@detail@boost@@QAEXPAVPerimeterPart@gizmo@zugster@@@Z 0041c130 f i ThreeDeeApp.obj
 0001:0001b130       ??R?$sp_ms_deleter@VArcPart@gizmo@zugster@@@detail@boost@@QAEXPAVArcPart@gizmo@zugster@@@Z 0041c130 f i ThreeDeeApp.obj
 0001:0001b130       ??1?$sp_ms_deleter@VFilledArcPart@gizmo@zugster@@@detail@boost@@QAE@XZ 0041c130 f i ThreeDeeApp.obj
 0001:0001b130       ??1?$sp_ms_deleter@VRadialLinesPart@gizmo@zugster@@@detail@boost@@QAE@XZ 0041c130 f i ThreeDeeApp.obj
 0001:0001b130       ??1?$sp_ms_deleter@VCirclePart@gizmo@zugster@@@detail@boost@@QAE@XZ 0041c130 f i ThreeDeeApp.obj
 0001:0001b130       ??1?$sp_ms_deleter@VPerimeterPart@gizmo@zugster@@@detail@boost@@QAE@XZ 0041c130 f i ThreeDeeApp.obj
 0001:0001b130       ??1?$sp_ms_deleter@VGizmo@gizmo@zugster@@@detail@boost@@QAE@XZ 0041c130 f i ThreeDeeApp.obj
 0001:0001b130       ??R?$sp_ms_deleter@VGradientCirclePart@gizmo@zugster@@@detail@boost@@QAEXPAVGradientCirclePart@gizmo@zugster@@@Z 0041c130 f i ThreeDeeApp.obj
 0001:0001b130       ??R?$sp_ms_deleter@VSegmentedFilledArcPart@gizmo@zugster@@@detail@boost@@QAEXPAVSegmentedFilledArcPart@gizmo@zugster@@@Z 0041c130 f i ThreeDeeApp.obj
 0001:0001b130       ??R?$sp_ms_deleter@VSetLinewidth@gizmo@zugster@@@detail@boost@@QAEXPAVSetLinewidth@gizmo@zugster@@@Z 0041c130 f i ThreeDeeApp.obj
 0001:0001b130       ??1?$sp_ms_deleter@VRectanglePart@gizmo@zugster@@@detail@boost@@QAE@XZ 0041c130 f i ThreeDeeApp.obj
 0001:0001b130       ??R?$sp_ms_deleter@VGizmo@gizmo@zugster@@@detail@boost@@QAEXPAVGizmo@gizmo@zugster@@@Z 0041c130 f i ThreeDeeApp.obj
 0001:0001b130       ??1?$sp_ms_deleter@VArcPart@gizmo@zugster@@@detail@boost@@QAE@XZ 0041c130 f i ThreeDeeApp.obj
 0001:0001b130       ??R?$sp_ms_deleter@VFilledArcPart@gizmo@zugster@@@detail@boost@@QAEXPAVFilledArcPart@gizmo@zugster@@@Z 0041c130 f i ThreeDeeApp.obj
 0001:0001b130       ??R?$sp_ms_deleter@VCirclePart@gizmo@zugster@@@detail@boost@@QAEXPAVCirclePart@gizmo@zugster@@@Z 0041c130 f i ThreeDeeApp.obj
 0001:0001b130       ??R?$sp_ms_deleter@VRectanglePart@gizmo@zugster@@@detail@boost@@QAEXPAVRectanglePart@gizmo@zugster@@@Z 0041c130 f i ThreeDeeApp.obj
 0001:0001b150       ??R?$sp_ms_deleter@VContextRestore@gizmo@zugster@@@detail@boost@@QAEXPAVContextRestore@gizmo@zugster@@@Z 0041c150 f i ThreeDeeApp.obj
 0001:0001b150       ??1?$sp_ms_deleter@VCustomFn@gizmo@zugster@@@detail@boost@@QAE@XZ 0041c150 f i ThreeDeeApp.obj
 0001:0001b150       ??R?$sp_ms_deleter@VContextSave@gizmo@zugster@@@detail@boost@@QAEXPAVContextSave@gizmo@zugster@@@Z 0041c150 f i ThreeDeeApp.obj
 0001:0001b150       ??1?$sp_ms_deleter@VContextRestore@gizmo@zugster@@@detail@boost@@QAE@XZ 0041c150 f i ThreeDeeApp.obj
 0001:0001b150       ??1?$sp_ms_deleter@VContextSave@gizmo@zugster@@@detail@boost@@QAE@XZ 0041c150 f i ThreeDeeApp.obj
 0001:0001b150       ??R?$sp_ms_deleter@VCustomFn@gizmo@zugster@@@detail@boost@@QAEXPAVCustomFn@gizmo@zugster@@@Z 0041c150 f i ThreeDeeApp.obj
 0001:0001b150       ??R?$sp_ms_deleter@VGizmoPane@gizmo@zugster@@@detail@boost@@QAEXPAVGizmoPane@gizmo@zugster@@@Z 0041c150 f i ThreeDeeApp.obj
 0001:0001b150       ??1?$sp_ms_deleter@VGizmoPane@gizmo@zugster@@@detail@boost@@QAE@XZ 0041c150 f i ThreeDeeApp.obj
 0001:0001b170       ?increment@?$split_iterator@V?$_String_const_iterator@DU?$char_traits@D@std@@V?$allocator@D@2@@std@@@algorithm@boost@@AAEXXZ 0041c170 f i ThreeDeeApp.obj
 0001:0001b1d0       ??1?$error_info_injector@Vbad_lexical_cast@boost@@@exception_detail@boost@@UAE@XZ 0041c1d0 f i ThreeDeeApp.obj
 0001:0001b210       ??1?$clone_impl@U?$error_info_injector@Vbad_lexical_cast@boost@@@exception_detail@boost@@@exception_detail@boost@@UAE@XZ 0041c210 f i ThreeDeeApp.obj
 0001:0001b260       ?clone@?$clone_impl@U?$error_info_injector@Vbad_lexical_cast@boost@@@exception_detail@boost@@@exception_detail@boost@@EBEPBVclone_base@23@XZ 0041c260 f i ThreeDeeApp.obj
 0001:0001b2e0       ?rethrow@?$clone_impl@U?$error_info_injector@Vbad_lexical_cast@boost@@@exception_detail@boost@@@exception_detail@boost@@EBEXXZ 0041c2e0 f i ThreeDeeApp.obj
 0001:0001b390       ?dispose@?$sp_counted_impl_pd@PAVSolarizedThemeDark@gizmo@zugster@@V?$sp_ms_deleter@VSolarizedThemeDark@gizmo@zugster@@@detail@boost@@@detail@boost@@UAEXXZ 0041c390 f i ThreeDeeApp.obj
 0001:0001b3b0       ?get_deleter@?$sp_counted_impl_pd@PAVSolarizedThemeDark@gizmo@zugster@@V?$sp_ms_deleter@VSolarizedThemeDark@gizmo@zugster@@@detail@boost@@@detail@boost@@UAEPAXABVtype_info@@@Z 0041c3b0 f i ThreeDeeApp.obj
 0001:0001b3e0       ?get_deleter@?$sp_counted_impl_pd@PAVGizmo@gizmo@zugster@@V?$sp_ms_deleter@VGizmo@gizmo@zugster@@@detail@boost@@@detail@boost@@UAEPAXABVtype_info@@@Z 0041c3e0 f i ThreeDeeApp.obj
 0001:0001b410       ?get_deleter@?$sp_counted_impl_pd@PAVContextSave@gizmo@zugster@@V?$sp_ms_deleter@VContextSave@gizmo@zugster@@@detail@boost@@@detail@boost@@UAEPAXABVtype_info@@@Z 0041c410 f i ThreeDeeApp.obj
 0001:0001b440       ?get_deleter@?$sp_counted_impl_pd@PAVContextRestore@gizmo@zugster@@V?$sp_ms_deleter@VContextRestore@gizmo@zugster@@@detail@boost@@@detail@boost@@UAEPAXABVtype_info@@@Z 0041c440 f i ThreeDeeApp.obj
 0001:0001b470       ?get_deleter@?$sp_counted_impl_pd@PAVCirclePart@gizmo@zugster@@V?$sp_ms_deleter@VCirclePart@gizmo@zugster@@@detail@boost@@@detail@boost@@UAEPAXABVtype_info@@@Z 0041c470 f i ThreeDeeApp.obj
 0001:0001b4a0       ?get_deleter@?$sp_counted_impl_pd@PAVArcPart@gizmo@zugster@@V?$sp_ms_deleter@VArcPart@gizmo@zugster@@@detail@boost@@@detail@boost@@UAEPAXABVtype_info@@@Z 0041c4a0 f i ThreeDeeApp.obj
 0001:0001b4d0       ?get_deleter@?$sp_counted_impl_pd@PAVGradientCirclePart@gizmo@zugster@@V?$sp_ms_deleter@VGradientCirclePart@gizmo@zugster@@@detail@boost@@@detail@boost@@UAEPAXABVtype_info@@@Z 0041c4d0 f i ThreeDeeApp.obj
 0001:0001b500       ?get_deleter@?$sp_counted_impl_pd@PAVFilledArcPart@gizmo@zugster@@V?$sp_ms_deleter@VFilledArcPart@gizmo@zugster@@@detail@boost@@@detail@boost@@UAEPAXABVtype_info@@@Z 0041c500 f i ThreeDeeApp.obj
 0001:0001b530       ?get_deleter@?$sp_counted_impl_pd@PAVSetLinewidth@gizmo@zugster@@V?$sp_ms_deleter@VSetLinewidth@gizmo@zugster@@@detail@boost@@@detail@boost@@UAEPAXABVtype_info@@@Z 0041c530 f i ThreeDeeApp.obj
 0001:0001b560       ?get_deleter@?$sp_counted_impl_pd@PAVSegmentedFilledArcPart@gizmo@zugster@@V?$sp_ms_deleter@VSegmentedFilledArcPart@gizmo@zugster@@@detail@boost@@@detail@boost@@UAEPAXABVtype_info@@@Z 0041c560 f i ThreeDeeApp.obj
 0001:0001b590       ?dispose@?$sp_counted_impl_pd@PAVRadialLinesPart@gizmo@zugster@@V?$sp_ms_deleter@VRadialLinesPart@gizmo@zugster@@@detail@boost@@@detail@boost@@UAEXXZ 0041c590 f i ThreeDeeApp.obj
 0001:0001b590       ?dispose@?$sp_counted_impl_pd@PAVPerimeterPart@gizmo@zugster@@V?$sp_ms_deleter@VPerimeterPart@gizmo@zugster@@@detail@boost@@@detail@boost@@UAEXXZ 0041c590 f i ThreeDeeApp.obj
 0001:0001b590       ?dispose@?$sp_counted_impl_pd@PAVRegularPolygonPart@gizmo@zugster@@V?$sp_ms_deleter@VRegularPolygonPart@gizmo@zugster@@@detail@boost@@@detail@boost@@UAEXXZ 0041c590 f i ThreeDeeApp.obj
 0001:0001b590       ?dispose@?$sp_counted_impl_pd@PAVGradientCirclePart@gizmo@zugster@@V?$sp_ms_deleter@VGradientCirclePart@gizmo@zugster@@@detail@boost@@@detail@boost@@UAEXXZ 0041c590 f i ThreeDeeApp.obj
 0001:0001b590       ?dispose@?$sp_counted_impl_pd@PAVCirclePart@gizmo@zugster@@V?$sp_ms_deleter@VCirclePart@gizmo@zugster@@@detail@boost@@@detail@boost@@UAEXXZ 0041c590 f i ThreeDeeApp.obj
 0001:0001b590       ?dispose@?$sp_counted_impl_pd@PAVArcPart@gizmo@zugster@@V?$sp_ms_deleter@VArcPart@gizmo@zugster@@@detail@boost@@@detail@boost@@UAEXXZ 0041c590 f i ThreeDeeApp.obj
 0001:0001b590       ?dispose@?$sp_counted_impl_pd@PAVSetLinewidth@gizmo@zugster@@V?$sp_ms_deleter@VSetLinewidth@gizmo@zugster@@@detail@boost@@@detail@boost@@UAEXXZ 0041c590 f i ThreeDeeApp.obj
 0001:0001b590       ?dispose@?$sp_counted_impl_pd@PAVRectanglePart@gizmo@zugster@@V?$sp_ms_deleter@VRectanglePart@gizmo@zugster@@@detail@boost@@@detail@boost@@UAEXXZ 0041c590 f i ThreeDeeApp.obj
 0001:0001b590       ?dispose@?$sp_counted_impl_pd@PAVGridPart@gizmo@zugster@@V?$sp_ms_deleter@VGridPart@gizmo@zugster@@@detail@boost@@@detail@boost@@UAEXXZ 0041c590 f i ThreeDeeApp.obj
 0001:0001b590       ?dispose@?$sp_counted_impl_pd@PAVGizmo@gizmo@zugster@@V?$sp_ms_deleter@VGizmo@gizmo@zugster@@@detail@boost@@@detail@boost@@UAEXXZ 0041c590 f i ThreeDeeApp.obj
 0001:0001b590       ?dispose@?$sp_counted_impl_pd@PAVSegmentedFilledArcPart@gizmo@zugster@@V?$sp_ms_deleter@VSegmentedFilledArcPart@gizmo@zugster@@@detail@boost@@@detail@boost@@UAEXXZ 0041c590 f i ThreeDeeApp.obj
 0001:0001b590       ?dispose@?$sp_counted_impl_pd@PAVFilledArcPart@gizmo@zugster@@V?$sp_ms_deleter@VFilledArcPart@gizmo@zugster@@@detail@boost@@@detail@boost@@UAEXXZ 0041c590 f i ThreeDeeApp.obj
 0001:0001b5c0       ?get_deleter@?$sp_counted_impl_pd@PAVRadialLinesPart@gizmo@zugster@@V?$sp_ms_deleter@VRadialLinesPart@gizmo@zugster@@@detail@boost@@@detail@boost@@UAEPAXABVtype_info@@@Z 0041c5c0 f i ThreeDeeApp.obj
 0001:0001b5f0       ?get_deleter@?$sp_counted_impl_pd@PAVRectanglePart@gizmo@zugster@@V?$sp_ms_deleter@VRectanglePart@gizmo@zugster@@@detail@boost@@@detail@boost@@UAEPAXABVtype_info@@@Z 0041c5f0 f i ThreeDeeApp.obj
 0001:0001b620       ?dispose@?$sp_counted_impl_pd@PAVCustomFn@gizmo@zugster@@V?$sp_ms_deleter@VCustomFn@gizmo@zugster@@@detail@boost@@@detail@boost@@UAEXXZ 0041c620 f i ThreeDeeApp.obj
 0001:0001b620       ?dispose@?$sp_counted_impl_pd@PAVGizmoPane@gizmo@zugster@@V?$sp_ms_deleter@VGizmoPane@gizmo@zugster@@@detail@boost@@@detail@boost@@UAEXXZ 0041c620 f i ThreeDeeApp.obj
 0001:0001b620       ?dispose@?$sp_counted_impl_pd@PAVContextSave@gizmo@zugster@@V?$sp_ms_deleter@VContextSave@gizmo@zugster@@@detail@boost@@@detail@boost@@UAEXXZ 0041c620 f i ThreeDeeApp.obj
 0001:0001b620       ?dispose@?$sp_counted_impl_pd@PAVContextRestore@gizmo@zugster@@V?$sp_ms_deleter@VContextRestore@gizmo@zugster@@@detail@boost@@@detail@boost@@UAEXXZ 0041c620 f i ThreeDeeApp.obj
 0001:0001b650       ?get_deleter@?$sp_counted_impl_pd@PAVCustomFn@gizmo@zugster@@V?$sp_ms_deleter@VCustomFn@gizmo@zugster@@@detail@boost@@@detail@boost@@UAEPAXABVtype_info@@@Z 0041c650 f i ThreeDeeApp.obj
 0001:0001b680       ?get_deleter@?$sp_counted_impl_pd@PAVGridPart@gizmo@zugster@@V?$sp_ms_deleter@VGridPart@gizmo@zugster@@@detail@boost@@@detail@boost@@UAEPAXABVtype_info@@@Z 0041c680 f i ThreeDeeApp.obj
 0001:0001b6b0       ?get_deleter@?$sp_counted_impl_pd@PAVRegularPolygonPart@gizmo@zugster@@V?$sp_ms_deleter@VRegularPolygonPart@gizmo@zugster@@@detail@boost@@@detail@boost@@UAEPAXABVtype_info@@@Z 0041c6b0 f i ThreeDeeApp.obj
 0001:0001b6e0       ?get_deleter@?$sp_counted_impl_pd@PAVPerimeterPart@gizmo@zugster@@V?$sp_ms_deleter@VPerimeterPart@gizmo@zugster@@@detail@boost@@@detail@boost@@UAEPAXABVtype_info@@@Z 0041c6e0 f i ThreeDeeApp.obj
 0001:0001b710       ?get_deleter@?$sp_counted_impl_pd@PAVGizmoPane@gizmo@zugster@@V?$sp_ms_deleter@VGizmoPane@gizmo@zugster@@@detail@boost@@@detail@boost@@UAEPAXABVtype_info@@@Z 0041c710 f i ThreeDeeApp.obj
 0001:0001b740       ??_E?$sp_counted_impl_pd@PAVSolarizedThemeDark@gizmo@zugster@@V?$sp_ms_deleter@VSolarizedThemeDark@gizmo@zugster@@@detail@boost@@@detail@boost@@UAEPAXI@Z 0041c740 f i  CIL library: CIL module
 0001:0001b740       ??_G?$sp_counted_impl_pd@PAVSolarizedThemeDark@gizmo@zugster@@V?$sp_ms_deleter@VSolarizedThemeDark@gizmo@zugster@@@detail@boost@@@detail@boost@@UAEPAXI@Z 0041c740 f i ThreeDeeApp.obj
 0001:0001b7b0       ??_E?$sp_counted_impl_pd@PAVCirclePart@gizmo@zugster@@V?$sp_ms_deleter@VCirclePart@gizmo@zugster@@@detail@boost@@@detail@boost@@UAEPAXI@Z 0041c7b0 f i  CIL library: CIL module
 0001:0001b7b0       ??_G?$sp_counted_impl_pd@PAVSetLinewidth@gizmo@zugster@@V?$sp_ms_deleter@VSetLinewidth@gizmo@zugster@@@detail@boost@@@detail@boost@@UAEPAXI@Z 0041c7b0 f i ThreeDeeApp.obj
 0001:0001b7b0       ??_G?$sp_counted_impl_pd@PAVGizmo@gizmo@zugster@@V?$sp_ms_deleter@VGizmo@gizmo@zugster@@@detail@boost@@@detail@boost@@UAEPAXI@Z 0041c7b0 f i ThreeDeeApp.obj
 0001:0001b7b0       ??_E?$sp_counted_impl_pd@PAVFilledArcPart@gizmo@zugster@@V?$sp_ms_deleter@VFilledArcPart@gizmo@zugster@@@detail@boost@@@detail@boost@@UAEPAXI@Z 0041c7b0 f i  CIL library: CIL module
 0001:0001b7b0       ??_E?$sp_counted_impl_pd@PAVGradientCirclePart@gizmo@zugster@@V?$sp_ms_deleter@VGradientCirclePart@gizmo@zugster@@@detail@boost@@@detail@boost@@UAEPAXI@Z 0041c7b0 f i  CIL library: CIL module
 0001:0001b7b0       ??_G?$sp_counted_impl_pd@PAVPerimeterPart@gizmo@zugster@@V?$sp_ms_deleter@VPerimeterPart@gizmo@zugster@@@detail@boost@@@detail@boost@@UAEPAXI@Z 0041c7b0 f i ThreeDeeApp.obj
 0001:0001b7b0       ??_E?$sp_counted_impl_pd@PAVSegmentedFilledArcPart@gizmo@zugster@@V?$sp_ms_deleter@VSegmentedFilledArcPart@gizmo@zugster@@@detail@boost@@@detail@boost@@UAEPAXI@Z 0041c7b0 f i  CIL library: CIL module
 0001:0001b7b0       ??_G?$sp_counted_impl_pd@PAVRadialLinesPart@gizmo@zugster@@V?$sp_ms_deleter@VRadialLinesPart@gizmo@zugster@@@detail@boost@@@detail@boost@@UAEPAXI@Z 0041c7b0 f i ThreeDeeApp.obj
 0001:0001b7b0       ??_G?$sp_counted_impl_pd@PAVRectanglePart@gizmo@zugster@@V?$sp_ms_deleter@VRectanglePart@gizmo@zugster@@@detail@boost@@@detail@boost@@UAEPAXI@Z 0041c7b0 f i ThreeDeeApp.obj
 0001:0001b7b0       ??_E?$sp_counted_impl_pd@PAVGizmo@gizmo@zugster@@V?$sp_ms_deleter@VGizmo@gizmo@zugster@@@detail@boost@@@detail@boost@@UAEPAXI@Z 0041c7b0 f i  CIL library: CIL module
 0001:0001b7b0       ??_E?$sp_counted_impl_pd@PAVRectanglePart@gizmo@zugster@@V?$sp_ms_deleter@VRectanglePart@gizmo@zugster@@@detail@boost@@@detail@boost@@UAEPAXI@Z 0041c7b0 f i  CIL library: CIL module
 0001:0001b7b0       ??_E?$sp_counted_impl_pd@PAVGridPart@gizmo@zugster@@V?$sp_ms_deleter@VGridPart@gizmo@zugster@@@detail@boost@@@detail@boost@@UAEPAXI@Z 0041c7b0 f i  CIL library: CIL module
 0001:0001b7b0       ??_E?$sp_counted_impl_pd@PAVPerimeterPart@gizmo@zugster@@V?$sp_ms_deleter@VPerimeterPart@gizmo@zugster@@@detail@boost@@@detail@boost@@UAEPAXI@Z 0041c7b0 f i  CIL library: CIL module
 0001:0001b7b0       ??_G?$sp_counted_impl_pd@PAVRegularPolygonPart@gizmo@zugster@@V?$sp_ms_deleter@VRegularPolygonPart@gizmo@zugster@@@detail@boost@@@detail@boost@@UAEPAXI@Z 0041c7b0 f i ThreeDeeApp.obj
 0001:0001b7b0       ??_G?$sp_counted_impl_pd@PAVArcPart@gizmo@zugster@@V?$sp_ms_deleter@VArcPart@gizmo@zugster@@@detail@boost@@@detail@boost@@UAEPAXI@Z 0041c7b0 f i ThreeDeeApp.obj
 0001:0001b7b0       ??_G?$sp_counted_impl_pd@PAVSegmentedFilledArcPart@gizmo@zugster@@V?$sp_ms_deleter@VSegmentedFilledArcPart@gizmo@zugster@@@detail@boost@@@detail@boost@@UAEPAXI@Z 0041c7b0 f i ThreeDeeApp.obj
 0001:0001b7b0       ??_G?$sp_counted_impl_pd@PAVCirclePart@gizmo@zugster@@V?$sp_ms_deleter@VCirclePart@gizmo@zugster@@@detail@boost@@@detail@boost@@UAEPAXI@Z 0041c7b0 f i ThreeDeeApp.obj
 0001:0001b7b0       ??_G?$sp_counted_impl_pd@PAVGridPart@gizmo@zugster@@V?$sp_ms_deleter@VGridPart@gizmo@zugster@@@detail@boost@@@detail@boost@@UAEPAXI@Z 0041c7b0 f i ThreeDeeApp.obj
 0001:0001b7b0       ??_E?$sp_counted_impl_pd@PAVRegularPolygonPart@gizmo@zugster@@V?$sp_ms_deleter@VRegularPolygonPart@gizmo@zugster@@@detail@boost@@@detail@boost@@UAEPAXI@Z 0041c7b0 f i  CIL library: CIL module
 0001:0001b7b0       ??_E?$sp_counted_impl_pd@PAVSetLinewidth@gizmo@zugster@@V?$sp_ms_deleter@VSetLinewidth@gizmo@zugster@@@detail@boost@@@detail@boost@@UAEPAXI@Z 0041c7b0 f i  CIL library: CIL module
 0001:0001b7b0       ??_E?$sp_counted_impl_pd@PAVArcPart@gizmo@zugster@@V?$sp_ms_deleter@VArcPart@gizmo@zugster@@@detail@boost@@@detail@boost@@UAEPAXI@Z 0041c7b0 f i  CIL library: CIL module
 0001:0001b7b0       ??_G?$sp_counted_impl_pd@PAVGradientCirclePart@gizmo@zugster@@V?$sp_ms_deleter@VGradientCirclePart@gizmo@zugster@@@detail@boost@@@detail@boost@@UAEPAXI@Z 0041c7b0 f i ThreeDeeApp.obj
 0001:0001b7b0       ??_G?$sp_counted_impl_pd@PAVFilledArcPart@gizmo@zugster@@V?$sp_ms_deleter@VFilledArcPart@gizmo@zugster@@@detail@boost@@@detail@boost@@UAEPAXI@Z 0041c7b0 f i ThreeDeeApp.obj
 0001:0001b7b0       ??_E?$sp_counted_impl_pd@PAVRadialLinesPart@gizmo@zugster@@V?$sp_ms_deleter@VRadialLinesPart@gizmo@zugster@@@detail@boost@@@detail@boost@@UAEPAXI@Z 0041c7b0 f i  CIL library: CIL module
 0001:0001b830       ??_G?$sp_counted_impl_pd@PAVCustomFn@gizmo@zugster@@V?$sp_ms_deleter@VCustomFn@gizmo@zugster@@@detail@boost@@@detail@boost@@UAEPAXI@Z 0041c830 f i ThreeDeeApp.obj
 0001:0001b830       ??_G?$sp_counted_impl_pd@PAVGizmoPane@gizmo@zugster@@V?$sp_ms_deleter@VGizmoPane@gizmo@zugster@@@detail@boost@@@detail@boost@@UAEPAXI@Z 0041c830 f i ThreeDeeApp.obj
 0001:0001b830       ??_G?$sp_counted_impl_pd@PAVContextSave@gizmo@zugster@@V?$sp_ms_deleter@VContextSave@gizmo@zugster@@@detail@boost@@@detail@boost@@UAEPAXI@Z 0041c830 f i ThreeDeeApp.obj
 0001:0001b830       ??_G?$sp_counted_impl_pd@PAVContextRestore@gizmo@zugster@@V?$sp_ms_deleter@VContextRestore@gizmo@zugster@@@detail@boost@@@detail@boost@@UAEPAXI@Z 0041c830 f i ThreeDeeApp.obj
 0001:0001b830       ??_E?$sp_counted_impl_pd@PAVContextSave@gizmo@zugster@@V?$sp_ms_deleter@VContextSave@gizmo@zugster@@@detail@boost@@@detail@boost@@UAEPAXI@Z 0041c830 f i  CIL library: CIL module
 0001:0001b830       ??_E?$sp_counted_impl_pd@PAVGizmoPane@gizmo@zugster@@V?$sp_ms_deleter@VGizmoPane@gizmo@zugster@@@detail@boost@@@detail@boost@@UAEPAXI@Z 0041c830 f i  CIL library: CIL module
 0001:0001b830       ??_E?$sp_counted_impl_pd@PAVCustomFn@gizmo@zugster@@V?$sp_ms_deleter@VCustomFn@gizmo@zugster@@@detail@boost@@@detail@boost@@UAEPAXI@Z 0041c830 f i  CIL library: CIL module
 0001:0001b830       ??_E?$sp_counted_impl_pd@PAVContextRestore@gizmo@zugster@@V?$sp_ms_deleter@VContextRestore@gizmo@zugster@@@detail@boost@@@detail@boost@@UAEPAXI@Z 0041c830 f i  CIL library: CIL module
 0001:0001b8b0       ?do_get@?$num_get@DV?$istreambuf_iterator@DU?$char_traits@D@std@@@std@@@std@@MBE?AV?$istreambuf_iterator@DU?$char_traits@D@std@@@2@V32@0AAVios_base@2@AAHAA_N@Z 0041c8b0 f i ThreeDeeApp.obj
 0001:0001bb30       ?do_get@?$num_get@DV?$istreambuf_iterator@DU?$char_traits@D@std@@@std@@@std@@MBE?AV?$istreambuf_iterator@DU?$char_traits@D@std@@@2@V32@0AAVios_base@2@AAHAAG@Z 0041cb30 f i ThreeDeeApp.obj
 0001:0001bc80       ?do_get@?$num_get@DV?$istreambuf_iterator@DU?$char_traits@D@std@@@std@@@std@@MBE?AV?$istreambuf_iterator@DU?$char_traits@D@std@@@2@V32@0AAVios_base@2@AAHAAI@Z 0041cc80 f i ThreeDeeApp.obj
 0001:0001bdc0       ?do_get@?$num_get@DV?$istreambuf_iterator@DU?$char_traits@D@std@@@std@@@std@@MBE?AV?$istreambuf_iterator@DU?$char_traits@D@std@@@2@V32@0AAVios_base@2@AAHAAJ@Z 0041cdc0 f i ThreeDeeApp.obj
 0001:0001bef0       ?do_get@?$num_get@DV?$istreambuf_iterator@DU?$char_traits@D@std@@@std@@@std@@MBE?AV?$istreambuf_iterator@DU?$char_traits@D@std@@@2@V32@0AAVios_base@2@AAHAAK@Z 0041cef0 f i ThreeDeeApp.obj
 0001:0001c020       ?do_get@?$num_get@DV?$istreambuf_iterator@DU?$char_traits@D@std@@@std@@@std@@MBE?AV?$istreambuf_iterator@DU?$char_traits@D@std@@@2@V32@0AAVios_base@2@AAHAA_J@Z 0041d020 f i ThreeDeeApp.obj
 0001:0001c180       ?do_get@?$num_get@DV?$istreambuf_iterator@DU?$char_traits@D@std@@@std@@@std@@MBE?AV?$istreambuf_iterator@DU?$char_traits@D@std@@@2@V32@0AAVios_base@2@AAHAA_K@Z 0041d180 f i ThreeDeeApp.obj
 0001:0001c2e0       ?do_get@?$num_get@DV?$istreambuf_iterator@DU?$char_traits@D@std@@@std@@@std@@MBE?AV?$istreambuf_iterator@DU?$char_traits@D@std@@@2@V32@0AAVios_base@2@AAHAAM@Z 0041d2e0 f i ThreeDeeApp.obj
 0001:0001c3b0       ?do_get@?$num_get@DV?$istreambuf_iterator@DU?$char_traits@D@std@@@std@@@std@@MBE?AV?$istreambuf_iterator@DU?$char_traits@D@std@@@2@V32@0AAVios_base@2@AAHAAN@Z 0041d3b0 f i ThreeDeeApp.obj
 0001:0001c490       ?do_get@?$num_get@DV?$istreambuf_iterator@DU?$char_traits@D@std@@@std@@@std@@MBE?AV?$istreambuf_iterator@DU?$char_traits@D@std@@@2@V32@0AAVios_base@2@AAHAAO@Z 0041d490 f i ThreeDeeApp.obj
 0001:0001c570       ?do_get@?$num_get@DV?$istreambuf_iterator@DU?$char_traits@D@std@@@std@@@std@@MBE?AV?$istreambuf_iterator@DU?$char_traits@D@std@@@2@V32@0AAVios_base@2@AAHAAPAX@Z 0041d570 f i ThreeDeeApp.obj
 0001:0001c6d0       ?_Getifld@?$num_get@DV?$istreambuf_iterator@DU?$char_traits@D@std@@@std@@@std@@ABAHPADAAV?$istreambuf_iterator@DU?$char_traits@D@std@@@2@1HABVlocale@2@@Z 0041d6d0 f i ThreeDeeApp.obj
 0001:0001cb30       ?_Getffld@?$num_get@DV?$istreambuf_iterator@DU?$char_traits@D@std@@@std@@@std@@ABAHPADAAV?$istreambuf_iterator@DU?$char_traits@D@std@@@2@1AAVios_base@2@PAH@Z 0041db30 f i ThreeDeeApp.obj
 0001:0001d6f0       ?_Getffldx@?$num_get@DV?$istreambuf_iterator@DU?$char_traits@D@std@@@std@@@std@@ABAHPADAAV?$istreambuf_iterator@DU?$char_traits@D@std@@@2@1AAVios_base@2@PAH@Z 0041e6f0 f i ThreeDeeApp.obj
 0001:0001e390       ??D?$istreambuf_iterator@DU?$char_traits@D@std@@@std@@QBEDXZ 0041f390 f i ThreeDeeApp.obj
 0001:0001e3e0       ??E?$istreambuf_iterator@DU?$char_traits@D@std@@@std@@QAEAAV01@XZ 0041f3e0 f i ThreeDeeApp.obj
 0001:0001e430       ?_Inc@?$istreambuf_iterator@DU?$char_traits@D@std@@@std@@AAEXXZ 0041f430 f i ThreeDeeApp.obj
 0001:0001e480       ?_Peek@?$istreambuf_iterator@DU?$char_traits@D@std@@@std@@ABEDXZ 0041f480 f i ThreeDeeApp.obj
 0001:0001e4d0       ??$_Sort@PADH@std@@YAXPAD0H@Z 0041f4d0 f i ThreeDeeApp.obj
 0001:0001e590       ??$?0U?$token_finderF@U?$is_any_ofF@D@detail@algorithm@boost@@@detail@algorithm@boost@@@?$find_iterator_base@V?$_String_const_iterator@DU?$char_traits@D@std@@V?$allocator@D@2@@std@@@detail@algorithm@boost@@IAE@U?$token_finderF@U?$is_any_ofF@D@detail@algorithm@boost@@@123@H@Z 0041f590 f i ThreeDeeApp.obj
 0001:0001e630       ??$_Construct@V?$transform_iterator@U?$copy_iterator_rangeF@V?$basic_string@DU?$char_traits@D@std@@V?$allocator@D@2@@std@@V?$_String_const_iterator@DU?$char_traits@D@std@@V?$allocator@D@2@@2@@detail@algorithm@boost@@V?$split_iterator@V?$_String_const_iterator@DU?$char_traits@D@std@@V?$allocator@D@2@@std@@@34@Uuse_default@4@U64@@boost@@@?$vector@V?$basic_string@DU?$char_traits@D@std@@V?$allocator@D@2@@std@@V?$allocator@V?$basic_string@DU?$char_traits@D@std@@V?$allocator@D@2@@std@@@2@@std@@QAEXV?$transform_iterator@U?$copy_iterator_rangeF@V?$basic_string@DU?$char_traits@D@std@@V?$allocator@D@2@@std@@V?$_String_const_iterator@DU?$char_traits@D@std@@V?$allocator@D@2@@2@@detail@algorithm@boost@@V?$split_iterator@V?$_String_const_iterator@DU?$char_traits@D@std@@V?$allocator@D@2@@std@@@34@Uuse_default@4@U64@@boost@@0Uinput_iterator_tag@1@@Z 0041f630 f i ThreeDeeApp.obj
 0001:0001e720       ??$enable_error_info@Vbad_lexical_cast@boost@@@boost@@YA?AU?$error_info_injector@Vbad_lexical_cast@boost@@@exception_detail@0@ABVbad_lexical_cast@0@@Z 0041f720 f i ThreeDeeApp.obj
 0001:0001e770       ??$enable_current_exception@U?$error_info_injector@Vbad_lexical_cast@boost@@@exception_detail@boost@@@boost@@YA?AV?$clone_impl@U?$error_info_injector@Vbad_lexical_cast@boost@@@exception_detail@boost@@@exception_detail@0@ABU?$error_info_injector@Vbad_lexical_cast@boost@@@20@@Z 0041f770 f i ThreeDeeApp.obj
 0001:0001e800       ??$lexical_cast@V?$basic_string@DU?$char_traits@D@std@@V?$allocator@D@2@@std@@V12@$0A@D@detail@boost@@YA?AV?$basic_string@DU?$char_traits@D@std@@V?$allocator@D@2@@std@@ABV23@PADI@Z 0041f800 f i ThreeDeeApp.obj
 0001:0001e8a0       ??$?5N@?$lexical_stream_limited_src@DV?$basic_streambuf@DU?$char_traits@D@std@@@std@@U?$char_traits@D@2@@detail@boost@@QAE_NAAN@Z 0041f8a0 f i ThreeDeeApp.obj
 0001:0001e990       ??$lexical_cast@HV?$basic_string@DU?$char_traits@D@std@@V?$allocator@D@2@@std@@$0A@D@detail@boost@@YAHABV?$basic_string@DU?$char_traits@D@std@@V?$allocator@D@2@@std@@PADI@Z 0041f990 f i ThreeDeeApp.obj
 0001:0001ea60       ??$find_if@V?$_String_const_iterator@DU?$char_traits@D@std@@V?$allocator@D@2@@std@@U?$is_any_ofF@D@detail@algorithm@boost@@@std@@YA?AV?$_String_const_iterator@DU?$char_traits@D@std@@V?$allocator@D@2@@0@V10@0U?$is_any_ofF@D@detail@algorithm@boost@@@Z 0041fa60 f i ThreeDeeApp.obj
 0001:0001eb10       ??$_Move@PAV?$basic_string@DU?$char_traits@D@std@@V?$allocator@D@2@@std@@PAV12@@std@@YAPAV?$basic_string@DU?$char_traits@D@std@@V?$allocator@D@2@@0@PAV10@00U_Nonscalar_ptr_iterator_tag@0@@Z 0041fb10 f i ThreeDeeApp.obj
 0001:0001eba0       ??$use_facet@V?$num_get@DV?$istreambuf_iterator@DU?$char_traits@D@std@@@std@@@std@@@std@@YAABV?$num_get@DV?$istreambuf_iterator@DU?$char_traits@D@std@@@std@@@0@ABVlocale@0@@Z 0041fba0 f i ThreeDeeApp.obj
 0001:0001ece0       ??R?$function2@V?$iterator_range@V?$_String_const_iterator@DU?$char_traits@D@std@@V?$allocator@D@2@@std@@@boost@@V?$_String_const_iterator@DU?$char_traits@D@std@@V?$allocator@D@2@@std@@V34@@boost@@QBE?AV?$iterator_range@V?$_String_const_iterator@DU?$char_traits@D@std@@V?$allocator@D@2@@std@@@1@V?$_String_const_iterator@DU?$char_traits@D@std@@V?$allocator@D@2@@std@@0@Z 0041fce0 f i ThreeDeeApp.obj
 0001:0001ed70       ??$_Getloctxt@DV?$istreambuf_iterator@DU?$char_traits@D@std@@@std@@@std@@YAHAAV?$istreambuf_iterator@DU?$char_traits@D@std@@@0@0IPBD@Z 0041fd70 f i ThreeDeeApp.obj
 0001:0001efb0       ??5?$basic_istream@DU?$char_traits@D@std@@@std@@QAEAAV01@AAN@Z 0041ffb0 f i ThreeDeeApp.obj
 0001:0001f150       ?_Getcat@?$num_get@DV?$istreambuf_iterator@DU?$char_traits@D@std@@@std@@@std@@SAIPAPBVfacet@locale@2@PBV42@@Z 00420150 f i ThreeDeeApp.obj
 0001:0001f210       ?equal@?$istreambuf_iterator@DU?$char_traits@D@std@@@std@@QBE_NABV12@@Z 00420210 f i ThreeDeeApp.obj
 0001:0001f2c0       ?_Copy@?$_Impl_no_alloc1@U?$_Callable_obj@V?$binder1st@V?$mem_fun1_t@_NVInterface@cinderpane@zugster@@VKeyEvent@app@cinder@@@std@@@std@@$0A@@tr1@std@@_NVKeyEvent@app@cinder@@@tr1@std@@UAEPAV?$_Impl_base1@_NVKeyEvent@app@cinder@@@23@PAX@Z 004202c0 f i ThreeDeeApp.obj
 0001:0001f320       ?_Do_call@?$_Impl_no_alloc1@U?$_Callable_obj@V?$binder1st@V?$mem_fun1_t@_NVInterface@cinderpane@zugster@@VKeyEvent@app@cinder@@@std@@@std@@$0A@@tr1@std@@_NVKeyEvent@app@cinder@@@tr1@std@@UAE_NVKeyEvent@app@cinder@@@Z 00420320 f i ThreeDeeApp.obj
 0001:0001f3c0       ?_Target_type@?$_Impl_no_alloc1@U?$_Callable_obj@V?$binder1st@V?$mem_fun1_t@_NVInterface@cinderpane@zugster@@VKeyEvent@app@cinder@@@std@@@std@@$0A@@tr1@std@@_NVKeyEvent@app@cinder@@@tr1@std@@UBEABVtype_info@@XZ 004203c0 f i ThreeDeeApp.obj
 0001:0001f3d0       ?_Copy@?$_Impl_no_alloc1@U?$_Callable_obj@V?$binder1st@V?$mem_fun1_t@_NVInterface@cinderpane@zugster@@VResizeEvent@app@cinder@@@std@@@std@@$0A@@tr1@std@@_NVResizeEvent@app@cinder@@@tr1@std@@UAEPAV?$_Impl_base1@_NVResizeEvent@app@cinder@@@23@PAX@Z 004203d0 f i ThreeDeeApp.obj
 0001:0001f430       ?_Do_call@?$_Impl_no_alloc1@U?$_Callable_obj@V?$binder1st@V?$mem_fun1_t@_NVInterface@cinderpane@zugster@@VResizeEvent@app@cinder@@@std@@@std@@$0A@@tr1@std@@_NVResizeEvent@app@cinder@@@tr1@std@@UAE_NVResizeEvent@app@cinder@@@Z 00420430 f i ThreeDeeApp.obj
 0001:0001f4b0       ?_Target_type@?$_Impl_no_alloc1@U?$_Callable_obj@V?$binder1st@V?$mem_fun1_t@_NVInterface@cinderpane@zugster@@VResizeEvent@app@cinder@@@std@@@std@@$0A@@tr1@std@@_NVResizeEvent@app@cinder@@@tr1@std@@UBEABVtype_info@@XZ 004204b0 f i ThreeDeeApp.obj
 0001:0001f4c0       ?_Get@?$_Impl_no_alloc1@U?$_Callable_obj@V?$binder1st@V?$mem_fun1_t@_NVInterface@cinderpane@zugster@@VResizeEvent@app@cinder@@@std@@@std@@$0A@@tr1@std@@_NVResizeEvent@app@cinder@@@tr1@std@@EBEPBXXZ 004204c0 f i ThreeDeeApp.obj
 0001:0001f4c0       ?_Get@?$_Impl_no_alloc1@U?$_Callable_obj@V?$binder1st@V?$mem_fun1_t@_NVInterface@cinderpane@zugster@@VKeyEvent@app@cinder@@@std@@@std@@$0A@@tr1@std@@_NVKeyEvent@app@cinder@@@tr1@std@@EBEPBXXZ 004204c0 f i ThreeDeeApp.obj
 0001:0001f4d0       ?_Delete_this@?$_Impl_no_alloc1@U?$_Callable_obj@V?$binder1st@V?$mem_fun1_t@_NVEventDispatcher@cinderpane@zugster@@VKeyEvent@app@cinder@@@std@@@std@@$0A@@tr1@std@@_NVKeyEvent@app@cinder@@@tr1@std@@EAEX_N@Z 004204d0 f i ThreeDeeApp.obj
 0001:0001f4d0       ?_Delete_this@?$_Impl_no_alloc1@U?$_Callable_obj@V?$binder1st@V?$mem_fun1_t@_NVEventDispatcher@cinderpane@zugster@@VTouchEvent@app@cinder@@@std@@@std@@$0A@@tr1@std@@_NVTouchEvent@app@cinder@@@tr1@std@@EAEX_N@Z 004204d0 f i ThreeDeeApp.obj
 0001:0001f4d0       ?_Delete_this@?$_Impl_no_alloc1@U?$_Callable_obj@V?$binder1st@V?$mem_fun1_t@_NVInterface@cinderpane@zugster@@VResizeEvent@app@cinder@@@std@@@std@@$0A@@tr1@std@@_NVResizeEvent@app@cinder@@@tr1@std@@EAEX_N@Z 004204d0 f i ThreeDeeApp.obj
 0001:0001f4d0       ?_Delete_this@?$_Impl_no_alloc1@U?$_Callable_obj@V?$binder1st@V?$mem_fun1_t@_NVInterface@cinderpane@zugster@@VKeyEvent@app@cinder@@@std@@@std@@$0A@@tr1@std@@_NVKeyEvent@app@cinder@@@tr1@std@@EAEX_N@Z 004204d0 f i ThreeDeeApp.obj
 0001:0001f4d0       ?_Delete_this@?$_Impl_no_alloc1@U?$_Callable_obj@V?$binder1st@V?$mem_fun1_t@_NVEventDispatcher@cinderpane@zugster@@VMouseEvent@app@cinder@@@std@@@std@@$0A@@tr1@std@@_NVMouseEvent@app@cinder@@@tr1@std@@EAEX_N@Z 004204d0 f i ThreeDeeApp.obj
 0001:0001f500       ?_Copy@?$_Impl_no_alloc1@U?$_Callable_obj@V?$binder1st@V?$mem_fun1_t@_NVEventDispatcher@cinderpane@zugster@@VMouseEvent@app@cinder@@@std@@@std@@$0A@@tr1@std@@_NVMouseEvent@app@cinder@@@tr1@std@@UAEPAV?$_Impl_base1@_NVMouseEvent@app@cinder@@@23@PAX@Z 00420500 f i ThreeDeeApp.obj
 0001:0001f570       ?_Do_call@?$_Impl_no_alloc1@U?$_Callable_obj@V?$binder1st@V?$mem_fun1_t@_NVEventDispatcher@cinderpane@zugster@@VMouseEvent@app@cinder@@@std@@@std@@$0A@@tr1@std@@_NVMouseEvent@app@cinder@@@tr1@std@@UAE_NVMouseEvent@app@cinder@@@Z 00420570 f i ThreeDeeApp.obj
 0001:0001f5c0       ?_Target_type@?$_Impl_no_alloc1@U?$_Callable_obj@V?$binder1st@V?$mem_fun1_t@_NVEventDispatcher@cinderpane@zugster@@VMouseEvent@app@cinder@@@std@@@std@@$0A@@tr1@std@@_NVMouseEvent@app@cinder@@@tr1@std@@UBEABVtype_info@@XZ 004205c0 f i ThreeDeeApp.obj
 0001:0001f5d0       ?_Copy@?$_Impl_no_alloc1@U?$_Callable_obj@V?$binder1st@V?$mem_fun1_t@_NVEventDispatcher@cinderpane@zugster@@VKeyEvent@app@cinder@@@std@@@std@@$0A@@tr1@std@@_NVKeyEvent@app@cinder@@@tr1@std@@UAEPAV?$_Impl_base1@_NVKeyEvent@app@cinder@@@23@PAX@Z 004205d0 f i ThreeDeeApp.obj
 0001:0001f640       ?_Do_call@?$_Impl_no_alloc1@U?$_Callable_obj@V?$binder1st@V?$mem_fun1_t@_NVEventDispatcher@cinderpane@zugster@@VKeyEvent@app@cinder@@@std@@@std@@$0A@@tr1@std@@_NVKeyEvent@app@cinder@@@tr1@std@@UAE_NVKeyEvent@app@cinder@@@Z 00420640 f i ThreeDeeApp.obj
 0001:0001f6e0       ?_Target_type@?$_Impl_no_alloc1@U?$_Callable_obj@V?$binder1st@V?$mem_fun1_t@_NVEventDispatcher@cinderpane@zugster@@VKeyEvent@app@cinder@@@std@@@std@@$0A@@tr1@std@@_NVKeyEvent@app@cinder@@@tr1@std@@UBEABVtype_info@@XZ 004206e0 f i ThreeDeeApp.obj
 0001:0001f6f0       ?_Copy@?$_Impl_no_alloc1@U?$_Callable_obj@V?$binder1st@V?$mem_fun1_t@_NVEventDispatcher@cinderpane@zugster@@VTouchEvent@app@cinder@@@std@@@std@@$0A@@tr1@std@@_NVTouchEvent@app@cinder@@@tr1@std@@UAEPAV?$_Impl_base1@_NVTouchEvent@app@cinder@@@23@PAX@Z 004206f0 f i ThreeDeeApp.obj
 0001:0001f760       ?_Do_call@?$_Impl_no_alloc1@U?$_Callable_obj@V?$binder1st@V?$mem_fun1_t@_NVEventDispatcher@cinderpane@zugster@@VTouchEvent@app@cinder@@@std@@@std@@$0A@@tr1@std@@_NVTouchEvent@app@cinder@@@tr1@std@@UAE_NVTouchEvent@app@cinder@@@Z 00420760 f i ThreeDeeApp.obj
 0001:0001f7c0       ?_Target_type@?$_Impl_no_alloc1@U?$_Callable_obj@V?$binder1st@V?$mem_fun1_t@_NVEventDispatcher@cinderpane@zugster@@VTouchEvent@app@cinder@@@std@@@std@@$0A@@tr1@std@@_NVTouchEvent@app@cinder@@@tr1@std@@UBEABVtype_info@@XZ 004207c0 f i ThreeDeeApp.obj
 0001:0001f7d0       ?_Get@?$_Impl_no_alloc1@U?$_Callable_obj@V?$binder1st@V?$mem_fun1_t@_NVEventDispatcher@cinderpane@zugster@@VMouseEvent@app@cinder@@@std@@@std@@$0A@@tr1@std@@_NVMouseEvent@app@cinder@@@tr1@std@@EBEPBXXZ 004207d0 f i ThreeDeeApp.obj
 0001:0001f7d0       ?_Get@?$_Impl_no_alloc1@U?$_Callable_obj@V?$binder1st@V?$mem_fun1_t@_NVEventDispatcher@cinderpane@zugster@@VKeyEvent@app@cinder@@@std@@@std@@$0A@@tr1@std@@_NVKeyEvent@app@cinder@@@tr1@std@@EBEPBXXZ 004207d0 f i ThreeDeeApp.obj
 0001:0001f7d0       ?_Get@?$_Impl_no_alloc1@U?$_Callable_obj@V?$binder1st@V?$mem_fun1_t@_NVEventDispatcher@cinderpane@zugster@@VTouchEvent@app@cinder@@@std@@@std@@$0A@@tr1@std@@_NVTouchEvent@app@cinder@@@tr1@std@@EBEPBXXZ 004207d0 f i ThreeDeeApp.obj
 0001:0001f7e0       ??_E?$_Impl_no_alloc1@U?$_Callable_obj@V?$binder1st@V?$mem_fun1_t@_NVInterface@cinderpane@zugster@@VKeyEvent@app@cinder@@@std@@@std@@$0A@@tr1@std@@_NVKeyEvent@app@cinder@@@tr1@std@@UAEPAXI@Z 004207e0 f i  CIL library: CIL module
 0001:0001f7e0       ??_G?$_Impl_no_alloc1@U?$_Callable_obj@V?$binder1st@V?$mem_fun1_t@_NVEventDispatcher@cinderpane@zugster@@VKeyEvent@app@cinder@@@std@@@std@@$0A@@tr1@std@@_NVKeyEvent@app@cinder@@@tr1@std@@UAEPAXI@Z 004207e0 f i ThreeDeeApp.obj
 0001:0001f7e0       ??_E?$_Impl_no_alloc1@U?$_Callable_obj@V?$binder1st@V?$mem_fun1_t@_NVEventDispatcher@cinderpane@zugster@@VKeyEvent@app@cinder@@@std@@@std@@$0A@@tr1@std@@_NVKeyEvent@app@cinder@@@tr1@std@@UAEPAXI@Z 004207e0 f i  CIL library: CIL module
 0001:0001f7e0       ??_E?$_Impl_base1@_NVKeyEvent@app@cinder@@@tr1@std@@UAEPAXI@Z 004207e0 f i  CIL library: CIL module
 0001:0001f7e0       ??_G?$_Impl_base1@_NVKeyEvent@app@cinder@@@tr1@std@@UAEPAXI@Z 004207e0 f i ThreeDeeApp.obj
 0001:0001f7e0       ??_G?$_Impl_no_alloc1@U?$_Callable_obj@V?$binder1st@V?$mem_fun1_t@_NVInterface@cinderpane@zugster@@VKeyEvent@app@cinder@@@std@@@std@@$0A@@tr1@std@@_NVKeyEvent@app@cinder@@@tr1@std@@UAEPAXI@Z 004207e0 f i ThreeDeeApp.obj
 0001:0001f810       ??_E?$_Impl_no_alloc1@U?$_Callable_obj@V?$binder1st@V?$mem_fun1_t@_NVEventDispatcher@cinderpane@zugster@@VTouchEvent@app@cinder@@@std@@@std@@$0A@@tr1@std@@_NVTouchEvent@app@cinder@@@tr1@std@@UAEPAXI@Z 00420810 f i  CIL library: CIL module
 0001:0001f810       ??_E?$_Impl_base1@_NVTouchEvent@app@cinder@@@tr1@std@@UAEPAXI@Z 00420810 f i  CIL library: CIL module
 0001:0001f810       ??_G?$_Impl_base1@_NVTouchEvent@app@cinder@@@tr1@std@@UAEPAXI@Z 00420810 f i ThreeDeeApp.obj
 0001:0001f810       ??_G?$_Impl_no_alloc1@U?$_Callable_obj@V?$binder1st@V?$mem_fun1_t@_NVEventDispatcher@cinderpane@zugster@@VTouchEvent@app@cinder@@@std@@@std@@$0A@@tr1@std@@_NVTouchEvent@app@cinder@@@tr1@std@@UAEPAXI@Z 00420810 f i ThreeDeeApp.obj
 0001:0001f840       ??$_Unguarded_partition@PAD@std@@YA?AU?$pair@PADPAD@0@PAD0@Z 00420840 f i ThreeDeeApp.obj
 0001:0001f970       ??$?0U?$token_finderF@U?$is_any_ofF@D@detail@algorithm@boost@@@detail@algorithm@boost@@@?$function2@V?$iterator_range@V?$_String_const_iterator@DU?$char_traits@D@std@@V?$allocator@D@2@@std@@@boost@@V?$_String_const_iterator@DU?$char_traits@D@std@@V?$allocator@D@2@@std@@V34@@boost@@QAE@U?$token_finderF@U?$is_any_ofF@D@detail@algorithm@boost@@@detail@algorithm@1@H@Z 00420970 f i ThreeDeeApp.obj
 0001:0001fa20       ??$insert@V?$transform_iterator@U?$copy_iterator_rangeF@V?$basic_string@DU?$char_traits@D@std@@V?$allocator@D@2@@std@@V?$_String_const_iterator@DU?$char_traits@D@std@@V?$allocator@D@2@@2@@detail@algorithm@boost@@V?$split_iterator@V?$_String_const_iterator@DU?$char_traits@D@std@@V?$allocator@D@2@@std@@@34@Uuse_default@4@U64@@boost@@@?$vector@V?$basic_string@DU?$char_traits@D@std@@V?$allocator@D@2@@std@@V?$allocator@V?$basic_string@DU?$char_traits@D@std@@V?$allocator@D@2@@std@@@2@@std@@QAEXV?$_Vector_const_iterator@V?$_Vector_val@V?$basic_string@DU?$char_traits@D@std@@V?$allocator@D@2@@std@@V?$allocator@V?$basic_string@DU?$char_traits@D@std@@V?$allocator@D@2@@std@@@2@@std@@@1@V?$transform_iterator@U?$copy_iterator_rangeF@V?$basic_string@DU?$char_traits@D@std@@V?$allocator@D@2@@std@@V?$_String_const_iterator@DU?$char_traits@D@std@@V?$allocator@D@2@@2@@detail@algorithm@boost@@V?$split_iterator@V?$_String_const_iterator@DU?$char_traits@D@std@@V?$allocator@D@2@@std@@@34@Uuse_default@4@U64@@boost@@1@Z 00420a20 f i ThreeDeeApp.obj
 0001:0001faf0       ??$?5_N@?$lexical_stream_limited_src@DV?$basic_streambuf@DU?$char_traits@D@std@@@std@@U?$char_traits@D@2@@detail@boost@@QAE_NAA_N@Z 00420af0 f i ThreeDeeApp.obj
 0001:0001fbe0       ??$?5H@?$lexical_stream_limited_src@DV?$basic_streambuf@DU?$char_traits@D@std@@@std@@U?$char_traits@D@2@@detail@boost@@QAE_NAAH@Z 00420be0 f i ThreeDeeApp.obj
 0001:0001fcd0       ??$_Find_if@PBDU?$is_any_ofF@D@detail@algorithm@boost@@@std@@YAPBDPBD0U?$is_any_ofF@D@detail@algorithm@boost@@@Z 00420cd0 f i ThreeDeeApp.obj
 0001:0001fd60       ??$_Uninit_move@PAV?$basic_string@DU?$char_traits@D@std@@V?$allocator@D@2@@std@@PAV12@V?$allocator@V?$basic_string@DU?$char_traits@D@std@@V?$allocator@D@2@@std@@@2@V12@@std@@YAPAV?$basic_string@DU?$char_traits@D@std@@V?$allocator@D@2@@0@PAV10@00AAV?$allocator@V?$basic_string@DU?$char_traits@D@std@@V?$allocator@D@2@@std@@@0@0U_Nonscalar_ptr_iterator_tag@0@@Z 00420d60 f i ThreeDeeApp.obj
 0001:0001fe20       ??$throw_exception@Vbad_function_call@boost@@@boost@@YAXABVbad_function_call@0@@Z 00420e20 f i ThreeDeeApp.obj
 0001:0001fe80       ??0?$clone_impl@U?$error_info_injector@Vbad_function_call@boost@@@exception_detail@boost@@@exception_detail@boost@@QAE@ABV012@@Z 00420e80 f i ThreeDeeApp.obj
 0001:0001fec0       ??0?$error_info_injector@Vbad_function_call@boost@@@exception_detail@boost@@QAE@ABU012@@Z 00420ec0 f i ThreeDeeApp.obj
 0001:0001ff60       ??0bad_function_call@boost@@QAE@ABV01@@Z 00420f60 f i ThreeDeeApp.obj
 0001:0001ff80       ??_G?$clone_impl@U?$error_info_injector@Vbad_function_call@boost@@@exception_detail@boost@@@exception_detail@boost@@UAEPAXI@Z 00420f80 f i ThreeDeeApp.obj
 0001:0001ff80       ??_E?$clone_impl@U?$error_info_injector@Vbad_function_call@boost@@@exception_detail@boost@@@exception_detail@boost@@UAEPAXI@Z 00420f80 f i  CIL library: CIL module
 0001:0001ffe0       ??_E?$error_info_injector@Vbad_function_call@boost@@@exception_detail@boost@@UAEPAXI@Z 00420fe0 f i  CIL library: CIL module
 0001:0001ffe0       ??_G?$error_info_injector@Vbad_function_call@boost@@@exception_detail@boost@@UAEPAXI@Z 00420fe0 f i ThreeDeeApp.obj
 0001:00020030       ??5?$basic_istream@DU?$char_traits@D@std@@@std@@QAEAAV01@AA_N@Z 00421030 f i ThreeDeeApp.obj
 0001:000201d0       ??5?$basic_istream@DU?$char_traits@D@std@@@std@@QAEAAV01@AAH@Z 004211d0 f i ThreeDeeApp.obj
 0001:000203a0       ??R?$binder1st@V?$mem_fun1_t@_NVEventDispatcher@cinderpane@zugster@@VMouseEvent@app@cinder@@@std@@@std@@QBE_NAAVMouseEvent@app@cinder@@@Z 004213a0 f i ThreeDeeApp.obj
 0001:00020450       ??R?$binder1st@V?$mem_fun1_t@_NVEventDispatcher@cinderpane@zugster@@VTouchEvent@app@cinder@@@std@@@std@@QBE_NAAVTouchEvent@app@cinder@@@Z 00421450 f i ThreeDeeApp.obj
 0001:00020500       ??1?$error_info_injector@Vbad_function_call@boost@@@exception_detail@boost@@UAE@XZ 00421500 f i ThreeDeeApp.obj
 0001:00020540       ??1?$clone_impl@U?$error_info_injector@Vbad_function_call@boost@@@exception_detail@boost@@@exception_detail@boost@@UAE@XZ 00421540 f i ThreeDeeApp.obj
 0001:00020580       ?clone@?$clone_impl@U?$error_info_injector@Vbad_function_call@boost@@@exception_detail@boost@@@exception_detail@boost@@EBEPBVclone_base@23@XZ 00421580 f i ThreeDeeApp.obj
 0001:00020600       ?rethrow@?$clone_impl@U?$error_info_injector@Vbad_function_call@boost@@@exception_detail@boost@@@exception_detail@boost@@EBEXXZ 00421600 f i ThreeDeeApp.obj
 0001:000206a0       ??$_Median@PAD@std@@YAXPAD00@Z 004216a0 f i ThreeDeeApp.obj
 0001:000207c0       ??$_Make_heap@PADHD@std@@YAXPAD0PAH0@Z 004217c0 f i ThreeDeeApp.obj
 0001:00020880       ??$_Sort_heap@PAD@std@@YAXPAD0@Z 00421880 f i ThreeDeeApp.obj
 0001:000208c0       ??$_Insertion_sort1@PADD@std@@YAXPAD00@Z 004218c0 f i ThreeDeeApp.obj
 0001:00020930       ??$assign_to@U?$token_finderF@U?$is_any_ofF@D@detail@algorithm@boost@@@detail@algorithm@boost@@@?$function2@V?$iterator_range@V?$_String_const_iterator@DU?$char_traits@D@std@@V?$allocator@D@2@@std@@@boost@@V?$_String_const_iterator@DU?$char_traits@D@std@@V?$allocator@D@2@@std@@V34@@boost@@AAEXU?$token_finderF@U?$is_any_ofF@D@detail@algorithm@boost@@@detail@algorithm@1@@Z 00421930 f i ThreeDeeApp.obj
 0001:000209e0       ??$_Insert@V?$transform_iterator@U?$copy_iterator_rangeF@V?$basic_string@DU?$char_traits@D@std@@V?$allocator@D@2@@std@@V?$_String_const_iterator@DU?$char_traits@D@std@@V?$allocator@D@2@@2@@detail@algorithm@boost@@V?$split_iterator@V?$_String_const_iterator@DU?$char_traits@D@std@@V?$allocator@D@2@@std@@@34@Uuse_default@4@U64@@boost@@@?$vector@V?$basic_string@DU?$char_traits@D@std@@V?$allocator@D@2@@std@@V?$allocator@V?$basic_string@DU?$char_traits@D@std@@V?$allocator@D@2@@std@@@2@@std@@QAEXV?$_Vector_const_iterator@V?$_Vector_val@V?$basic_string@DU?$char_traits@D@std@@V?$allocator@D@2@@std@@V?$allocator@V?$basic_string@DU?$char_traits@D@std@@V?$allocator@D@2@@std@@@2@@std@@@1@V?$transform_iterator@U?$copy_iterator_rangeF@V?$basic_string@DU?$char_traits@D@std@@V?$allocator@D@2@@std@@V?$_String_const_iterator@DU?$char_traits@D@std@@V?$allocator@D@2@@2@@detail@algorithm@boost@@V?$split_iterator@V?$_String_const_iterator@DU?$char_traits@D@std@@V?$allocator@D@2@@std@@@34@Uuse_default@4@U64@@boost@@1Uinput_iterator_tag@1@@Z 004219e0 f i ThreeDeeApp.obj
 0001:00020c10       ??$_Uninit_copy@V?$_Vector_iterator@V?$_Vector_val@V?$shared_ptr@UIPart@gizmo@zugster@@@boost@@V?$allocator@V?$shared_ptr@UIPart@gizmo@zugster@@@boost@@@std@@@std@@@std@@PAV?$shared_ptr@UIPart@gizmo@zugster@@@boost@@V?$allocator@V?$shared_ptr@UIPart@gizmo@zugster@@@boost@@@2@@std@@YAPAV?$shared_ptr@UIPart@gizmo@zugster@@@boost@@V?$_Vector_iterator@V?$_Vector_val@V?$shared_ptr@UIPart@gizmo@zugster@@@boost@@V?$allocator@V?$shared_ptr@UIPart@gizmo@zugster@@@boost@@@std@@@std@@@0@0PAV12@AAV?$allocator@V?$shared_ptr@UIPart@gizmo@zugster@@@boost@@@0@U_Nonscalar_ptr_iterator_tag@0@@Z 00421c10 f i ThreeDeeApp.obj
 0001:00020c60       ??$_Rotate@PAV?$shared_ptr@UIPart@gizmo@zugster@@@boost@@HV12@@std@@YAXPAV?$shared_ptr@UIPart@gizmo@zugster@@@boost@@00PAH0@Z 00421c60 f i ThreeDeeApp.obj
 0001:00020d10       ??$enable_error_info@Vbad_function_call@boost@@@boost@@YA?AU?$error_info_injector@Vbad_function_call@boost@@@exception_detail@0@ABVbad_function_call@0@@Z 00421d10 f i ThreeDeeApp.obj
 0001:00020d50       ??$enable_current_exception@U?$error_info_injector@Vbad_function_call@boost@@@exception_detail@boost@@@boost@@YA?AV?$clone_impl@U?$error_info_injector@Vbad_function_call@boost@@@exception_detail@boost@@@exception_detail@0@ABU?$error_info_injector@Vbad_function_call@boost@@@20@@Z 00421d50 f i ThreeDeeApp.obj
 0001:00020de0       ??D?$iterator_facade@V?$transform_iterator@U?$copy_iterator_rangeF@V?$basic_string@DU?$char_traits@D@std@@V?$allocator@D@2@@std@@V?$_String_const_iterator@DU?$char_traits@D@std@@V?$allocator@D@2@@2@@detail@algorithm@boost@@V?$split_iterator@V?$_String_const_iterator@DU?$char_traits@D@std@@V?$allocator@D@2@@std@@@34@Uuse_default@4@U64@@boost@@V?$basic_string@DU?$char_traits@D@std@@V?$allocator@D@2@@std@@Uforward_traversal_tag@2@V34@H@boost@@QBE?AV?$basic_string@DU?$char_traits@D@std@@V?$allocator@D@2@@std@@XZ 00421de0 f i ThreeDeeApp.obj
 0001:00020e00       ?manage@?$functor_manager@U?$token_finderF@U?$is_any_ofF@D@detail@algorithm@boost@@@detail@algorithm@boost@@@function@detail@boost@@SAXABTfunction_buffer@234@AAT5234@W4functor_manager_operation_type@234@@Z 00421e00 f i ThreeDeeApp.obj
 0001:00020e30       ?invoke@?$function_obj_invoker2@U?$token_finderF@U?$is_any_ofF@D@detail@algorithm@boost@@@detail@algorithm@boost@@V?$iterator_range@V?$_String_const_iterator@DU?$char_traits@D@std@@V?$allocator@D@2@@std@@@4@V?$_String_const_iterator@DU?$char_traits@D@std@@V?$allocator@D@2@@std@@V67@@function@detail@boost@@SA?AV?$iterator_range@V?$_String_const_iterator@DU?$char_traits@D@std@@V?$allocator@D@2@@std@@@4@AATfunction_buffer@234@V?$_String_const_iterator@DU?$char_traits@D@std@@V?$allocator@D@2@@std@@1@Z 00421e30 f i ThreeDeeApp.obj
 0001:00020e50       ?manage_small@?$functor_manager_common@U?$token_finderF@U?$is_any_ofF@D@detail@algorithm@boost@@@detail@algorithm@boost@@@function@detail@boost@@SAXABTfunction_buffer@234@AAT5234@W4functor_manager_operation_type@234@@Z 00421e50 f i ThreeDeeApp.obj
 0001:00020f60       ??$_Adjust_heap@PADHD@std@@YAXPADHH$$QAD@Z 00421f60 f i ThreeDeeApp.obj
 0001:00020fe0       ??$assign_to@U?$token_finderF@U?$is_any_ofF@D@detail@algorithm@boost@@@detail@algorithm@boost@@@?$basic_vtable2@V?$iterator_range@V?$_String_const_iterator@DU?$char_traits@D@std@@V?$allocator@D@2@@std@@@boost@@V?$_String_const_iterator@DU?$char_traits@D@std@@V?$allocator@D@2@@std@@V34@@function@detail@boost@@QAE_NU?$token_finderF@U?$is_any_ofF@D@detail@algorithm@boost@@@2algorithm@3@AATfunction_buffer@123@@Z 00421fe0 f i ThreeDeeApp.obj
 0001:00021090       ??$dereference@V?$transform_iterator@U?$copy_iterator_rangeF@V?$basic_string@DU?$char_traits@D@std@@V?$allocator@D@2@@std@@V?$_String_const_iterator@DU?$char_traits@D@std@@V?$allocator@D@2@@2@@detail@algorithm@boost@@V?$split_iterator@V?$_String_const_iterator@DU?$char_traits@D@std@@V?$allocator@D@2@@std@@@34@Uuse_default@4@U64@@boost@@@iterator_core_access@boost@@CA?AV?$basic_string@DU?$char_traits@D@std@@V?$allocator@D@2@@std@@ABV?$transform_iterator@U?$copy_iterator_rangeF@V?$basic_string@DU?$char_traits@D@std@@V?$allocator@D@2@@std@@V?$_String_const_iterator@DU?$char_traits@D@std@@V?$allocator@D@2@@2@@detail@algorithm@boost@@V?$split_iterator@V?$_String_const_iterator@DU?$char_traits@D@std@@V?$allocator@D@2@@std@@@34@Uuse_default@4@U64@@1@@Z 00422090 f i ThreeDeeApp.obj
 0001:000210b0       ?dereference@?$transform_iterator@U?$copy_iterator_rangeF@V?$basic_string@DU?$char_traits@D@std@@V?$allocator@D@2@@std@@V?$_String_const_iterator@DU?$char_traits@D@std@@V?$allocator@D@2@@2@@detail@algorithm@boost@@V?$split_iterator@V?$_String_const_iterator@DU?$char_traits@D@std@@V?$allocator@D@2@@std@@@34@Uuse_default@4@U64@@boost@@ABE?AV?$basic_string@DU?$char_traits@D@std@@V?$allocator@D@2@@std@@XZ 004220b0 f i ThreeDeeApp.obj
 0001:000210d0       ??R?$copy_iterator_rangeF@V?$basic_string@DU?$char_traits@D@std@@V?$allocator@D@2@@std@@V?$_String_const_iterator@DU?$char_traits@D@std@@V?$allocator@D@2@@2@@detail@algorithm@boost@@QBE?AV?$basic_string@DU?$char_traits@D@std@@V?$allocator@D@2@@std@@ABV?$iterator_range@V?$_String_const_iterator@DU?$char_traits@D@std@@V?$allocator@D@2@@std@@@3@@Z 004220d0 f i ThreeDeeApp.obj
 0001:000210f0       ??$assign_to@U?$token_finderF@U?$is_any_ofF@D@detail@algorithm@boost@@@detail@algorithm@boost@@@?$basic_vtable2@V?$iterator_range@V?$_String_const_iterator@DU?$char_traits@D@std@@V?$allocator@D@2@@std@@@boost@@V?$_String_const_iterator@DU?$char_traits@D@std@@V?$allocator@D@2@@std@@V34@@function@detail@boost@@AAE_NU?$token_finderF@U?$is_any_ofF@D@detail@algorithm@boost@@@2algorithm@3@AATfunction_buffer@123@Ufunction_obj_tag@123@@Z 004220f0 f i ThreeDeeApp.obj
 0001:000211e0       ??$copy_range@V?$basic_string@DU?$char_traits@D@std@@V?$allocator@D@2@@std@@V?$iterator_range@V?$_String_const_iterator@DU?$char_traits@D@std@@V?$allocator@D@2@@std@@@boost@@@boost@@YA?AV?$basic_string@DU?$char_traits@D@std@@V?$allocator@D@2@@std@@ABV?$iterator_range@V?$_String_const_iterator@DU?$char_traits@D@std@@V?$allocator@D@2@@std@@@0@@Z 004221e0 f i ThreeDeeApp.obj
 0001:00021210       ??$assign_functor@U?$token_finderF@U?$is_any_ofF@D@detail@algorithm@boost@@@detail@algorithm@boost@@@?$basic_vtable2@V?$iterator_range@V?$_String_const_iterator@DU?$char_traits@D@std@@V?$allocator@D@2@@std@@@boost@@V?$_String_const_iterator@DU?$char_traits@D@std@@V?$allocator@D@2@@std@@V34@@function@detail@boost@@AAEXU?$token_finderF@U?$is_any_ofF@D@detail@algorithm@boost@@@2algorithm@3@AATfunction_buffer@123@U?$bool_@$00@mpl@3@@Z 00422210 f i ThreeDeeApp.obj
 0001:000212b0       ??$_Rotate@PAV?$basic_string@DU?$char_traits@D@std@@V?$allocator@D@2@@std@@HV12@@std@@YAXPAV?$basic_string@DU?$char_traits@D@std@@V?$allocator@D@2@@0@00PAH0@Z 004222b0 f i ThreeDeeApp.obj
 0001:00021440       ??$_Replace@PAD@?$basic_string@DU?$char_traits@D@std@@V?$allocator@D@2@@std@@QAEAAV01@V?$_String_const_iterator@DU?$char_traits@D@std@@V?$allocator@D@2@@1@0PAD1Uinput_iterator_tag@1@@Z 00422440 f i ThreeDeeApp.obj
 0001:00021500       ??$_Construct@PAD@?$basic_string@DU?$char_traits@D@std@@V?$allocator@D@2@@std@@QAEXPAD0Uforward_iterator_tag@1@@Z 00422500 f i ThreeDeeApp.obj
 0001:00021670       ?reserve@?$basic_string@DU?$char_traits@D@std@@V?$allocator@D@2@@std@@QAEXI@Z 00422670 f i ThreeDeeApp.obj
 0001:000216b0       ?equal@?$split_iterator@V?$_String_const_iterator@DU?$char_traits@D@std@@V?$allocator@D@2@@std@@@algorithm@boost@@ABE_NABV123@@Z 004226b0 f i ThreeDeeApp.obj
 0001:00021730       ??_ECustomFn@gizmo@zugster@@$4PPPPPPPM@7AEPAXI@Z 00422730 f i ThreeDeeApp.obj
 0001:00021740       ?renderGizmo@ContextRestore@gizmo@zugster@@$4PPPPPPPM@A@AEXAAVGizmoContext@23@@Z 00422740 f i ThreeDeeApp.obj
 0001:00021750       ?setPosition@PositionableBase@cinderpane@zugster@@$4PPPPPPPM@EM@AEXABV?$Vec2@M@cinder@@@Z 00422750 f i ThreeDeeApp.obj
 0001:00021760       ??_ERadialLinesPart@gizmo@zugster@@$4PPPPPPPM@BA@AEPAXI@Z 00422760 f i ThreeDeeApp.obj
 0001:00021770       ??_EPerimeterPart@gizmo@zugster@@$4PPPPPPPM@A@AEPAXI@Z 00422770 f i ThreeDeeApp.obj
 0001:00021780       ?setVisible@PositionableBase@cinderpane@zugster@@$4PPPPPPPM@FE@AEX_N@Z 00422780 f i ThreeDeeApp.obj
 0001:00021790       ??_EIPart@gizmo@zugster@@W7AEPAXI@Z 00422790 f i ThreeDeeApp.obj
 0001:000217a0       ??_E?$clone_impl@U?$error_info_injector@Vbad_function_call@boost@@@exception_detail@boost@@@exception_detail@boost@@WM@AEPAXI@Z 004227a0 f i ThreeDeeApp.obj
 0001:000217b0       ?morph@PositionableBase@cinderpane@zugster@@$4PPPPPPPM@BE@AEXABV?$Vec2@M@cinder@@@Z 004227b0 f i ThreeDeeApp.obj
 0001:000217c0       ?setSize@PositionableBase@cinderpane@zugster@@$4PPPPPPPM@BM@AEXABV?$Vec2@M@cinder@@@Z 004227c0 f i ThreeDeeApp.obj
 0001:000217d0       ??_ECompositePart@gizmo@zugster@@$4PPPPPPPM@7AEPAXI@Z 004227d0 f i ThreeDeeApp.obj
 0001:000217e0       ?loadXML@PartBase@gizmo@zugster@@$4PPPPPPPM@A@AEXABVXmlTree@cinder@@ABV?$shared_ptr@UIPartFactory@gizmo@zugster@@@boost@@@Z 004227e0 f i ThreeDeeApp.obj
 0001:000217f0       ?setPosition@PositionableBase@cinderpane@zugster@@$4PPPPPPPM@BA@AEXABV?$Vec2@M@cinder@@@Z 004227f0 f i ThreeDeeApp.obj
 0001:00021800       ?storeXML@ContextSave@gizmo@zugster@@$4PPPPPPPM@A@BEXAAV?$basic_ostream@DU?$char_traits@D@std@@@std@@@Z 00422800 f i ThreeDeeApp.obj
 0001:00021810       ?move@PositionableBase@cinderpane@zugster@@$4PPPPPPPM@BM@AEXABV?$Vec2@M@cinder@@@Z 00422810 f i ThreeDeeApp.obj
 0001:00021820       ??_ESetLinewidth@gizmo@zugster@@$4PPPPPPPM@BA@AEPAXI@Z 00422820 f i ThreeDeeApp.obj
 0001:00021830       ?loadXML@ContextSave@gizmo@zugster@@$4PPPPPPPM@A@AEXABVXmlTree@cinder@@ABV?$shared_ptr@UIPartFactory@gizmo@zugster@@@boost@@@Z 00422830 f i ThreeDeeApp.obj
 0001:00021830       ?loadXML@CustomFn@gizmo@zugster@@$4PPPPPPPM@A@AEXABVXmlTree@cinder@@ABV?$shared_ptr@UIPartFactory@gizmo@zugster@@@boost@@@Z 00422830 f i ThreeDeeApp.obj
 0001:00021830       ?loadXML@ContextRestore@gizmo@zugster@@$4PPPPPPPM@A@AEXABVXmlTree@cinder@@ABV?$shared_ptr@UIPartFactory@gizmo@zugster@@@boost@@@Z 00422830 f i ThreeDeeApp.obj
 0001:00021830       ?loadXML@RegularPolygonPart@gizmo@zugster@@$4PPPPPPPM@A@AEXABVXmlTree@cinder@@ABV?$shared_ptr@UIPartFactory@gizmo@zugster@@@boost@@@Z 00422830 f i ThreeDeeApp.obj
 0001:00021840       ??_EGridPart@gizmo@zugster@@$4PPPPPPPM@BA@AEPAXI@Z 00422840 f i ThreeDeeApp.obj
 0001:00021850       ?setSize@PositionableBase@cinderpane@zugster@@$4PPPPPPPM@DM@AEXABV?$Vec2@M@cinder@@@Z 00422850 f i ThreeDeeApp.obj
 0001:00021860       ??_ESegmentedFilledArcPart@gizmo@zugster@@$4PPPPPPPM@7AEPAXI@Z 00422860 f i ThreeDeeApp.obj
 0001:00021870       ?morph@PositionableBase@cinderpane@zugster@@$4PPPPPPPM@DE@AEXABV?$Vec2@M@cinder@@@Z 00422870 f i ThreeDeeApp.obj
 0001:00021880       ??_E?$clone_impl@U?$error_info_injector@Vbad_lexical_cast@boost@@@exception_detail@boost@@@exception_detail@boost@@WCI@AEPAXI@Z 00422880 f i ThreeDeeApp.obj
 0001:00021890       ?isVisible@PositionableBase@cinderpane@zugster@@$4PPPPPPPM@BM@BE_NXZ 00422890 f i ThreeDeeApp.obj
 0001:000218a0       ?renderGizmo@SetLinewidth@gizmo@zugster@@$4PPPPPPPM@A@AEXAAVGizmoContext@23@@Z 004228a0 f i ThreeDeeApp.obj
 0001:000218b0       ??_ERegularPolygonPart@gizmo@zugster@@$4PPPPPPPM@BA@AEPAXI@Z 004228b0 f i ThreeDeeApp.obj
 0001:000218c0       ?loadXML@RadialLinesPart@gizmo@zugster@@$4PPPPPPPM@A@AEXABVXmlTree@cinder@@ABV?$shared_ptr@UIPartFactory@gizmo@zugster@@@boost@@@Z 004228c0 f i ThreeDeeApp.obj
 0001:000218d0       ?renderGizmo@GridPart@gizmo@zugster@@$4PPPPPPPM@A@AEXAAVGizmoContext@23@@Z 004228d0 f i ThreeDeeApp.obj
 0001:000218e0       ?move@PositionableBase@cinderpane@zugster@@$4PPPPPPPM@DM@AEXABV?$Vec2@M@cinder@@@Z 004228e0 f i ThreeDeeApp.obj
 0001:000218f0       ?setSize@PositionableBase@cinderpane@zugster@@$4PPPPPPPM@FM@AEXABV?$Vec2@M@cinder@@@Z 004228f0 f i ThreeDeeApp.obj
 0001:00021900       ?morph@PositionableBase@cinderpane@zugster@@$4PPPPPPPM@FE@AEXABV?$Vec2@M@cinder@@@Z 00422900 f i ThreeDeeApp.obj
 0001:00021910       ?getBounds@PositionableBase@cinderpane@zugster@@$4PPPPPPPM@EE@BE?AV?$RectT@M@cinder@@XZ 00422910 f i ThreeDeeApp.obj
 0001:00021920       ?getSize@PositionableBase@cinderpane@zugster@@$4PPPPPPPM@EE@BE?AV?$Vec2@M@cinder@@XZ 00422920 f i ThreeDeeApp.obj
 0001:00021930       ??_EGizmo@gizmo@zugster@@$4PPPPPPPM@BA@AEPAXI@Z 00422930 f i ThreeDeeApp.obj
 0001:00021940       ?getPosition@PositionableBase@cinderpane@zugster@@$4PPPPPPPM@BM@BE?AV?$Vec2@M@cinder@@XZ 00422940 f i ThreeDeeApp.obj
 0001:00021950       ?renderGizmo@RegularPolygonPart@gizmo@zugster@@$4PPPPPPPM@A@AEXAAVGizmoContext@23@@Z 00422950 f i ThreeDeeApp.obj
 0001:00021960       ?updateGizmo@PartBase@gizmo@zugster@@$4PPPPPPPM@BI@AEXXZ 00422960 f i ThreeDeeApp.obj
 0001:00021970       ?isVisible@PositionableBase@cinderpane@zugster@@$4PPPPPPPM@DM@BE_NXZ 00422970 f i ThreeDeeApp.obj
 0001:00021980       ?storeXML@RectanglePart@gizmo@zugster@@$4PPPPPPPM@A@BEXAAV?$basic_ostream@DU?$char_traits@D@std@@@std@@@Z 00422980 f i ThreeDeeApp.obj
 0001:00021990       ??_EGradientCirclePart@gizmo@zugster@@$4PPPPPPPM@A@AEPAXI@Z 00422990 f i ThreeDeeApp.obj
 0001:000219a0       ?getBounds@PositionableBase@cinderpane@zugster@@$4PPPPPPPM@GE@BE?AV?$RectT@M@cinder@@XZ 004229a0 f i ThreeDeeApp.obj
 0001:000219b0       ?getSize@PositionableBase@cinderpane@zugster@@$4PPPPPPPM@GE@BE?AV?$Vec2@M@cinder@@XZ 004229b0 f i ThreeDeeApp.obj
 0001:000219c0       ?move@PositionableBase@cinderpane@zugster@@$4PPPPPPPM@FM@AEXABV?$Vec2@M@cinder@@@Z 004229c0 f i ThreeDeeApp.obj
 0001:000219d0       ??_EFilledArcPart@gizmo@zugster@@$4PPPPPPPM@A@AEPAXI@Z 004229d0 f i ThreeDeeApp.obj
 0001:000219e0       ??_EArcPart@gizmo@zugster@@$4PPPPPPPM@7AEPAXI@Z 004229e0 f i ThreeDeeApp.obj
 0001:000219f0       ?setSize@PositionableBase@cinderpane@zugster@@$4PPPPPPPM@A@AEXABV?$Vec2@M@cinder@@@Z 004229f0 f i ThreeDeeApp.obj
 0001:00021a00       ??_9EventDispatcher@cinderpane@zugster@@$BA@AE 00422a00 f i ThreeDeeApp.obj
 0001:00021a10       ?getBounds@PositionableBase@cinderpane@zugster@@$4PPPPPPPM@7BE?AV?$RectT@M@cinder@@XZ 00422a10 f i ThreeDeeApp.obj
 0001:00021a20       ?getSize@PositionableBase@cinderpane@zugster@@$4PPPPPPPM@7BE?AV?$Vec2@M@cinder@@XZ 00422a20 f i ThreeDeeApp.obj
 0001:00021a30       ?loadXML@SetLinewidth@gizmo@zugster@@$4PPPPPPPM@A@AEXABVXmlTree@cinder@@ABV?$shared_ptr@UIPartFactory@gizmo@zugster@@@boost@@@Z 00422a30 f i ThreeDeeApp.obj
 0001:00021a40       ?renderGizmo@RadialLinesPart@gizmo@zugster@@$4PPPPPPPM@A@AEXAAVGizmoContext@23@@Z 00422a40 f i ThreeDeeApp.obj
 0001:00021a50       ?loadXML@GridPart@gizmo@zugster@@$4PPPPPPPM@A@AEXABVXmlTree@cinder@@ABV?$shared_ptr@UIPartFactory@gizmo@zugster@@@boost@@@Z 00422a50 f i ThreeDeeApp.obj
 0001:00021a60       ?getPosition@PositionableBase@cinderpane@zugster@@$4PPPPPPPM@DM@BE?AV?$Vec2@M@cinder@@XZ 00422a60 f i ThreeDeeApp.obj
 0001:00021a70       ?isVisible@PositionableBase@cinderpane@zugster@@$4PPPPPPPM@FM@BE_NXZ 00422a70 f i ThreeDeeApp.obj
 0001:00021a80       ?move@PositionableBase@cinderpane@zugster@@$4PPPPPPPM@A@AEXABV?$Vec2@M@cinder@@@Z 00422a80 f i ThreeDeeApp.obj
 0001:00021a90       ??_9EventDispatcher@cinderpane@zugster@@$BBA@AE 00422a90 f i ThreeDeeApp.obj
 0001:00021aa0       ?setPosition@PositionableBase@cinderpane@zugster@@$4PPPPPPPM@BE@AEXABV?$Vec2@M@cinder@@@Z 00422aa0 f i ThreeDeeApp.obj
 0001:00021ab0       ?setVisible@PositionableBase@cinderpane@zugster@@$4PPPPPPPM@BM@AEX_N@Z 00422ab0 f i ThreeDeeApp.obj
 0001:00021ac0       ??_ECirclePart@gizmo@zugster@@$4PPPPPPPM@7AEPAXI@Z 00422ac0 f i ThreeDeeApp.obj
 0001:00021ad0       ?getPosition@PositionableBase@cinderpane@zugster@@$4PPPPPPPM@FM@BE?AV?$Vec2@M@cinder@@XZ 00422ad0 f i ThreeDeeApp.obj
 0001:00021ae0       ?isVisible@PositionableBase@cinderpane@zugster@@$4PPPPPPPM@A@BE_NXZ 00422ae0 f i ThreeDeeApp.obj
 0001:00021af0       ??_9EventDispatcher@cinderpane@zugster@@$BCA@AE 00422af0 f i ThreeDeeApp.obj
 0001:00021b00       ?setVisible@PositionableBase@cinderpane@zugster@@$4PPPPPPPM@DM@AEX_N@Z 00422b00 f i ThreeDeeApp.obj
 0001:00021b10       ?setPosition@PositionableBase@cinderpane@zugster@@$4PPPPPPPM@DE@AEXABV?$Vec2@M@cinder@@@Z 00422b10 f i ThreeDeeApp.obj
 0001:00021b20       ?getPosition@PositionableBase@cinderpane@zugster@@$4PPPPPPPM@A@BE?AV?$Vec2@M@cinder@@XZ 00422b20 f i ThreeDeeApp.obj
 0001:00021b30       ??_ECustomFn@gizmo@zugster@@$4PPPPPPPM@BA@AEPAXI@Z 00422b30 f i ThreeDeeApp.obj
 0001:00021b40       ??_EPerimeterPart@gizmo@zugster@@$4PPPPPPPM@7AEPAXI@Z 00422b40 f i ThreeDeeApp.obj
 0001:00021b50       ?setVisible@PositionableBase@cinderpane@zugster@@$4PPPPPPPM@FM@AEX_N@Z 00422b50 f i ThreeDeeApp.obj
 0001:00021b60       ?setPosition@PositionableBase@cinderpane@zugster@@$4PPPPPPPM@FE@AEXABV?$Vec2@M@cinder@@@Z 00422b60 f i ThreeDeeApp.obj
 0001:00021b70       ?renderGizmo@Gizmo@gizmo@zugster@@$4PPPPPPPM@A@AEXAAVGizmoContext@23@@Z 00422b70 f i ThreeDeeApp.obj
 0001:00021b80       ?renderGizmo@CustomFn@gizmo@zugster@@$4PPPPPPPM@A@AEXAAVGizmoContext@23@@Z 00422b80 f i ThreeDeeApp.obj
 0001:00021b90       ?storeXML@ContextRestore@gizmo@zugster@@$4PPPPPPPM@A@BEXAAV?$basic_ostream@DU?$char_traits@D@std@@@std@@@Z 00422b90 f i ThreeDeeApp.obj
 0001:00021ba0       ?morph@PositionableBase@cinderpane@zugster@@$4PPPPPPPM@BM@AEXABV?$Vec2@M@cinder@@@Z 00422ba0 f i ThreeDeeApp.obj
 0001:00021bb0       ??_ERectanglePart@gizmo@zugster@@$4PPPPPPPM@A@AEPAXI@Z 00422bb0 f i ThreeDeeApp.obj
 0001:00021bc0       ?loadXML@SegmentedFilledArcPart@gizmo@zugster@@$4PPPPPPPM@A@AEXABVXmlTree@cinder@@ABV?$shared_ptr@UIPartFactory@gizmo@zugster@@@boost@@@Z 00422bc0 f i ThreeDeeApp.obj
 0001:00021bd0       ??_ECompositePart@gizmo@zugster@@$4PPPPPPPM@BA@AEPAXI@Z 00422bd0 f i ThreeDeeApp.obj
 0001:00021be0       ?getBounds@PositionableBase@cinderpane@zugster@@$4PPPPPPPM@M@BE?AV?$RectT@M@cinder@@XZ 00422be0 f i ThreeDeeApp.obj
 0001:00021bf0       ?getSize@PositionableBase@cinderpane@zugster@@$4PPPPPPPM@M@BE?AV?$Vec2@M@cinder@@XZ 00422bf0 f i ThreeDeeApp.obj
 0001:00021c00       ??_ECommandBase@gizmo@zugster@@$4PPPPPPPM@A@AEPAXI@Z 00422c00 f i ThreeDeeApp.obj
 0001:00021c10       ?setVisible@PositionableBase@cinderpane@zugster@@$4PPPPPPPM@A@AEX_N@Z 00422c10 f i ThreeDeeApp.obj
 0001:00021c20       ??_E?$error_info_injector@Vbad_function_call@boost@@@exception_detail@boost@@WM@AEPAXI@Z 00422c20 f i ThreeDeeApp.obj
 0001:00021c30       ??_EContextSave@gizmo@zugster@@$4PPPPPPPM@A@AEPAXI@Z 00422c30 f i ThreeDeeApp.obj
 0001:00021c30       ??_EContextRestore@gizmo@zugster@@$4PPPPPPPM@A@AEPAXI@Z 00422c30 f i ThreeDeeApp.obj
 0001:00021c40       ?morph@PositionableBase@cinderpane@zugster@@$4PPPPPPPM@DM@AEXABV?$Vec2@M@cinder@@@Z 00422c40 f i ThreeDeeApp.obj
 0001:00021c50       ??_ESegmentedFilledArcPart@gizmo@zugster@@$4PPPPPPPM@BA@AEPAXI@Z 00422c50 f i ThreeDeeApp.obj
 0001:00021c60       ?setSize@PositionableBase@cinderpane@zugster@@$4PPPPPPPM@EE@AEXABV?$Vec2@M@cinder@@@Z 00422c60 f i ThreeDeeApp.obj
 0001:00021c70       ?renderGizmo@CompositePart@gizmo@zugster@@$4PPPPPPPM@A@AEXAAVGizmoContext@23@@Z 00422c70 f i ThreeDeeApp.obj
 0001:00021c80       ?updateGizmo@CommandBase@gizmo@zugster@@$4PPPPPPPM@3AEXXZ 00422c80 f i ThreeDeeApp.obj
 0001:00021c90       ?getBounds@PositionableBase@cinderpane@zugster@@$4PPPPPPPM@EM@BE?AV?$RectT@M@cinder@@XZ 00422c90 f i ThreeDeeApp.obj
 0001:00021ca0       ?getSize@PositionableBase@cinderpane@zugster@@$4PPPPPPPM@EM@BE?AV?$Vec2@M@cinder@@XZ 00422ca0 f i ThreeDeeApp.obj
 0001:00021cb0       ?setSize@PositionableBase@cinderpane@zugster@@$4PPPPPPPM@GE@AEXABV?$Vec2@M@cinder@@@Z 00422cb0 f i ThreeDeeApp.obj
 0001:00021cc0       ?renderGizmo@SegmentedFilledArcPart@gizmo@zugster@@$4PPPPPPPM@A@AEXAAVGizmoContext@23@@Z 00422cc0 f i ThreeDeeApp.obj
 0001:00021cd0       ?morph@PositionableBase@cinderpane@zugster@@$4PPPPPPPM@FM@AEXABV?$Vec2@M@cinder@@@Z 00422cd0 f i ThreeDeeApp.obj
 0001:00021ce0       ?move@PositionableBase@cinderpane@zugster@@$4PPPPPPPM@EE@AEXABV?$Vec2@M@cinder@@@Z 00422ce0 f i ThreeDeeApp.obj
 0001:00021cf0       ?updateGizmo@PartBase@gizmo@zugster@@$4PPPPPPPM@A@AEXXZ 00422cf0 f i ThreeDeeApp.obj
 0001:00021d00       ?setSize@PositionableBase@cinderpane@zugster@@$4PPPPPPPM@7AEXABV?$Vec2@M@cinder@@@Z 00422d00 f i ThreeDeeApp.obj
 0001:00021d10       ??_EGradientCirclePart@gizmo@zugster@@$4PPPPPPPM@7AEPAXI@Z 00422d10 f i ThreeDeeApp.obj
 0001:00021d20       ?move@PositionableBase@cinderpane@zugster@@$4PPPPPPPM@GE@AEXABV?$Vec2@M@cinder@@@Z 00422d20 f i ThreeDeeApp.obj
 0001:00021d30       ??_EFilledArcPart@gizmo@zugster@@$4PPPPPPPM@7AEPAXI@Z 00422d30 f i ThreeDeeApp.obj
 0001:00021d40       ??_EArcPart@gizmo@zugster@@$4PPPPPPPM@BA@AEPAXI@Z 00422d40 f i ThreeDeeApp.obj
 0001:00021d50       ?updateGizmo@PartBase@gizmo@zugster@@$4PPPPPPPM@CA@AEXXZ 00422d50 f i ThreeDeeApp.obj
 0001:00021d60       ?isVisible@PositionableBase@cinderpane@zugster@@$4PPPPPPPM@EE@BE_NXZ 00422d60 f i ThreeDeeApp.obj
 0001:00021d70       ?loadXML@CompositePart@gizmo@zugster@@$4PPPPPPPM@A@AEXABVXmlTree@cinder@@ABV?$shared_ptr@UIPartFactory@gizmo@zugster@@@boost@@@Z 00422d70 f i ThreeDeeApp.obj
 0001:00021d80       ?morph@PositionableBase@cinderpane@zugster@@$4PPPPPPPM@A@AEXABV?$Vec2@M@cinder@@@Z 00422d80 f i ThreeDeeApp.obj
 0001:00021d90       ??_9EventDispatcher@cinderpane@zugster@@$B3AE 00422d90 f i ThreeDeeApp.obj
 0001:00021da0       ??_EGizmoPane@gizmo@zugster@@$4PPPPPPPM@A@AEPAXI@Z 00422da0 f i ThreeDeeApp.obj
 0001:00021db0       ?move@PositionableBase@cinderpane@zugster@@$4PPPPPPPM@7AEXABV?$Vec2@M@cinder@@@Z 00422db0 f i ThreeDeeApp.obj
 0001:00021dc0       ?getBounds@PositionableBase@cinderpane@zugster@@$4PPPPPPPM@BA@BE?AV?$RectT@M@cinder@@XZ 00422dc0 f i ThreeDeeApp.obj
 0001:00021dd0       ?getSize@PositionableBase@cinderpane@zugster@@$4PPPPPPPM@BA@BE?AV?$Vec2@M@cinder@@XZ 00422dd0 f i ThreeDeeApp.obj
 0001:00021de0       ?storeXML@RegularPolygonPart@gizmo@zugster@@$4PPPPPPPM@A@BEXAAV?$basic_ostream@DU?$char_traits@D@std@@@std@@@Z 00422de0 f i ThreeDeeApp.obj
 0001:00021df0       ?isVisible@PositionableBase@cinderpane@zugster@@$4PPPPPPPM@GE@BE_NXZ 00422df0 f i ThreeDeeApp.obj
 0001:00021e00       ?renderGizmo@ArcPart@gizmo@zugster@@$4PPPPPPPM@A@AEXAAVGizmoContext@23@@Z 00422e00 f i ThreeDeeApp.obj
 0001:00021e10       ?getPosition@PositionableBase@cinderpane@zugster@@$4PPPPPPPM@EE@BE?AV?$Vec2@M@cinder@@XZ 00422e10 f i ThreeDeeApp.obj
 0001:00021e20       ??_EPartBase@gizmo@zugster@@$4PPPPPPPM@A@AEPAXI@Z 00422e20 f i ThreeDeeApp.obj
 0001:00021e30       ??_E?$clone_impl@U?$error_info_injector@Vbad_lexical_cast@boost@@@exception_detail@boost@@@exception_detail@boost@@WBE@AEPAXI@Z 00422e30 f i ThreeDeeApp.obj
 0001:00021e40       ?isVisible@PositionableBase@cinderpane@zugster@@$4PPPPPPPM@7BE_NXZ 00422e40 f i ThreeDeeApp.obj
 0001:00021e50       ??_EPaneBase@cinderpane@zugster@@$4PPPPPPPM@A@AEPAXI@Z 00422e50 f i ThreeDeeApp.obj
 0001:00021e60       ?setPosition@PositionableBase@cinderpane@zugster@@$4PPPPPPPM@BM@AEXABV?$Vec2@M@cinder@@@Z 00422e60 f i ThreeDeeApp.obj
 0001:00021e70       ??_ECirclePart@gizmo@zugster@@$4PPPPPPPM@BA@AEPAXI@Z 00422e70 f i ThreeDeeApp.obj
 0001:00021e80       ?storeXML@RadialLinesPart@gizmo@zugster@@$4PPPPPPPM@A@BEXAAV?$basic_ostream@DU?$char_traits@D@std@@@std@@@Z 00422e80 f i ThreeDeeApp.obj
 0001:00021e90       ?getPosition@PositionableBase@cinderpane@zugster@@$4PPPPPPPM@GE@BE?AV?$Vec2@M@cinder@@XZ 00422e90 f i ThreeDeeApp.obj
 0001:00021ea0       ??_ECommandBase@gizmo@zugster@@W3AEPAXI@Z 00422ea0 f i ThreeDeeApp.obj
 0001:00021eb0       ??_9EventDispatcher@cinderpane@zugster@@$BCE@AE 00422eb0 f i ThreeDeeApp.obj
 0001:00021ec0       ?getPosition@PositionableBase@cinderpane@zugster@@$4PPPPPPPM@7BE?AV?$Vec2@M@cinder@@XZ 00422ec0 f i ThreeDeeApp.obj
 0001:00021ed0       ??_EContextSave@gizmo@zugster@@$4PPPPPPPM@7AEPAXI@Z 00422ed0 f i ThreeDeeApp.obj
 0001:00021ed0       ??_EContextRestore@gizmo@zugster@@$4PPPPPPPM@7AEPAXI@Z 00422ed0 f i ThreeDeeApp.obj
 0001:00021ee0       ?renderGizmo@CirclePart@gizmo@zugster@@$4PPPPPPPM@A@AEXAAVGizmoContext@23@@Z 00422ee0 f i ThreeDeeApp.obj
 0001:00021ef0       ??_ERadialLinesPart@gizmo@zugster@@$4PPPPPPPM@A@AEPAXI@Z 00422ef0 f i ThreeDeeApp.obj
 0001:00021f00       ?updateGizmo@CommandBase@gizmo@zugster@@$4PPPPPPPM@A@AEXXZ 00422f00 f i ThreeDeeApp.obj
 0001:00021f00       ?updateGizmo@GridPart@gizmo@zugster@@$4PPPPPPPM@A@AEXXZ 00422f00 f i ThreeDeeApp.obj
 0001:00021f10       ?setPosition@PositionableBase@cinderpane@zugster@@$4PPPPPPPM@DM@AEXABV?$Vec2@M@cinder@@@Z 00422f10 f i ThreeDeeApp.obj
 0001:00021f20       ?loadXML@ArcPart@gizmo@zugster@@$4PPPPPPPM@A@AEXABVXmlTree@cinder@@ABV?$shared_ptr@UIPartFactory@gizmo@zugster@@@boost@@@Z 00422f20 f i ThreeDeeApp.obj
 0001:00021f30       ?setVisible@PositionableBase@cinderpane@zugster@@$4PPPPPPPM@EE@AEX_N@Z 00422f30 f i ThreeDeeApp.obj
 0001:00021f40       ?storeXML@SetLinewidth@gizmo@zugster@@$4PPPPPPPM@A@BEXAAV?$basic_ostream@DU?$char_traits@D@std@@@std@@@Z 00422f40 f i ThreeDeeApp.obj
 0001:00021f50       ?storeXML@GridPart@gizmo@zugster@@$4PPPPPPPM@A@BEXAAV?$basic_ostream@DU?$char_traits@D@std@@@std@@@Z 00422f50 f i ThreeDeeApp.obj
 0001:00021f60       ??_EPerimeterPart@gizmo@zugster@@$4PPPPPPPM@BA@AEPAXI@Z 00422f60 f i ThreeDeeApp.obj
 0001:00021f70       ?setVisible@PositionableBase@cinderpane@zugster@@$4PPPPPPPM@GE@AEX_N@Z 00422f70 f i ThreeDeeApp.obj
 0001:00021f80       ?setPosition@PositionableBase@cinderpane@zugster@@$4PPPPPPPM@FM@AEXABV?$Vec2@M@cinder@@@Z 00422f80 f i ThreeDeeApp.obj
 0001:00021f90       ?setSize@PositionableBase@cinderpane@zugster@@$4PPPPPPPM@M@AEXABV?$Vec2@M@cinder@@@Z 00422f90 f i ThreeDeeApp.obj
 0001:00021fa0       ?setVisible@PositionableBase@cinderpane@zugster@@$4PPPPPPPM@7AEX_N@Z 00422fa0 f i ThreeDeeApp.obj
 0001:00021fb0       ?getBounds@PositionableBase@cinderpane@zugster@@$4PPPPPPPM@BE@BE?AV?$RectT@M@cinder@@XZ 00422fb0 f i ThreeDeeApp.obj
 0001:00021fc0       ?getSize@PositionableBase@cinderpane@zugster@@$4PPPPPPPM@BE@BE?AV?$Vec2@M@cinder@@XZ 00422fc0 f i ThreeDeeApp.obj
 0001:00021fd0       ??_ESetLinewidth@gizmo@zugster@@$4PPPPPPPM@A@AEPAXI@Z 00422fd0 f i ThreeDeeApp.obj
 0001:00021fe0       ?loadXML@CirclePart@gizmo@zugster@@$4PPPPPPPM@A@AEXABVXmlTree@cinder@@ABV?$shared_ptr@UIPartFactory@gizmo@zugster@@@boost@@@Z 00422fe0 f i ThreeDeeApp.obj
 0001:00021ff0       ??_EGridPart@gizmo@zugster@@$4PPPPPPPM@A@AEPAXI@Z 00422ff0 f i ThreeDeeApp.obj
 0001:00022000       ??_ERectanglePart@gizmo@zugster@@$4PPPPPPPM@7AEPAXI@Z 00423000 f i ThreeDeeApp.obj
 0001:00022010       ?renderGizmo@PerimeterPart@gizmo@zugster@@$4PPPPPPPM@A@AEXAAVGizmoContext@23@@Z 00423010 f i ThreeDeeApp.obj
 0001:00022020       ?move@PositionableBase@cinderpane@zugster@@$4PPPPPPPM@M@AEXABV?$Vec2@M@cinder@@@Z 00423020 f i ThreeDeeApp.obj
 0001:00022030       ?setPosition@PositionableBase@cinderpane@zugster@@$4PPPPPPPM@A@AEXABV?$Vec2@M@cinder@@@Z 00423030 f i ThreeDeeApp.obj
 0001:00022040       ??_EPositionableBase@cinderpane@zugster@@$4PPPPPPPM@A@AEPAXI@Z 00423040 f i ThreeDeeApp.obj
 0001:00022050       ?storeXML@Gizmo@gizmo@zugster@@$4PPPPPPPM@A@BEXAAV?$basic_ostream@DU?$char_traits@D@std@@@std@@@Z 00423050 f i ThreeDeeApp.obj
 0001:00022060       ?storeXML@CustomFn@gizmo@zugster@@$4PPPPPPPM@A@BEXAAV?$basic_ostream@DU?$char_traits@D@std@@@std@@@Z 00423060 f i ThreeDeeApp.obj
 0001:00022060       ?renderGizmo@PartBase@gizmo@zugster@@$4PPPPPPPM@A@AEXAAVGizmoContext@23@@Z 00423060 f i ThreeDeeApp.obj
 0001:00022070       ??_ERegularPolygonPart@gizmo@zugster@@$4PPPPPPPM@A@AEPAXI@Z 00423070 f i ThreeDeeApp.obj
 0001:00022080       ?setSize@PositionableBase@cinderpane@zugster@@$4PPPPPPPM@EM@AEXABV?$Vec2@M@cinder@@@Z 00423080 f i ThreeDeeApp.obj
 0001:00022090       ?morph@PositionableBase@cinderpane@zugster@@$4PPPPPPPM@EE@AEXABV?$Vec2@M@cinder@@@Z 00423090 f i ThreeDeeApp.obj
 0001:000220a0       ?getBounds@PositionableBase@cinderpane@zugster@@$4PPPPPPPM@DE@BE?AV?$RectT@M@cinder@@XZ 004230a0 f i ThreeDeeApp.obj
 0001:000220b0       ?getSize@PositionableBase@cinderpane@zugster@@$4PPPPPPPM@DE@BE?AV?$Vec2@M@cinder@@XZ 004230b0 f i ThreeDeeApp.obj
 0001:000220c0       ?isVisible@PositionableBase@cinderpane@zugster@@$4PPPPPPPM@M@BE_NXZ 004230c0 f i ThreeDeeApp.obj
 0001:000220d0       ??_EGizmo@gizmo@zugster@@$4PPPPPPPM@A@AEPAXI@Z 004230d0 f i ThreeDeeApp.obj
 0001:000220e0       ?updateGizmo@CommandBase@gizmo@zugster@@$4PPPPPPPM@M@AEXXZ 004230e0 f i ThreeDeeApp.obj
 0001:000220f0       ?move@PositionableBase@cinderpane@zugster@@$4PPPPPPPM@EM@AEXABV?$Vec2@M@cinder@@@Z 004230f0 f i ThreeDeeApp.obj
 0001:00022100       ?updateGizmo@PartBase@gizmo@zugster@@$4PPPPPPPM@7AEXXZ 00423100 f i ThreeDeeApp.obj
 0001:00022110       ?loadXML@GradientCirclePart@gizmo@zugster@@$4PPPPPPPM@A@AEXABVXmlTree@cinder@@ABV?$shared_ptr@UIPartFactory@gizmo@zugster@@@boost@@@Z 00423110 f i ThreeDeeApp.obj
 0001:00022120       ?loadXML@PerimeterPart@gizmo@zugster@@$4PPPPPPPM@A@AEXABVXmlTree@cinder@@ABV?$shared_ptr@UIPartFactory@gizmo@zugster@@@boost@@@Z 00423120 f i ThreeDeeApp.obj
 0001:00022130       ?morph@PositionableBase@cinderpane@zugster@@$4PPPPPPPM@GE@AEXABV?$Vec2@M@cinder@@@Z 00423130 f i ThreeDeeApp.obj
 0001:00022140       ?loadXML@FilledArcPart@gizmo@zugster@@$4PPPPPPPM@A@AEXABVXmlTree@cinder@@ABV?$shared_ptr@UIPartFactory@gizmo@zugster@@@boost@@@Z 00423140 f i ThreeDeeApp.obj
 0001:00022150       ?getBounds@PositionableBase@cinderpane@zugster@@$4PPPPPPPM@FE@BE?AV?$RectT@M@cinder@@XZ 00423150 f i ThreeDeeApp.obj
 0001:00022160       ?getSize@PositionableBase@cinderpane@zugster@@$4PPPPPPPM@FE@BE?AV?$Vec2@M@cinder@@XZ 00423160 f i ThreeDeeApp.obj
 0001:00022170       ?getPosition@PositionableBase@cinderpane@zugster@@$4PPPPPPPM@M@BE?AV?$Vec2@M@cinder@@XZ 00423170 f i ThreeDeeApp.obj
 0001:00022180       ?morph@PositionableBase@cinderpane@zugster@@$4PPPPPPPM@7AEXABV?$Vec2@M@cinder@@@Z 00423180 f i ThreeDeeApp.obj
 0001:00022190       ?setSize@PositionableBase@cinderpane@zugster@@$4PPPPPPPM@BA@AEXABV?$Vec2@M@cinder@@@Z 00423190 f i ThreeDeeApp.obj
 0001:000221a0       ?isVisible@PositionableBase@cinderpane@zugster@@$4PPPPPPPM@EM@BE_NXZ 004231a0 f i ThreeDeeApp.obj
 0001:000221b0       ??_EGradientCirclePart@gizmo@zugster@@$4PPPPPPPM@BA@AEPAXI@Z 004231b0 f i ThreeDeeApp.obj
 0001:000221c0       ?storeXML@SegmentedFilledArcPart@gizmo@zugster@@$4PPPPPPPM@A@BEXAAV?$basic_ostream@DU?$char_traits@D@std@@@std@@@Z 004231c0 f i ThreeDeeApp.obj
 0001:000221d0       ??_EFilledArcPart@gizmo@zugster@@$4PPPPPPPM@BA@AEPAXI@Z 004231d0 f i ThreeDeeApp.obj
 0001:000221e0       ?updateGizmo@PartBase@gizmo@zugster@@$4PPPPPPPM@CI@AEXXZ 004231e0 f i ThreeDeeApp.obj
 0001:000221f0       ??_9EventDispatcher@cinderpane@zugster@@$B7AE 004231f0 f i ThreeDeeApp.obj
 0001:00022200       ??_E?$clone_impl@U?$error_info_injector@Vbad_function_call@boost@@@exception_detail@boost@@@exception_detail@boost@@WCA@AEPAXI@Z 00423200 f i ThreeDeeApp.obj
 0001:00022210       ?move@PositionableBase@cinderpane@zugster@@$4PPPPPPPM@BA@AEXABV?$Vec2@M@cinder@@@Z 00423210 f i ThreeDeeApp.obj
 0001:00022220       ?getPosition@PositionableBase@cinderpane@zugster@@$4PPPPPPPM@EM@BE?AV?$Vec2@M@cinder@@XZ 00423220 f i ThreeDeeApp.obj
 0001:00022230       ?renderGizmo@GradientCirclePart@gizmo@zugster@@$4PPPPPPPM@A@AEXAAVGizmoContext@23@@Z 00423230 f i ThreeDeeApp.obj
 0001:00022240       ?renderGizmo@FilledArcPart@gizmo@zugster@@$4PPPPPPPM@A@AEXAAVGizmoContext@23@@Z 00423240 f i ThreeDeeApp.obj
 0001:00022250       ??_EPartBase@gizmo@zugster@@$4PPPPPPPM@7AEPAXI@Z 00423250 f i ThreeDeeApp.obj
 0001:00022260       ?setVisible@PositionableBase@cinderpane@zugster@@$4PPPPPPPM@M@AEX_N@Z 00423260 f i ThreeDeeApp.obj
 0001:00022270       ??_ECommandBase@gizmo@zugster@@$4PPPPPPPM@M@AEPAXI@Z 00423270 f i ThreeDeeApp.obj
 0001:00022280       ?isVisible@PositionableBase@cinderpane@zugster@@$4PPPPPPPM@BA@BE_NXZ 00423280 f i ThreeDeeApp.obj
 0001:00022290       ?updateGizmo@CompositePart@gizmo@zugster@@$4PPPPPPPM@A@AEXXZ 00423290 f i ThreeDeeApp.obj
 0001:000222a0       ??_9EventDispatcher@cinderpane@zugster@@$BCI@AE 004232a0 f i ThreeDeeApp.obj
 0001:000222b0       ??_ECustomFn@gizmo@zugster@@$4PPPPPPPM@A@AEPAXI@Z 004232b0 f i ThreeDeeApp.obj
 0001:000222c0       ?getPosition@PositionableBase@cinderpane@zugster@@$4PPPPPPPM@BA@BE?AV?$Vec2@M@cinder@@XZ 004232c0 f i ThreeDeeApp.obj
 0001:000222d0       ??_EContextRestore@gizmo@zugster@@$4PPPPPPPM@BA@AEPAXI@Z 004232d0 f i ThreeDeeApp.obj
 0001:000222d0       ??_EContextSave@gizmo@zugster@@$4PPPPPPPM@BA@AEPAXI@Z 004232d0 f i ThreeDeeApp.obj
 0001:000222e0       ?setVisible@PositionableBase@cinderpane@zugster@@$4PPPPPPPM@EM@AEX_N@Z 004232e0 f i ThreeDeeApp.obj
 0001:000222f0       ??_ERadialLinesPart@gizmo@zugster@@$4PPPPPPPM@7AEPAXI@Z 004232f0 f i ThreeDeeApp.obj
 0001:00022300       ?setPosition@PositionableBase@cinderpane@zugster@@$4PPPPPPPM@EE@AEXABV?$Vec2@M@cinder@@@Z 00423300 f i ThreeDeeApp.obj
 0001:00022310       ?storeXML@CompositePart@gizmo@zugster@@$4PPPPPPPM@A@BEXAAV?$basic_ostream@DU?$char_traits@D@std@@@std@@@Z 00423310 f i ThreeDeeApp.obj
 0001:00022320       ?setSize@PositionableBase@cinderpane@zugster@@$4PPPPPPPM@BE@AEXABV?$Vec2@M@cinder@@@Z 00423320 f i ThreeDeeApp.obj
 0001:00022330       ?renderGizmo@ContextSave@gizmo@zugster@@$4PPPPPPPM@A@AEXAAVGizmoContext@23@@Z 00423330 f i ThreeDeeApp.obj
 0001:00022340       ?loadXML@RectanglePart@gizmo@zugster@@$4PPPPPPPM@A@AEXABVXmlTree@cinder@@ABV?$shared_ptr@UIPartFactory@gizmo@zugster@@@boost@@@Z 00423340 f i ThreeDeeApp.obj
 0001:00022350       ?setPosition@PositionableBase@cinderpane@zugster@@$4PPPPPPPM@GE@AEXABV?$Vec2@M@cinder@@@Z 00423350 f i ThreeDeeApp.obj
 0001:00022360       ??_ECompositePart@gizmo@zugster@@$4PPPPPPPM@A@AEPAXI@Z 00423360 f i ThreeDeeApp.obj
 0001:00022370       ?morph@PositionableBase@cinderpane@zugster@@$4PPPPPPPM@M@AEXABV?$Vec2@M@cinder@@@Z 00423370 f i ThreeDeeApp.obj
 0001:00022380       ?setPosition@PositionableBase@cinderpane@zugster@@$4PPPPPPPM@7AEXABV?$Vec2@M@cinder@@@Z 00423380 f i ThreeDeeApp.obj
 0001:00022390       ?move@PositionableBase@cinderpane@zugster@@$4PPPPPPPM@BE@AEXABV?$Vec2@M@cinder@@@Z 00423390 f i ThreeDeeApp.obj
 0001:000223a0       ?setVisible@PositionableBase@cinderpane@zugster@@$4PPPPPPPM@BA@AEX_N@Z 004233a0 f i ThreeDeeApp.obj
 0001:000223b0       ?getBounds@PositionableBase@cinderpane@zugster@@$4PPPPPPPM@BM@BE?AV?$RectT@M@cinder@@XZ 004233b0 f i ThreeDeeApp.obj
 0001:000223c0       ?getSize@PositionableBase@cinderpane@zugster@@$4PPPPPPPM@BM@BE?AV?$Vec2@M@cinder@@XZ 004233c0 f i ThreeDeeApp.obj
 0001:000223d0       ??_ESetLinewidth@gizmo@zugster@@$4PPPPPPPM@7AEPAXI@Z 004233d0 f i ThreeDeeApp.obj
 0001:000223e0       ??_EGridPart@gizmo@zugster@@$4PPPPPPPM@7AEPAXI@Z 004233e0 f i ThreeDeeApp.obj
 0001:000223f0       ??_ERectanglePart@gizmo@zugster@@$4PPPPPPPM@BA@AEPAXI@Z 004233f0 f i ThreeDeeApp.obj
 0001:00022400       ??_ESegmentedFilledArcPart@gizmo@zugster@@$4PPPPPPPM@A@AEPAXI@Z 00423400 f i ThreeDeeApp.obj
 0001:00022410       ?setSize@PositionableBase@cinderpane@zugster@@$4PPPPPPPM@DE@AEXABV?$Vec2@M@cinder@@@Z 00423410 f i ThreeDeeApp.obj
 0001:00022420       ?isVisible@PositionableBase@cinderpane@zugster@@$4PPPPPPPM@BE@BE_NXZ 00423420 f i ThreeDeeApp.obj
 0001:00022430       ??_ERegularPolygonPart@gizmo@zugster@@$4PPPPPPPM@7AEPAXI@Z 00423430 f i ThreeDeeApp.obj
 0001:00022440       ?morph@PositionableBase@cinderpane@zugster@@$4PPPPPPPM@EM@AEXABV?$Vec2@M@cinder@@@Z 00423440 f i ThreeDeeApp.obj
 0001:00022450       ?getBounds@PositionableBase@cinderpane@zugster@@$4PPPPPPPM@DM@BE?AV?$RectT@M@cinder@@XZ 00423450 f i ThreeDeeApp.obj
 0001:00022460       ?getSize@PositionableBase@cinderpane@zugster@@$4PPPPPPPM@DM@BE?AV?$Vec2@M@cinder@@XZ 00423460 f i ThreeDeeApp.obj
 0001:00022470       ?renderGizmo@RectanglePart@gizmo@zugster@@$4PPPPPPPM@A@AEXAAVGizmoContext@23@@Z 00423470 f i ThreeDeeApp.obj
 0001:00022480       ?setSize@PositionableBase@cinderpane@zugster@@$4PPPPPPPM@FE@AEXABV?$Vec2@M@cinder@@@Z 00423480 f i ThreeDeeApp.obj
 0001:00022490       ?storeXML@ArcPart@gizmo@zugster@@$4PPPPPPPM@A@BEXAAV?$basic_ostream@DU?$char_traits@D@std@@@std@@@Z 00423490 f i ThreeDeeApp.obj
 0001:000224a0       ?move@PositionableBase@cinderpane@zugster@@$4PPPPPPPM@DE@AEXABV?$Vec2@M@cinder@@@Z 004234a0 f i ThreeDeeApp.obj
 0001:000224b0       ??_EGizmo@gizmo@zugster@@$4PPPPPPPM@7AEPAXI@Z 004234b0 f i ThreeDeeApp.obj
 0001:000224c0       ?getPosition@PositionableBase@cinderpane@zugster@@$4PPPPPPPM@BE@BE?AV?$Vec2@M@cinder@@XZ 004234c0 f i ThreeDeeApp.obj
 0001:000224d0       ?getBounds@PositionableBase@cinderpane@zugster@@$4PPPPPPPM@FM@BE?AV?$RectT@M@cinder@@XZ 004234d0 f i ThreeDeeApp.obj
 0001:000224e0       ?getSize@PositionableBase@cinderpane@zugster@@$4PPPPPPPM@FM@BE?AV?$Vec2@M@cinder@@XZ 004234e0 f i ThreeDeeApp.obj
 0001:000224f0       ?move@PositionableBase@cinderpane@zugster@@$4PPPPPPPM@FE@AEXABV?$Vec2@M@cinder@@@Z 004234f0 f i ThreeDeeApp.obj
 0001:00022500       ??_EArcPart@gizmo@zugster@@$4PPPPPPPM@A@AEPAXI@Z 00423500 f i ThreeDeeApp.obj
 0001:00022510       ?isVisible@PositionableBase@cinderpane@zugster@@$4PPPPPPPM@DE@BE_NXZ 00423510 f i ThreeDeeApp.obj
 0001:00022520       ??_EIPart@gizmo@zugster@@W3AEPAXI@Z 00423520 f i ThreeDeeApp.obj
 0001:00022530       ?morph@PositionableBase@cinderpane@zugster@@$4PPPPPPPM@BA@AEXABV?$Vec2@M@cinder@@@Z 00423530 f i ThreeDeeApp.obj
 0001:00022540       ?storeXML@CirclePart@gizmo@zugster@@$4PPPPPPPM@A@BEXAAV?$basic_ostream@DU?$char_traits@D@std@@@std@@@Z 00423540 f i ThreeDeeApp.obj
 0001:00022550       ?updateGizmo@PartBase@gizmo@zugster@@$4PPPPPPPM@DA@AEXXZ 00423550 f i ThreeDeeApp.obj
 0001:00022560       ?isVisible@PositionableBase@cinderpane@zugster@@$4PPPPPPPM@FE@BE_NXZ 00423560 f i ThreeDeeApp.obj
 0001:00022570       ?getPosition@PositionableBase@cinderpane@zugster@@$4PPPPPPPM@DE@BE?AV?$Vec2@M@cinder@@XZ 00423570 f i ThreeDeeApp.obj
 0001:00022580       ?getBounds@PositionableBase@cinderpane@zugster@@$4PPPPPPPM@A@BE?AV?$RectT@M@cinder@@XZ 00423580 f i ThreeDeeApp.obj
 0001:00022590       ?getSize@PositionableBase@cinderpane@zugster@@$4PPPPPPPM@A@BE?AV?$Vec2@M@cinder@@XZ 00423590 f i ThreeDeeApp.obj
 0001:000225a0       ??_9EventDispatcher@cinderpane@zugster@@$BM@AE 004235a0 f i ThreeDeeApp.obj
 0001:000225b0       ?setVisible@PositionableBase@cinderpane@zugster@@$4PPPPPPPM@BE@AEX_N@Z 004235b0 f i ThreeDeeApp.obj
 0001:000225c0       ??_ECirclePart@gizmo@zugster@@$4PPPPPPPM@A@AEPAXI@Z 004235c0 f i ThreeDeeApp.obj
 0001:000225d0       ?updateGizmo@PerimeterPart@gizmo@zugster@@$4PPPPPPPM@A@AEXXZ 004235d0 f i ThreeDeeApp.obj
 0001:000225e0       ?getPosition@PositionableBase@cinderpane@zugster@@$4PPPPPPPM@FE@BE?AV?$Vec2@M@cinder@@XZ 004235e0 f i ThreeDeeApp.obj
 0001:000225f0       ??_EPartBase@gizmo@zugster@@$4PPPPPPPM@BA@AEPAXI@Z 004235f0 f i ThreeDeeApp.obj
 0001:00022600       ?setPosition@PositionableBase@cinderpane@zugster@@$4PPPPPPPM@M@AEXABV?$Vec2@M@cinder@@@Z 00423600 f i ThreeDeeApp.obj
 0001:00022610       ??_E?$error_info_injector@Vbad_lexical_cast@boost@@@exception_detail@boost@@WBE@AEPAXI@Z 00423610 f i ThreeDeeApp.obj
 0001:00022620       ?storeXML@GradientCirclePart@gizmo@zugster@@$4PPPPPPPM@A@BEXAAV?$basic_ostream@DU?$char_traits@D@std@@@std@@@Z 00423620 f i ThreeDeeApp.obj
 0001:00022630       ?storeXML@PerimeterPart@gizmo@zugster@@$4PPPPPPPM@A@BEXAAV?$basic_ostream@DU?$char_traits@D@std@@@std@@@Z 00423630 f i ThreeDeeApp.obj
 0001:00022640       ?storeXML@FilledArcPart@gizmo@zugster@@$4PPPPPPPM@A@BEXAAV?$basic_ostream@DU?$char_traits@D@std@@@std@@@Z 00423640 f i ThreeDeeApp.obj
 0001:00022650       ?setVisible@PositionableBase@cinderpane@zugster@@$4PPPPPPPM@DE@AEX_N@Z 00423650 f i ThreeDeeApp.obj
 0001:00022660       ?set@?$AreaT@H@cinder@@QAEXHHHH@Z 00423660 f i cinder:Area.obj
 0001:000226a0       ??0logic_error@std@@QAE@ABV01@@Z 004236a0 f i cinder:Area.obj
 0001:000226c0       _wmemset                   004236c0 f i cinder:Utilities.obj
 0001:00022700       ?find@?$basic_string@DU?$traits_extension@U?$char_traits@D@std@@@tokenizer_detail@boost@@V?$allocator@D@std@@@std@@QBEIPBDII@Z 00423700 f i cinder:Utilities.obj
 0001:000227b0       ?_Chassign@?$basic_string@_WU?$char_traits@_W@std@@V?$allocator@_W@2@@std@@QAEXII_W@Z 004237b0 f i cinder:Utilities.obj
 0001:00022810       ?rfind@?$basic_string@DU?$char_traits@D@std@@V?$allocator@D@2@@std@@QBEIPBDII@Z 00423810 f i cinder:Utilities.obj
 0001:000228a0       ?_Tidy@?$basic_string@_WU?$char_traits@_W@std@@V?$allocator@_W@2@@std@@QAEX_NI@Z 004238a0 f i cinder:Utilities.obj
 0001:000228f0       ?erase@?$basic_string@_WU?$char_traits@_W@std@@V?$allocator@_W@2@@std@@QAEAAV12@II@Z 004238f0 f i cinder:Utilities.obj
 0001:00022980       ?allocate@?$allocator@_W@std@@QAEPA_WI@Z 00423980 f i cinder:Utilities.obj
 0001:000229e0       ?createDirectories@cinder@@YA_NABV?$basic_string@DU?$char_traits@D@std@@V?$allocator@D@2@@std@@_N@Z 004239e0 f   cinder:Utilities.obj
 0001:00022a10       ??1?$basic_string@_WU?$char_traits@_W@std@@V?$allocator@_W@2@@std@@QAE@XZ 00423a10 f i cinder:Utilities.obj
 0001:00022a40       ?erase@?$basic_string@DU?$char_traits@D@std@@V?$allocator@D@2@@std@@QAEAAV12@II@Z 00423a40 f i ThreeDeeApp.obj
 0001:00022a40       ?erase@?$basic_string@DU?$traits_extension@U?$char_traits@D@std@@@tokenizer_detail@boost@@V?$allocator@D@std@@@std@@QAEAAV12@II@Z 00423a40 f i cinder:Utilities.obj
 0001:00022ad0       ?_Copy@?$basic_string@_WU?$char_traits@_W@std@@V?$allocator@_W@2@@std@@QAEXII@Z 00423ad0 f i cinder:Utilities.obj
 0001:00022c50       ?_Copy@?$basic_string@DU?$traits_extension@U?$char_traits@D@std@@@tokenizer_detail@boost@@V?$allocator@D@std@@@std@@QAEXII@Z 00423c50 f i cinder:Utilities.obj
 0001:00022dc0       ?is_dropped@?$char_separator@DU?$char_traits@D@std@@@boost@@ABE_ND@Z 00423dc0 f i cinder:Utilities.obj
 0001:00022e10       ?_Grow@?$basic_string@_WU?$char_traits@_W@std@@V?$allocator@_W@2@@std@@QAE_NI_N@Z 00423e10 f i cinder:Utilities.obj
 0001:00022ed0       ?reserve@?$vector@_WV?$allocator@_W@std@@@std@@QAEXI@Z 00423ed0 f i cinder:Utilities.obj
 0001:00022f50       ?reserve@?$vector@DV?$allocator@D@std@@@std@@QAEXI@Z 00423f50 f i cinder:Utilities.obj
 0001:00022fc0       ?append@?$basic_string@_WU?$char_traits@_W@std@@V?$allocator@_W@2@@std@@QAEAAV12@I_W@Z 00423fc0 f i cinder:Utilities.obj
 0001:00023080       ??1?$char_separator@DU?$char_traits@D@std@@@boost@@QAE@XZ 00424080 f i cinder:Utilities.obj
 0001:000230d0       ??1?$tokenizer@V?$char_separator@DU?$char_traits@D@std@@@boost@@V?$_String_const_iterator@DU?$char_traits@D@std@@V?$allocator@D@2@@std@@V?$basic_string@DU?$char_traits@D@std@@V?$allocator@D@2@@4@@boost@@QAE@XZ 004240d0 f i cinder:Utilities.obj
 0001:00023120       ??1?$token_iterator@V?$char_separator@DU?$char_traits@D@std@@@boost@@V?$_String_const_iterator@DU?$char_traits@D@std@@V?$allocator@D@2@@std@@V?$basic_string@DU?$char_traits@D@std@@V?$allocator@D@2@@4@@boost@@QAE@XZ 00424120 f i cinder:Utilities.obj
 0001:00023190       ??1?$vector@V?$_List_const_iterator@V?$_List_val@VXmlTree@cinder@@V?$allocator@VXmlTree@cinder@@@std@@@std@@@std@@V?$allocator@V?$_List_const_iterator@V?$_List_val@VXmlTree@cinder@@V?$allocator@VXmlTree@cinder@@@std@@@std@@@std@@@2@@std@@QAE@XZ 00424190 f i ThreeDeeApp.obj
 0001:00023190       ??1?$vector@DV?$allocator@D@std@@@std@@QAE@XZ 00424190 f i cinder:Utilities.obj
 0001:00023190       ??1?$vector@IV?$allocator@I@std@@@std@@QAE@XZ 00424190 f i cinder:Fbo.obj
 0001:00023190       ?_Tidy@?$vector@VTouch@TouchEvent@app@cinder@@V?$allocator@VTouch@TouchEvent@app@cinder@@@std@@@std@@IAEXXZ 00424190 f i ThreeDeeApp.obj
 0001:00023190       ??1?$vector@VTouch@TouchEvent@app@cinder@@V?$allocator@VTouch@TouchEvent@app@cinder@@@std@@@std@@QAE@XZ 00424190 f i ThreeDeeApp.obj
 0001:00023190       ?_Tidy@?$vector@PBV?$list@VXmlTree@cinder@@V?$allocator@VXmlTree@cinder@@@std@@@std@@V?$allocator@PBV?$list@VXmlTree@cinder@@V?$allocator@VXmlTree@cinder@@@std@@@std@@@2@@std@@IAEXXZ 00424190 f i ThreeDeeApp.obj
 0001:00023190       ??1?$vector@_WV?$allocator@_W@std@@@std@@QAE@XZ 00424190 f i cinder:Utilities.obj
 0001:00023190       ??1?$vector@PBV?$list@VXmlTree@cinder@@V?$allocator@VXmlTree@cinder@@@std@@@std@@V?$allocator@PBV?$list@VXmlTree@cinder@@V?$allocator@VXmlTree@cinder@@@std@@@std@@@2@@std@@QAE@XZ 00424190 f i ThreeDeeApp.obj
 0001:00023190       ?_Tidy@?$vector@V?$_List_const_iterator@V?$_List_val@VXmlTree@cinder@@V?$allocator@VXmlTree@cinder@@@std@@@std@@@std@@V?$allocator@V?$_List_const_iterator@V?$_List_val@VXmlTree@cinder@@V?$allocator@VXmlTree@cinder@@@std@@@std@@@std@@@2@@std@@IAEXXZ 00424190 f i ThreeDeeApp.obj
 0001:000231c0       ?assign@?$basic_string@_WU?$char_traits@_W@std@@V?$allocator@_W@2@@std@@QAEAAV12@ABV12@II@Z 004241c0 f i cinder:Utilities.obj
 0001:000232c0       ?assign@?$basic_string@DU?$traits_extension@U?$char_traits@D@std@@@tokenizer_detail@boost@@V?$allocator@D@std@@@std@@QAEAAV12@ABV12@II@Z 004242c0 f i cinder:Utilities.obj
 0001:000233b0       ?replace@?$basic_string@DU?$char_traits@D@std@@V?$allocator@D@2@@std@@QAEAAV12@IIPBDI@Z 004243b0 f i cinder:Utilities.obj
 0001:00023580       ?assign@?$basic_string@_WU?$char_traits@_W@std@@V?$allocator@_W@2@@std@@QAEAAV12@PB_WI@Z 00424580 f i cinder:Utilities.obj
 0001:00023670       ?_Reserve@?$vector@_WV?$allocator@_W@std@@@std@@IAEXI@Z 00424670 f i cinder:Utilities.obj
 0001:000236d0       ?_Reserve@?$vector@DV?$allocator@D@std@@@std@@IAEXI@Z 004246d0 f i cinder:Utilities.obj
 0001:00023730       ?assign@?$basic_string@DU?$traits_extension@U?$char_traits@D@std@@@tokenizer_detail@boost@@V?$allocator@D@std@@@std@@QAEAAV12@PBDI@Z 00424730 f i cinder:Utilities.obj
 0001:00023830       ?replace@?$basic_string@DU?$char_traits@D@std@@V?$allocator@D@2@@std@@QAEAAV12@V?$_String_const_iterator@DU?$char_traits@D@std@@V?$allocator@D@2@@2@000@Z 00424830 f i cinder:Utilities.obj
 0001:000238c0       ?resize@?$vector@_WV?$allocator@_W@std@@@std@@QAEXI@Z 004248c0 f i cinder:Utilities.obj
 0001:00023950       ?resize@?$vector@DV?$allocator@D@std@@@std@@QAEXI@Z 00424950 f i cinder:Utilities.obj
 0001:000239c0       ??0?$char_separator@DU?$char_traits@D@std@@@boost@@QAE@ABV01@@Z 004249c0 f i cinder:Utilities.obj
 0001:00023a60       ?substr@?$basic_string@DU?$char_traits@D@std@@V?$allocator@D@2@@std@@QBE?AV12@II@Z 00424a60 f i cinder:Utilities.obj
 0001:00023aa0       ??0?$basic_string@_WU?$char_traits@_W@std@@V?$allocator@_W@2@@std@@QAE@PB_W@Z 00424aa0 f i cinder:Utilities.obj
 0001:00023af0       ?getPathDirectory@cinder@@YA?AV?$basic_string@DU?$char_traits@D@std@@V?$allocator@D@2@@std@@ABV23@@Z 00424af0 f   cinder:Utilities.obj
 0001:00023b60       ?getPathExtension@cinder@@YA?AV?$basic_string@DU?$char_traits@D@std@@V?$allocator@D@2@@std@@ABV23@@Z 00424b60 f   cinder:Utilities.obj
 0001:00023be0       ?toUtf16@cinder@@YA?AV?$basic_string@_WU?$char_traits@_W@std@@V?$allocator@_W@2@@std@@ABV?$basic_string@DU?$char_traits@D@std@@V?$allocator@D@2@@3@@Z 00424be0 f   cinder:Utilities.obj
 0001:00023d10       ?toUtf8@cinder@@YA?AV?$basic_string@DU?$char_traits@D@std@@V?$allocator@D@2@@std@@ABV?$basic_string@_WU?$char_traits@_W@std@@V?$allocator@_W@2@@3@@Z 00424d10 f   cinder:Utilities.obj
 0001:00023e50       ??$?RV?$_String_const_iterator@DU?$char_traits@D@std@@V?$allocator@D@2@@std@@V?$basic_string@DU?$char_traits@D@std@@V?$allocator@D@2@@1@@?$char_separator@DU?$char_traits@D@std@@@boost@@QAE_NAAV?$_String_const_iterator@DU?$char_traits@D@std@@V?$allocator@D@2@@std@@V23@AAV?$basic_string@DU?$char_traits@D@std@@V?$allocator@D@2@@3@@Z 00424e50 f i cinder:Utilities.obj
 0001:00024130       ?expandPath@cinder@@YA?AV?$basic_string@DU?$char_traits@D@std@@V?$allocator@D@2@@std@@ABV23@@Z 00425130 f   cinder:Utilities.obj
 0001:000241f0       ?getDocumentsDirectory@cinder@@YA?AV?$basic_string@DU?$char_traits@D@std@@V?$allocator@D@2@@std@@XZ 004251f0 f   cinder:Utilities.obj
 0001:000242c0       ?deleteFile@cinder@@YAXABV?$basic_string@DU?$char_traits@D@std@@V?$allocator@D@2@@std@@@Z 004252c0 f   cinder:Utilities.obj
 0001:00024320       ??0?$token_iterator@V?$char_separator@DU?$char_traits@D@std@@@boost@@V?$_String_const_iterator@DU?$char_traits@D@std@@V?$allocator@D@2@@std@@V?$basic_string@DU?$char_traits@D@std@@V?$allocator@D@2@@4@@boost@@QAE@V?$char_separator@DU?$char_traits@D@std@@@1@V?$_String_const_iterator@DU?$char_traits@D@std@@V?$allocator@D@2@@std@@1@Z 00425320 f i cinder:Utilities.obj
 0001:000243f0       ?begin@?$tokenizer@V?$char_separator@DU?$char_traits@D@std@@@boost@@V?$_String_const_iterator@DU?$char_traits@D@std@@V?$allocator@D@2@@std@@V?$basic_string@DU?$char_traits@D@std@@V?$allocator@D@2@@4@@boost@@QBE?AV?$token_iterator@V?$char_separator@DU?$char_traits@D@std@@@boost@@V?$_String_const_iterator@DU?$char_traits@D@std@@V?$allocator@D@2@@std@@V?$basic_string@DU?$char_traits@D@std@@V?$allocator@D@2@@4@@2@XZ 004253f0 f i cinder:Utilities.obj
 0001:000244c0       ?end@?$tokenizer@V?$char_separator@DU?$char_traits@D@std@@@boost@@V?$_String_const_iterator@DU?$char_traits@D@std@@V?$allocator@D@2@@std@@V?$basic_string@DU?$char_traits@D@std@@V?$allocator@D@2@@4@@boost@@QBE?AV?$token_iterator@V?$char_separator@DU?$char_traits@D@std@@@boost@@V?$_String_const_iterator@DU?$char_traits@D@std@@V?$allocator@D@2@@std@@V?$basic_string@DU?$char_traits@D@std@@V?$allocator@D@2@@4@@2@XZ 004254c0 f i cinder:Utilities.obj
 0001:00024590       ?push_back@?$vector@V?$basic_string@DU?$char_traits@D@std@@V?$allocator@D@2@@std@@V?$allocator@V?$basic_string@DU?$char_traits@D@std@@V?$allocator@D@2@@std@@@2@@std@@QAEXABV?$basic_string@DU?$char_traits@D@std@@V?$allocator@D@2@@2@@Z 00425590 f i cinder:Utilities.obj
 0001:00024660       ?split@cinder@@YA?AV?$vector@V?$basic_string@DU?$char_traits@D@std@@V?$allocator@D@2@@std@@V?$allocator@V?$basic_string@DU?$char_traits@D@std@@V?$allocator@D@2@@std@@@2@@std@@ABV?$basic_string@DU?$char_traits@D@std@@V?$allocator@D@2@@3@0@Z 00425660 f   cinder:Utilities.obj
 0001:00024970       ?split@cinder@@YA?AV?$vector@V?$basic_string@DU?$char_traits@D@std@@V?$allocator@D@2@@std@@V?$allocator@V?$basic_string@DU?$char_traits@D@std@@V?$allocator@D@2@@std@@@2@@std@@ABV?$basic_string@DU?$char_traits@D@std@@V?$allocator@D@2@@3@D@Z 00425970 f   cinder:Utilities.obj
 0001:00024a00       ?_Get_deleter@_Ref_count_base@tr1@std@@UBEPAXABVtype_info@@@Z 00425a00 f i cinder:Xml.obj
 0001:00024a10       ??1locale@std@@QAE@XZ      00425a10 f i ThreeDeeApp.obj
 0001:00024a10       ??1is_iequal@algorithm@boost@@QAE@XZ 00425a10 f i cinder:Xml.obj
 0001:00024a60       ?_Get_deleter@?$_Ref_count_del@DU?$checked_array_deleter@D@boost@@@tr1@std@@UBEPAXABVtype_info@@@Z 00425a60 f i cinder:Xml.obj
 0001:00024a90       ??$_Uninit_move@PAV?$_List_const_iterator@V?$_List_val@VXmlTree@cinder@@V?$allocator@VXmlTree@cinder@@@std@@@std@@@std@@PAV12@V?$allocator@V?$_List_const_iterator@V?$_List_val@VXmlTree@cinder@@V?$allocator@VXmlTree@cinder@@@std@@@std@@@std@@@2@V12@@std@@YAPAV?$_List_const_iterator@V?$_List_val@VXmlTree@cinder@@V?$allocator@VXmlTree@cinder@@@std@@@std@@@0@PAV10@00AAV?$allocator@V?$_List_const_iterator@V?$_List_val@VXmlTree@cinder@@V?$allocator@VXmlTree@cinder@@@std@@@std@@@std@@@0@0U_Nonscalar_ptr_iterator_tag@0@@Z 00425a90 f i cinder:Xml.obj
 0001:00024ac0       ??$_Resetp@DU?$checked_array_deleter@D@boost@@@?$shared_ptr@D@tr1@std@@AAEXPADU?$checked_array_deleter@D@boost@@@Z 00425ac0 f i cinder:Xml.obj
 0001:00024b60       ?isDone@ConstIter@XmlTree@cinder@@IBE_NXZ 00425b60 f   cinder:Xml.obj
 0001:00024b90       ?_Reserve@?$vector@PBV?$list@VXmlTree@cinder@@V?$allocator@VXmlTree@cinder@@@std@@@std@@V?$allocator@PBV?$list@VXmlTree@cinder@@V?$allocator@VXmlTree@cinder@@@std@@@std@@@2@@std@@IAEXI@Z 00425b90 f i cinder:Xml.obj
 0001:00024bf0       ??0Exception@cinder@@QAE@ABV01@@Z 00425bf0 f i cinder:Xml.obj
 0001:00024c10       ?push_back@?$vector@PBV?$list@VXmlTree@cinder@@V?$allocator@VXmlTree@cinder@@@std@@@std@@V?$allocator@PBV?$list@VXmlTree@cinder@@V?$allocator@VXmlTree@cinder@@@std@@@std@@@2@@std@@QAEXABQBV?$list@VXmlTree@cinder@@V?$allocator@VXmlTree@cinder@@@std@@@2@@Z 00425c10 f i cinder:Xml.obj
 0001:00024c80       ?reserve@?$vector@V?$_List_const_iterator@V?$_List_val@VXmlTree@cinder@@V?$allocator@VXmlTree@cinder@@@std@@@std@@@std@@V?$allocator@V?$_List_const_iterator@V?$_List_val@VXmlTree@cinder@@V?$allocator@VXmlTree@cinder@@@std@@@std@@@std@@@2@@std@@QAEXI@Z 00425c80 f i cinder:Xml.obj
 0001:00024d50       ?_Reserve@?$vector@V?$_List_const_iterator@V?$_List_val@VXmlTree@cinder@@V?$allocator@VXmlTree@cinder@@@std@@@std@@@std@@V?$allocator@V?$_List_const_iterator@V?$_List_val@VXmlTree@cinder@@V?$allocator@VXmlTree@cinder@@@std@@@std@@@std@@@2@@std@@IAEXI@Z 00425d50 f i cinder:Xml.obj
 0001:00024db0       ??$?HDU?$char_traits@D@std@@V?$allocator@D@1@@std@@YA?AV?$basic_string@DU?$char_traits@D@std@@V?$allocator@D@2@@0@ABV10@0@Z 00425db0 f i cinder:Xml.obj
 0001:00024e70       ?getPath@XmlTree@cinder@@QBE?AV?$basic_string@DU?$char_traits@D@std@@V?$allocator@D@2@@std@@D@Z 00425e70 f   cinder:Xml.obj
 0001:00025040       ??0ExcChildNotFound@XmlTree@cinder@@QAE@ABV12@ABV?$basic_string@DU?$char_traits@D@std@@V?$allocator@D@2@@std@@@Z 00426040 f   cinder:Xml.obj
 0001:000250c0       ?push_back@?$vector@V?$_List_const_iterator@V?$_List_val@VXmlTree@cinder@@V?$allocator@VXmlTree@cinder@@@std@@@std@@@std@@V?$allocator@V?$_List_const_iterator@V?$_List_val@VXmlTree@cinder@@V?$allocator@VXmlTree@cinder@@@std@@@std@@@std@@@2@@std@@QAEX$$QAV?$_List_const_iterator@V?$_List_val@VXmlTree@cinder@@V?$allocator@VXmlTree@cinder@@@std@@@std@@@2@@Z 004260c0 f i cinder:Xml.obj
 0001:000250c0       ?push_back@?$vector@V?$_List_const_iterator@V?$_List_val@VXmlTree@cinder@@V?$allocator@VXmlTree@cinder@@@std@@@std@@@std@@V?$allocator@V?$_List_const_iterator@V?$_List_val@VXmlTree@cinder@@V?$allocator@VXmlTree@cinder@@@std@@@std@@@std@@@2@@std@@QAEXABV?$_List_const_iterator@V?$_List_val@VXmlTree@cinder@@V?$allocator@VXmlTree@cinder@@@std@@@std@@@2@@Z 004260c0 f i cinder:Xml.obj
 0001:00025130       ?getAttribute@XmlTree@cinder@@QBEABVAttr@12@ABV?$basic_string@DU?$char_traits@D@std@@V?$allocator@D@2@@std@@@Z 00426130 f   cinder:Xml.obj
 0001:00025260       ??0Exception@XmlTree@cinder@@QAE@ABV012@@Z 00426260 f i cinder:Xml.obj
 0001:00025280       ??0ExcAttrNotFound@XmlTree@cinder@@QAE@ABV012@@Z 00426280 f i cinder:Xml.obj
 0001:000252b0       ??$equals@V?$basic_string@DU?$char_traits@D@std@@V?$allocator@D@2@@std@@V12@Uis_iequal@algorithm@boost@@@algorithm@boost@@YA_NABV?$basic_string@DU?$char_traits@D@std@@V?$allocator@D@2@@std@@0Uis_iequal@01@@Z 004262b0 f i cinder:Xml.obj
 0001:00025420       ?findNextChildNamed@XmlTree@cinder@@CA?AV?$_List_const_iterator@V?$_List_val@VXmlTree@cinder@@V?$allocator@VXmlTree@cinder@@@std@@@std@@@std@@ABV?$list@VXmlTree@cinder@@V?$allocator@VXmlTree@cinder@@@std@@@4@V34@ABV?$basic_string@DU?$char_traits@D@std@@V?$allocator@D@2@@4@_N@Z 00426420 f   cinder:Xml.obj
 0001:000255f0       ??0ConstIter@XmlTree@cinder@@QAE@PBV?$list@VXmlTree@cinder@@V?$allocator@VXmlTree@cinder@@@std@@@std@@@Z 004265f0 f   cinder:Xml.obj
 0001:00025680       ??0ConstIter@XmlTree@cinder@@QAE@PBV?$list@VXmlTree@cinder@@V?$allocator@VXmlTree@cinder@@@std@@@std@@V?$_List_const_iterator@V?$_List_val@VXmlTree@cinder@@V?$allocator@VXmlTree@cinder@@@std@@@std@@@4@@Z 00426680 f   cinder:Xml.obj
 0001:00025700       ?increment@ConstIter@XmlTree@cinder@@IAEXXZ 00426700 f   cinder:Xml.obj
 0001:000258e0       ?getNodePtr@XmlTree@cinder@@ABEPAV12@ABV?$basic_string@DU?$char_traits@D@std@@V?$allocator@D@2@@std@@_ND@Z 004268e0 f   cinder:Xml.obj
 0001:00025a20       ?hasChild@XmlTree@cinder@@QBE_NABV?$basic_string@DU?$char_traits@D@std@@V?$allocator@D@2@@std@@_ND@Z 00426a20 f   cinder:Xml.obj
 0001:00025a40       ?getChild@XmlTree@cinder@@QBEABV12@ABV?$basic_string@DU?$char_traits@D@std@@V?$allocator@D@2@@std@@_ND@Z 00426a40 f   cinder:Xml.obj
 0001:00025ab0       ??0ExcChildNotFound@XmlTree@cinder@@QAE@ABV012@@Z 00426ab0 f i cinder:Xml.obj
 0001:00025ae0       ?set@?$RectT@M@cinder@@QAEXMMMM@Z 00426ae0 f i cinder:Rect.obj
 0001:00025b00       ??0?$RectT@M@cinder@@QAE@ABV?$AreaT@H@1@@Z 00426b00 f i cinder:Rect.obj
 0001:00025b40       ?prepareLaunch@App@app@cinder@@KAXXZ 00426b40 f i cinder:App.obj
 0001:00025b40       ?updateGizmo@GridPart@gizmo@zugster@@UAEXXZ 00426b40 f i ThreeDeeApp.obj
 0001:00025b40       ?toggleFullScreen@AppImplMsw@app@cinder@@UAEXXZ 00426b40 f i cinder:AppImplMsw.obj
 0001:00025b40       ??3@YAXPAX0@Z              00426b40 f i ThreeDeeApp.obj
 0001:00025b40       ?on_process_enter@boost@@YAXXZ 00426b40 f i libboost_thread-vc100-mt-s-1_44:thread.obj
 0001:00025b40       ?startDraw@Renderer@app@cinder@@UAEXXZ 00426b40 f i cinder:Renderer.obj
 0001:00025b40       ?run@externally_launched_thread@?A0x86e6db5e@boost@@UAEXXZ 00426b40 f i libboost_thread-vc100-mt-s-1_44:thread.obj
 0001:00025b40       ?sp_enable_shared_from_this@detail@boost@@YAXZZ 00426b40 f i ThreeDeeApp.obj
 0001:00025b40       ?cleanupLaunch@App@app@cinder@@KAXXZ 00426b40 f i cinder:App.obj
 0001:00025b40       ?shutdown@App@app@cinder@@UAEXXZ 00426b40 f i ThreeDeeApp.obj
 0001:00025b40       ?finishDraw@Renderer@app@cinder@@UAEXXZ 00426b40 f i cinder:Renderer.obj
 0001:00025b40       ?updateGizmo@CommandBase@gizmo@zugster@@UAEXXZ 00426b40 f i ThreeDeeApp.obj
 0001:00025b40       ?defaultResize@Renderer@app@cinder@@UAEXXZ 00426b40 f i cinder:Renderer.obj
 0001:00025b40       ?onVisibilityChanged@PositionableBase@cinderpane@zugster@@MAEXXZ 00426b40 f i ThreeDeeApp.obj
 0001:00025b40       ?prepareToggleFullScreen@Renderer@app@cinder@@UAEXXZ 00426b40 f i cinder:Renderer.obj
 0001:00025b40       ?finishToggleFullScreen@Renderer@app@cinder@@UAEXXZ 00426b40 f i cinder:Renderer.obj
 0001:00025b40       __cairo_clip_reset_static_data 00426b40 f i cairo-static:cairo-clip.obj
 0001:00025b40       ?finalize@ImageTarget@cinder@@UAEXXZ 00426b40 f i cinder:Surface.obj
 0001:00025b40       ?draw@App@app@cinder@@UAEXXZ 00426b40 f i cinder:App.obj
 0001:00025b40       ?updatePane@PaneBase@cinderpane@zugster@@UAEXXZ 00426b40 f i ThreeDeeApp.obj
 0001:00025b40       ?kill@Renderer@app@cinder@@UAEXXZ 00426b40 f i cinder:Renderer.obj
 0001:00025b40       ?setup@App@app@cinder@@UAEXXZ 00426b40 f i cinder:App.obj
 0001:00025b40       ?tss_cleanup_implemented@boost@@YAXXZ 00426b40 f i libboost_thread-vc100-mt-s-1_44:tss_pe.obj
 0001:00025b40       ?onVisibilityChanged@PartBase@gizmo@zugster@@MAEXXZ 00426b40 f i ThreeDeeApp.obj
 0001:00025b40       ?update@App@app@cinder@@UAEXXZ 00426b40 f i cinder:App.obj
 0001:00025b50       ??_GRenderer@app@cinder@@UAEPAXI@Z 00426b50 f i cinder:Renderer.obj
 0001:00025b50       ??_ERenderer@app@cinder@@UAEPAXI@Z 00426b50 f i cinder:Renderer.obj
 0001:00025b80       ?getHwnd@RendererGl@app@cinder@@UAEPAUHWND__@@XZ 00426b80 f i cinder:Renderer.obj
 0001:00025b90       ?setAntiAliasing@RendererGl@app@cinder@@QAEXH@Z 00426b90 f   cinder:Renderer.obj
 0001:00025ba0       ?setup@RendererGl@app@cinder@@UAEXPAVApp@23@PAUHWND__@@PAUHDC__@@@Z 00426ba0 f   cinder:Renderer.obj
 0001:00025c30       ?kill@RendererGl@app@cinder@@UAEXXZ 00426c30 f   cinder:Renderer.obj
 0001:00025c40       ?prepareToggleFullScreen@RendererGl@app@cinder@@UAEXXZ 00426c40 f   cinder:Renderer.obj
 0001:00025c50       ?finishToggleFullScreen@RendererGl@app@cinder@@UAEXXZ 00426c50 f   cinder:Renderer.obj
 0001:00025c60       ?startDraw@RendererGl@app@cinder@@UAEXXZ 00426c60 f   cinder:Renderer.obj
 0001:00025c70       ?finishDraw@RendererGl@app@cinder@@UAEXXZ 00426c70 f   cinder:Renderer.obj
 0001:00025c80       ?defaultResize@RendererGl@app@cinder@@UAEXXZ 00426c80 f   cinder:Renderer.obj
 0001:00025c90       ??0RendererGl@app@cinder@@QAE@XZ 00426c90 f   cinder:Renderer.obj
 0001:00025cb0       ??_GRendererGl@app@cinder@@UAEPAXI@Z 00426cb0 f i cinder:Renderer.obj
 0001:00025cb0       ??_ERendererGl@app@cinder@@UAEPAXI@Z 00426cb0 f i cinder:Renderer.obj
 0001:00025cf0       ??$_Reset@VImageTarget@cinder@@@?$_Ptr_base@VImageTarget@cinder@@@tr1@std@@QAEXABV012@@Z 00426cf0 f i cinder:Surface.obj
 0001:00025cf0       ??$_Reset@VDataTarget@cinder@@@?$_Ptr_base@VDataTarget@cinder@@@tr1@std@@QAEXABV012@@Z 00426cf0 f i cinder:ImageIo.obj
 0001:00025cf0       ??$_Reset@VDataSource@cinder@@@?$_Ptr_base@VDataSource@cinder@@@tr1@std@@QAEXABV012@@Z 00426cf0 f i ThreeDeeApp.obj
 0001:00025cf0       ??$_Reset@VIStreamFile@cinder@@@?$_Ptr_base@VIStream@cinder@@@tr1@std@@QAEXABV?$_Ptr_base@VIStreamFile@cinder@@@12@@Z 00426cf0 f i cinder:DataSource.obj
 0001:00025cf0       ??$_Reset@VOStream@cinder@@@?$_Ptr_base@VOStream@cinder@@@tr1@std@@QAEXABV012@@Z 00426cf0 f i cinder:ImageTargetFileWic.obj
 0001:00025cf0       ??$_Reset@UObj@Buffer@cinder@@@?$_Ptr_base@UObj@Buffer@cinder@@@tr1@std@@QAEXABV012@@Z 00426cf0 f i cinder:Xml.obj
 0001:00025cf0       ??$_Reset@UObj@Texture@gl@cinder@@@?$_Ptr_base@UObj@Texture@gl@cinder@@@tr1@std@@QAEXABV012@@Z 00426cf0 f i ThreeDeeApp.obj
 0001:00025cf0       ??$_Reset@UObj@?$SurfaceT@E@cinder@@@?$_Ptr_base@UObj@?$SurfaceT@E@cinder@@@tr1@std@@QAEXABV012@@Z 00426cf0 f i cinder:Renderer.obj
 0001:00025cf0       ??$_Reset@VImageSource@cinder@@@?$_Ptr_base@VImageSource@cinder@@@tr1@std@@QAEXABV012@@Z 00426cf0 f i cinder:Surface.obj
 0001:00025cf0       ??$_Reset@VDisplay@cinder@@@?$_Ptr_base@VDisplay@cinder@@@tr1@std@@QAEXABV012@@Z 00426cf0 f i cinder:Display.obj
 0001:00025cf0       ??$_Reset@UObj@?$ChannelT@E@cinder@@@?$_Ptr_base@UObj@?$ChannelT@E@cinder@@@tr1@std@@QAEXABV012@@Z 00426cf0 f i cinder:Surface.obj
 0001:00025cf0       ??$_Reset@VOStreamFile@cinder@@@?$_Ptr_base@VOStream@cinder@@@tr1@std@@QAEXABV?$_Ptr_base@VOStreamFile@cinder@@@12@@Z 00426cf0 f i cinder:DataTarget.obj
 0001:00025d50       ?copyWindowSurface@RendererGl@app@cinder@@UAE?AV?$SurfaceT@E@3@ABV?$AreaT@H@3@@Z 00426d50 f   cinder:Renderer.obj
 0001:00025e50       ?privateSetup__@App@app@cinder@@UAEXXZ 00426e50 f   cinder:App.obj
 0001:00025e60       ?privateUpdate__@App@app@cinder@@UAEXXZ 00426e60 f   cinder:App.obj
 0001:00025ec0       ?privateDraw__@App@app@cinder@@UAEXXZ 00426ec0 f   cinder:App.obj
 0001:00025ed0       ?privateShutdown__@App@app@cinder@@UAEXXZ 00426ed0 f   cinder:App.obj
 0001:00025ee0       ?setWindowSize@Settings@App@app@cinder@@QAEXHH@Z 00426ee0 f   cinder:App.obj
 0001:00025f00       ?setFrameRate@Settings@App@app@cinder@@QAEXM@Z 00426f00 f   cinder:App.obj
 0001:00025f10       ?_Destroy@?$_Ref_count@VRenderer@app@cinder@@@tr1@std@@EAEXXZ 00426f10 f i cinder:App.obj
 0001:00025f20       ?copyWindowSurface@App@app@cinder@@QAE?AV?$SurfaceT@E@3@XZ 00426f20 f   cinder:App.obj
 0001:00025f80       ??$_Resetp@VRenderer@app@cinder@@@?$shared_ptr@VRenderer@app@cinder@@@tr1@std@@AAEXPAVRenderer@app@cinder@@@Z 00426f80 f i cinder:App.obj
 0001:00026020       ?privateMouseDown__@App@app@cinder@@QAEXABVMouseEvent@23@@Z 00427020 f   cinder:App.obj
 0001:00026160       ?privateMouseUp__@App@app@cinder@@QAEXABVMouseEvent@23@@Z 00427160 f   cinder:App.obj
 0001:000262a0       ?privateMouseWheel__@App@app@cinder@@QAEXABVMouseEvent@23@@Z 004272a0 f   cinder:App.obj
 0001:000263e0       ?privateMouseMove__@App@app@cinder@@QAEXABVMouseEvent@23@@Z 004273e0 f   cinder:App.obj
 0001:00026520       ?privateMouseDrag__@App@app@cinder@@QAEXABVMouseEvent@23@@Z 00427520 f   cinder:App.obj
 0001:00026660       ?privateKeyDown__@App@app@cinder@@QAEXABVKeyEvent@23@@Z 00427660 f   cinder:App.obj
 0001:00026780       ?privateKeyUp__@App@app@cinder@@QAEXABVKeyEvent@23@@Z 00427780 f   cinder:App.obj
 0001:000268a0       ?privateResize__@App@app@cinder@@UAEXABVResizeEvent@23@@Z 004278a0 f   cinder:App.obj
 0001:000269a0       ??0Settings@App@app@cinder@@IAE@XZ 004279a0 f   cinder:App.obj
 0001:000269e0       ??1Settings@AppBasic@app@cinder@@UAE@XZ 004279e0 f i cinder:AppBasic.obj
 0001:000269e0       ??1Settings@App@app@cinder@@MAE@XZ 004279e0 f i cinder:App.obj
 0001:00026a10       ?executeLaunch@App@app@cinder@@KAXPAV123@PAVRenderer@23@PBDHQBQAD@Z 00427a10 f   cinder:App.obj
 0001:00026ad0       ??$_Destroy_range@V?$allocator@U?$pair@IV?$function@$$A6A_NVTouchEvent@app@cinder@@@Z@tr1@std@@@std@@@std@@@std@@YAXPAU?$pair@IV?$function@$$A6A_NVTouchEvent@app@cinder@@@Z@tr1@std@@@0@0AAV?$allocator@U?$pair@IV?$function@$$A6A_NVTouchEvent@app@cinder@@@Z@tr1@std@@@std@@@0@U_Nonscalar_ptr_iterator_tag@0@@Z 00427ad0 f i ThreeDeeApp.obj
 0001:00026ad0       ??$_Destroy_range@V?$allocator@U?$pair@IV?$function@$$A6A_NVKeyEvent@app@cinder@@@Z@tr1@std@@@std@@@std@@@std@@YAXPAU?$pair@IV?$function@$$A6A_NVKeyEvent@app@cinder@@@Z@tr1@std@@@0@0AAV?$allocator@U?$pair@IV?$function@$$A6A_NVKeyEvent@app@cinder@@@Z@tr1@std@@@std@@@0@U_Nonscalar_ptr_iterator_tag@0@@Z 00427ad0 f i ThreeDeeApp.obj
 0001:00026ad0       ??$_Destroy_range@V?$allocator@U?$pair@IV?$function@$$A6A_NVMouseEvent@app@cinder@@@Z@tr1@std@@@std@@@std@@@std@@YAXPAU?$pair@IV?$function@$$A6A_NVMouseEvent@app@cinder@@@Z@tr1@std@@@0@0AAV?$allocator@U?$pair@IV?$function@$$A6A_NVMouseEvent@app@cinder@@@Z@tr1@std@@@std@@@0@U_Nonscalar_ptr_iterator_tag@0@@Z 00427ad0 f i ThreeDeeApp.obj
 0001:00026ad0       ??$_Destroy_range@V?$allocator@U?$pair@IV?$function@$$A6A_NVResizeEvent@app@cinder@@@Z@tr1@std@@@std@@@std@@@std@@YAXPAU?$pair@IV?$function@$$A6A_NVResizeEvent@app@cinder@@@Z@tr1@std@@@0@0AAV?$allocator@U?$pair@IV?$function@$$A6A_NVResizeEvent@app@cinder@@@Z@tr1@std@@@std@@@0@U_Nonscalar_ptr_iterator_tag@0@@Z 00427ad0 f i ThreeDeeApp.obj
 0001:00026ad0       ??$_Destroy_range@V?$allocator@U?$pair@IV?$function@$$A6A_NVFileDropEvent@app@cinder@@@Z@tr1@std@@@std@@@std@@@std@@YAXPAU?$pair@IV?$function@$$A6A_NVFileDropEvent@app@cinder@@@Z@tr1@std@@@0@0AAV?$allocator@U?$pair@IV?$function@$$A6A_NVFileDropEvent@app@cinder@@@Z@tr1@std@@@std@@@0@U_Nonscalar_ptr_iterator_tag@0@@Z 00427ad0 f i cinder:App.obj
 0001:00026b10       ??1?$CallbackMgr@$$A6A_NVTouchEvent@app@cinder@@@Z@cinder@@QAE@XZ 00427b10 f i cinder:AppBasic.obj
 0001:00026b10       ??1?$CallbackMgr@$$A6A_NVResizeEvent@app@cinder@@@Z@cinder@@QAE@XZ 00427b10 f i cinder:App.obj
 0001:00026b10       ??1?$CallbackMgr@$$A6A_NVMouseEvent@app@cinder@@@Z@cinder@@QAE@XZ 00427b10 f i cinder:App.obj
 0001:00026b10       ??1?$CallbackMgr@$$A6A_NVKeyEvent@app@cinder@@@Z@cinder@@QAE@XZ 00427b10 f i cinder:App.obj
 0001:00026b60       ??1App@app@cinder@@UAE@XZ  00427b60 f   cinder:App.obj
 0001:00026e60       ?resize@App@app@cinder@@UAEXVResizeEvent@23@@Z 00427e60 f i cinder:App.obj
 0001:00026e70       ??R?$_Function_impl1@_NVFileDropEvent@app@cinder@@@tr1@std@@QBE_NVFileDropEvent@app@cinder@@@Z 00427e70 f i cinder:App.obj
 0001:00026f30       ??_GFileDropEvent@app@cinder@@UAEPAXI@Z 00427f30 f i cinder:App.obj
 0001:00026f30       ??_EFileDropEvent@app@cinder@@UAEPAXI@Z 00427f30 f i cinder:App.obj
 0001:00026f90       ??0App@app@cinder@@QAE@XZ  00427f90 f   cinder:App.obj
 0001:00027090       ??_EApp@app@cinder@@UAEPAXI@Z 00428090 f i cinder:App.obj
 0001:00027090       ??_GApp@app@cinder@@UAEPAXI@Z 00428090 f i cinder:App.obj
 0001:000270c0       ?privateFileDrop__@App@app@cinder@@QAEXABVFileDropEvent@23@@Z 004280c0 f   cinder:App.obj
 0001:000271c0       ?getWindowWidth@AppBasic@app@cinder@@UBEHXZ 004281c0 f   cinder:AppBasic.obj
 0001:000271d0       ?getWindowHeight@AppBasic@app@cinder@@UBEHXZ 004281d0 f   cinder:AppBasic.obj
 0001:000271e0       ?setWindowWidth@AppBasic@app@cinder@@UAEXH@Z 004281e0 f   cinder:AppBasic.obj
 0001:00027200       ?setWindowHeight@AppBasic@app@cinder@@UAEXH@Z 00428200 f   cinder:AppBasic.obj
 0001:00027220       ?setWindowSize@AppBasic@app@cinder@@UAEXHH@Z 00428220 f   cinder:AppBasic.obj
 0001:00027240       ?getFrameRate@AppBasic@app@cinder@@UBEMXZ 00428240 f   cinder:AppBasic.obj
 0001:00027250       ?setFrameRate@AppBasic@app@cinder@@UAEXM@Z 00428250 f   cinder:AppBasic.obj
 0001:00027270       ?isFullScreen@AppBasic@app@cinder@@UBE_NXZ 00428270 f   cinder:AppBasic.obj
 0001:00027280       ?setFullScreen@AppBasic@app@cinder@@UAEX_N@Z 00428280 f   cinder:AppBasic.obj
 0001:000272b0       ?quit@AppBasic@app@cinder@@UAEXXZ 004282b0 f   cinder:AppBasic.obj
 0001:000272c0       ?privateResize__@AppBasic@app@cinder@@UAEXABVResizeEvent@23@@Z 004282c0 f   cinder:AppBasic.obj
 0001:000272d0       ?getAppPath@AppBasic@app@cinder@@UAE?AV?$basic_string@DU?$char_traits@D@std@@V?$allocator@D@2@@std@@XZ 004282d0 f   cinder:AppBasic.obj
 0001:00027300       ??0Settings@AppBasic@app@cinder@@QAE@XZ 00428300 f   cinder:AppBasic.obj
 0001:000273a0       ??_GSettings@App@app@cinder@@MAEPAXI@Z 004283a0 f i cinder:App.obj
 0001:000273a0       ??_GSettings@AppBasic@app@cinder@@UAEPAXI@Z 004283a0 f i cinder:AppBasic.obj
 0001:000273a0       ??_ESettings@App@app@cinder@@MAEPAXI@Z 004283a0 f i cinder:App.obj
 0001:000273a0       ??_ESettings@AppBasic@app@cinder@@UAEPAXI@Z 004283a0 f i cinder:AppBasic.obj
 0001:000273f0       ?privateTouchesBegan__@AppBasic@app@cinder@@QAEXABVTouchEvent@23@@Z 004283f0 f   cinder:AppBasic.obj
 0001:00027550       ?privateTouchesMoved__@AppBasic@app@cinder@@QAEXABVTouchEvent@23@@Z 00428550 f   cinder:AppBasic.obj
 0001:000276b0       ?privateTouchesEnded__@AppBasic@app@cinder@@QAEXABVTouchEvent@23@@Z 004286b0 f   cinder:AppBasic.obj
 0001:00027810       ??1AppBasic@app@cinder@@UAE@XZ 00428810 f   cinder:AppBasic.obj
 0001:000279f0       ??0AppBasic@app@cinder@@QAE@XZ 004289f0 f   cinder:AppBasic.obj
 0001:00027ab0       ??_EAppBasic@app@cinder@@UAEPAXI@Z 00428ab0 f i cinder:AppBasic.obj
 0001:00027ab0       ??_GAppBasic@app@cinder@@UAEPAXI@Z 00428ab0 f i cinder:AppBasic.obj
 0001:00027ae0       ?executeLaunch@AppBasic@app@cinder@@SAXPAV123@PAVRenderer@23@PBD@Z 00428ae0 f   cinder:AppBasic.obj
 0001:00027cf0       ?launch@AppBasic@app@cinder@@UAEXPBDHQBQAD@Z 00428cf0 f   cinder:AppBasic.obj
 0001:00027e70       ?hasAlpha@ImageIo@cinder@@UBE_NXZ 00428e70 f i cinder:Surface.obj
 0001:00027e80       ??1ImageSource@cinder@@UAE@XZ 00428e80 f i cinder:Surface.obj
 0001:00027e90       ??_EImageSource@cinder@@UAEPAXI@Z 00428e90 f i cinder:Surface.obj
 0001:00027e90       ??_GImageSource@cinder@@UAEPAXI@Z 00428e90 f i cinder:Surface.obj
 0001:00027ec0       ??1ImageTarget@cinder@@UAE@XZ 00428ec0 f i cinder:Surface.obj
 0001:00027ed0       ?getDc@Renderer@app@cinder@@UAEPAUHDC__@@XZ 00428ed0 f i cinder:Renderer.obj
 0001:00027ed0       ?setRow@ImageTarget@cinder@@UAEXHPBX@Z 00428ed0 f i cinder:Surface.obj
 0001:00027ee0       ??_EImageTarget@cinder@@UAEPAXI@Z 00428ee0 f i cinder:Surface.obj
 0001:00027ee0       ??_GImageTarget@cinder@@UAEPAXI@Z 00428ee0 f i cinder:Surface.obj
 0001:00027f10       ?_Destroy@?$_Ref_count@VImageSourceFileWic@cinder@@@tr1@std@@EAEXXZ 00428f10 f i cinder:ImageSourceFileWic.obj
 0001:00027f10       ?_Destroy@?$_Ref_count@VImageTargetFileWic@cinder@@@tr1@std@@EAEXXZ 00428f10 f i cinder:ImageTargetFileWic.obj
 0001:00027f10       ?_Destroy@?$_Ref_count@VImageSourceSurface@cinder@@@tr1@std@@EAEXXZ 00428f10 f i cinder:Surface.obj
 0001:00027f30       ??0SurfaceChannelOrder@cinder@@QAE@H@Z 00428f30 f   cinder:Surface.obj
 0001:00028030       ??$_Resetp@VImageSourceSurface@cinder@@@?$shared_ptr@VImageSource@cinder@@@tr1@std@@AAEXPAVImageSourceSurface@cinder@@@Z 00429030 f i cinder:Surface.obj
 0001:000280d0       ??0?$ChannelT@E@cinder@@QAE@XZ 004290d0 f i cinder:Surface.obj
 0001:000280e0       ??4?$shared_ptr@UObj@Buffer@cinder@@@tr1@std@@QAEAAV012@ABV012@@Z 004290e0 f i cinder:DataSource.obj
 0001:000280e0       ??4?$shared_ptr@UObj@?$ChannelT@E@cinder@@@tr1@std@@QAEAAV012@ABV012@@Z 004290e0 f i cinder:Surface.obj
 0001:000280e0       ??4?$shared_ptr@UObj@?$SurfaceT@E@cinder@@@tr1@std@@QAEAAV012@ABV012@@Z 004290e0 f i cinder:Surface.obj
 0001:00028150       ??_GObj@?$SurfaceT@E@cinder@@QAEPAXI@Z 00429150 f i cinder:Surface.obj
 0001:000281e0       ?_Destroy@?$_Ref_count@UObj@?$SurfaceT@E@cinder@@@tr1@std@@EAEXXZ 004291e0 f i cinder:Surface.obj
 0001:00028270       ??$_Resetp@UObj@?$SurfaceT@E@cinder@@@?$shared_ptr@UObj@?$SurfaceT@E@cinder@@@tr1@std@@AAEXPAUObj@?$SurfaceT@E@cinder@@@Z 00429270 f i cinder:Surface.obj
 0001:00028310       ??$?0E@ImageSourceSurface@cinder@@QAE@ABV?$SurfaceT@E@1@@Z 00429310 f i cinder:Surface.obj
 0001:00028440       ??1ImageSourceSurface@cinder@@UAE@XZ 00429440 f i cinder:Surface.obj
 0001:00028520       ??_GImageSourceSurface@cinder@@UAEPAXI@Z 00429520 f i cinder:Surface.obj
 0001:00028520       ??_EImageSourceSurface@cinder@@UAEPAXI@Z 00429520 f i cinder:Surface.obj
 0001:00028550       ?load@ImageSourceSurface@cinder@@UAEXV?$shared_ptr@VImageTarget@cinder@@@tr1@std@@@Z 00429550 f i cinder:Surface.obj
 0001:00028670       ??B?$SurfaceT@E@cinder@@QBE?AV?$shared_ptr@VImageSource@cinder@@@tr1@std@@XZ 00429670 f i cinder:Surface.obj
 0001:00028700       ?initChannels@Obj@?$SurfaceT@E@cinder@@QAEXXZ 00429700 f i cinder:Surface.obj
 0001:000288f0       ??0Obj@?$SurfaceT@E@cinder@@QAE@HHVSurfaceChannelOrder@2@PAE_NH@Z 004298f0 f i cinder:Surface.obj
 0001:000289b0       ??0?$SurfaceT@E@cinder@@QAE@PAEHHHVSurfaceChannelOrder@1@@Z 004299b0 f i cinder:Surface.obj
 0001:00028ac0       ??0?$SurfaceT@E@cinder@@QAE@HH_NVSurfaceChannelOrder@1@@Z 00429ac0 f i cinder:Surface.obj
 0001:00028c30       ?clear@gl@cinder@@YAXABV?$ColorAT@M@2@_N@Z 00429c30 f   cinder:gl.obj
 0001:00028c90       ?setMatrices@gl@cinder@@YAXABVCamera@2@@Z 00429c90 f   cinder:gl.obj
 0001:00028cd0       ?pushMatrices@gl@cinder@@YAXXZ 00429cd0 f   cinder:gl.obj
 0001:00028d00       ?popMatrices@gl@cinder@@YAXXZ 00429d00 f   cinder:gl.obj
 0001:00028d30       ?multModelView@gl@cinder@@YAXABV?$Matrix44@M@2@@Z 00429d30 f   cinder:gl.obj
 0001:00028d50       ?setMatricesWindow@gl@cinder@@YAXHH_N@Z 00429d50 f   cinder:gl.obj
 0001:00028dd0       ?setViewport@gl@cinder@@YAXABV?$AreaT@H@2@@Z 00429dd0 f   cinder:gl.obj
 0001:00028e00       ?enableAlphaBlending@gl@cinder@@YAX_N@Z 00429e00 f   cinder:gl.obj
 0001:00028e30       ?disableAlphaBlending@gl@cinder@@YAXXZ 00429e30 f   cinder:gl.obj
 0001:00028e40       ?enableAdditiveBlending@gl@cinder@@YAXXZ 00429e40 f   cinder:gl.obj
 0001:00028e60       ?disableDepthRead@gl@cinder@@YAXXZ 00429e60 f   cinder:gl.obj
 0001:00028e70       ?enableDepthRead@gl@cinder@@YAX_N@Z 00429e70 f   cinder:gl.obj
 0001:00028e90       ?enableDepthWrite@gl@cinder@@YAX_N@Z 00429e90 f   cinder:gl.obj
 0001:00028eb0       ?disableDepthWrite@gl@cinder@@YAXXZ 00429eb0 f   cinder:gl.obj
 0001:00028ec0       ?drawCubeImpl@?A0xc56ebd6e@gl@cinder@@YAXABV?$Vec3@M@3@0_N@Z 00429ec0 f   cinder:gl.obj
 0001:000291b0       ?drawCube@gl@cinder@@YAXABV?$Vec3@M@2@0@Z 0042a1b0 f   cinder:gl.obj
 0001:000291d0       ??0SaveTextureBindState@gl@cinder@@QAE@H@Z 0042a1d0 f   cinder:gl.obj
 0001:00029270       ??1SaveTextureBindState@gl@cinder@@QAE@XZ 0042a270 f   cinder:gl.obj
 0001:00029280       ??1BoolState@gl@cinder@@QAE@XZ 0042a280 f   cinder:gl.obj
 0001:000292a0       ??1ClientBoolState@gl@cinder@@QAE@XZ 0042a2a0 f   cinder:gl.obj
 0001:000292c0       ??0SaveFramebufferBinding@gl@cinder@@QAE@XZ 0042a2c0 f   cinder:gl.obj
 0001:000292e0       ??1SaveFramebufferBinding@gl@cinder@@QAE@XZ 0042a2e0 f   cinder:gl.obj
 0001:000292f0       ?_Min@?$_Tree_val@V?$_Tmap_traits@V?$basic_string@DU?$char_traits@D@std@@V?$allocator@D@2@@std@@HU?$less@V?$basic_string@DU?$char_traits@D@std@@V?$allocator@D@2@@std@@@2@V?$allocator@U?$pair@$$CBV?$basic_string@DU?$char_traits@D@std@@V?$allocator@D@2@@std@@H@std@@@2@$0A@@std@@@std@@SAPAU_Node@?$_Tree_nod@V?$_Tmap_traits@V?$basic_string@DU?$char_traits@D@std@@V?$allocator@D@2@@std@@HU?$less@V?$basic_string@DU?$char_traits@D@std@@V?$allocator@D@2@@std@@@2@V?$allocator@U?$pair@$$CBV?$basic_string@DU?$char_traits@D@std@@V?$allocator@D@2@@std@@H@std@@@2@$0A@@std@@@2@PAU342@@Z 0042a2f0 f i cinder:GlslProg.obj
 0001:000292f0       ?_Min@?$_Tree_val@V?$_Tmap_traits@V?$basic_string@DU?$char_traits@D@std@@V?$allocator@D@2@@std@@_NU?$less@V?$basic_string@DU?$char_traits@D@std@@V?$allocator@D@2@@std@@@2@V?$allocator@U?$pair@$$CBV?$basic_string@DU?$char_traits@D@std@@V?$allocator@D@2@@std@@_N@std@@@2@$0A@@std@@@std@@SAPAU_Node@?$_Tree_nod@V?$_Tmap_traits@V?$basic_string@DU?$char_traits@D@std@@V?$allocator@D@2@@std@@_NU?$less@V?$basic_string@DU?$char_traits@D@std@@V?$allocator@D@2@@std@@@2@V?$allocator@U?$pair@$$CBV?$basic_string@DU?$char_traits@D@std@@V?$allocator@D@2@@std@@_N@std@@@2@$0A@@std@@@2@PAU342@@Z 0042a2f0 f i cinder:gl.obj
 0001:000292f0       ?_Min@?$_Tree_val@V?$_Tmap_traits@V?$basic_string@DU?$char_traits@D@std@@V?$allocator@D@2@@std@@PBU_GUID@@U?$less@V?$basic_string@DU?$char_traits@D@std@@V?$allocator@D@2@@std@@@2@V?$allocator@U?$pair@$$CBV?$basic_string@DU?$char_traits@D@std@@V?$allocator@D@2@@std@@PBU_GUID@@@std@@@2@$0A@@std@@@std@@SAPAU_Node@?$_Tree_nod@V?$_Tmap_traits@V?$basic_string@DU?$char_traits@D@std@@V?$allocator@D@2@@std@@PBU_GUID@@U?$less@V?$basic_string@DU?$char_traits@D@std@@V?$allocator@D@2@@std@@@2@V?$allocator@U?$pair@$$CBV?$basic_string@DU?$char_traits@D@std@@V?$allocator@D@2@@std@@PBU_GUID@@@std@@@2@$0A@@std@@@2@PAU342@@Z 0042a2f0 f i cinder:ImageTargetFileWic.obj
 0001:00029310       ??E?$_Tree_unchecked_const_iterator@V?$_Tree_val@V?$_Tmap_traits@V?$basic_string@DU?$char_traits@D@std@@V?$allocator@D@2@@std@@_NU?$less@V?$basic_string@DU?$char_traits@D@std@@V?$allocator@D@2@@std@@@2@V?$allocator@U?$pair@$$CBV?$basic_string@DU?$char_traits@D@std@@V?$allocator@D@2@@std@@_N@std@@@2@$0A@@std@@@std@@U_Iterator_base0@2@@std@@QAEAAV01@XZ 0042a310 f i cinder:gl.obj
 0001:00029310       ??E?$_Tree_unchecked_const_iterator@V?$_Tree_val@V?$_Tmap_traits@V?$basic_string@DU?$char_traits@D@std@@V?$allocator@D@2@@std@@HU?$less@V?$basic_string@DU?$char_traits@D@std@@V?$allocator@D@2@@std@@@2@V?$allocator@U?$pair@$$CBV?$basic_string@DU?$char_traits@D@std@@V?$allocator@D@2@@std@@H@std@@@2@$0A@@std@@@std@@U_Iterator_base0@2@@std@@QAEAAV01@XZ 0042a310 f i cinder:GlslProg.obj
 0001:00029310       ??E?$_Tree_unchecked_const_iterator@V?$_Tree_val@V?$_Tmap_traits@V?$basic_string@DU?$char_traits@D@std@@V?$allocator@D@2@@std@@PBU_GUID@@U?$less@V?$basic_string@DU?$char_traits@D@std@@V?$allocator@D@2@@std@@@2@V?$allocator@U?$pair@$$CBV?$basic_string@DU?$char_traits@D@std@@V?$allocator@D@2@@std@@PBU_GUID@@@std@@@2@$0A@@std@@@std@@U_Iterator_base0@2@@std@@QAEAAV01@XZ 0042a310 f i cinder:ImageTargetFileWic.obj
 0001:00029360       ??F?$_Tree_unchecked_const_iterator@V?$_Tree_val@V?$_Tmap_traits@V?$basic_string@DU?$char_traits@D@std@@V?$allocator@D@2@@std@@HU?$less@V?$basic_string@DU?$char_traits@D@std@@V?$allocator@D@2@@std@@@2@V?$allocator@U?$pair@$$CBV?$basic_string@DU?$char_traits@D@std@@V?$allocator@D@2@@std@@H@std@@@2@$0A@@std@@@std@@U_Iterator_base0@2@@std@@QAEAAV01@XZ 0042a360 f i cinder:GlslProg.obj
 0001:00029360       ??F?$_Tree_unchecked_const_iterator@V?$_Tree_val@V?$_Tmap_traits@V?$basic_string@DU?$char_traits@D@std@@V?$allocator@D@2@@std@@PBU_GUID@@U?$less@V?$basic_string@DU?$char_traits@D@std@@V?$allocator@D@2@@std@@@2@V?$allocator@U?$pair@$$CBV?$basic_string@DU?$char_traits@D@std@@V?$allocator@D@2@@std@@PBU_GUID@@@std@@@2@$0A@@std@@@std@@U_Iterator_base0@2@@std@@QAEAAV01@XZ 0042a360 f i cinder:ImageTargetFileWic.obj
 0001:00029360       ??F?$_Tree_unchecked_const_iterator@V?$_Tree_val@V?$_Tmap_traits@V?$basic_string@DU?$char_traits@D@std@@V?$allocator@D@2@@std@@_NU?$less@V?$basic_string@DU?$char_traits@D@std@@V?$allocator@D@2@@std@@@2@V?$allocator@U?$pair@$$CBV?$basic_string@DU?$char_traits@D@std@@V?$allocator@D@2@@std@@_N@std@@@2@$0A@@std@@@std@@U_Iterator_base0@2@@std@@QAEAAV01@XZ 0042a360 f i cinder:gl.obj
 0001:000293c0       ?getViewport@gl@cinder@@YA?AV?$AreaT@H@2@XZ 0042a3c0 f   cinder:gl.obj
 0001:00029410       ?_Rrotate@?$_Tree@V?$_Tmap_traits@V?$basic_string@DU?$char_traits@D@std@@V?$allocator@D@2@@std@@HU?$less@V?$basic_string@DU?$char_traits@D@std@@V?$allocator@D@2@@std@@@2@V?$allocator@U?$pair@$$CBV?$basic_string@DU?$char_traits@D@std@@V?$allocator@D@2@@std@@H@std@@@2@$0A@@std@@@std@@IAEXPAU_Node@?$_Tree_nod@V?$_Tmap_traits@V?$basic_string@DU?$char_traits@D@std@@V?$allocator@D@2@@std@@HU?$less@V?$basic_string@DU?$char_traits@D@std@@V?$allocator@D@2@@std@@@2@V?$allocator@U?$pair@$$CBV?$basic_string@DU?$char_traits@D@std@@V?$allocator@D@2@@std@@H@std@@@2@$0A@@std@@@2@@Z 0042a410 f i cinder:GlslProg.obj
 0001:00029410       ?_Rrotate@?$_Tree@V?$_Tmap_traits@V?$basic_string@DU?$char_traits@D@std@@V?$allocator@D@2@@std@@PBU_GUID@@U?$less@V?$basic_string@DU?$char_traits@D@std@@V?$allocator@D@2@@std@@@2@V?$allocator@U?$pair@$$CBV?$basic_string@DU?$char_traits@D@std@@V?$allocator@D@2@@std@@PBU_GUID@@@std@@@2@$0A@@std@@@std@@IAEXPAU_Node@?$_Tree_nod@V?$_Tmap_traits@V?$basic_string@DU?$char_traits@D@std@@V?$allocator@D@2@@std@@PBU_GUID@@U?$less@V?$basic_string@DU?$char_traits@D@std@@V?$allocator@D@2@@std@@@2@V?$allocator@U?$pair@$$CBV?$basic_string@DU?$char_traits@D@std@@V?$allocator@D@2@@std@@PBU_GUID@@@std@@@2@$0A@@std@@@2@@Z 0042a410 f i cinder:ImageTargetFileWic.obj
 0001:00029410       ?_Rrotate@?$_Tree@V?$_Tmap_traits@V?$basic_string@DU?$char_traits@D@std@@V?$allocator@D@2@@std@@_NU?$less@V?$basic_string@DU?$char_traits@D@std@@V?$allocator@D@2@@std@@@2@V?$allocator@U?$pair@$$CBV?$basic_string@DU?$char_traits@D@std@@V?$allocator@D@2@@std@@_N@std@@@2@$0A@@std@@@std@@IAEXPAU_Node@?$_Tree_nod@V?$_Tmap_traits@V?$basic_string@DU?$char_traits@D@std@@V?$allocator@D@2@@std@@_NU?$less@V?$basic_string@DU?$char_traits@D@std@@V?$allocator@D@2@@std@@@2@V?$allocator@U?$pair@$$CBV?$basic_string@DU?$char_traits@D@std@@V?$allocator@D@2@@std@@_N@std@@@2@$0A@@std@@@2@@Z 0042a410 f i cinder:gl.obj
 0001:00029470       ?draw@gl@cinder@@YAXABVTexture@12@ABV?$AreaT@H@2@ABV?$RectT@M@2@@Z 0042a470 f   cinder:gl.obj
 0001:00029620       ?draw@gl@cinder@@YAXABVTexture@12@@Z 0042a620 f   cinder:gl.obj
 0001:00029690       ?draw@gl@cinder@@YAXABVTexture@12@ABV?$Vec2@M@2@@Z 0042a690 f   cinder:gl.obj
 0001:00029730       ?erase@?$_Tree@V?$_Tmap_traits@V?$basic_string@DU?$char_traits@D@std@@V?$allocator@D@2@@std@@HU?$less@V?$basic_string@DU?$char_traits@D@std@@V?$allocator@D@2@@std@@@2@V?$allocator@U?$pair@$$CBV?$basic_string@DU?$char_traits@D@std@@V?$allocator@D@2@@std@@H@std@@@2@$0A@@std@@@std@@QAE?AV?$_Tree_iterator@V?$_Tree_val@V?$_Tmap_traits@V?$basic_string@DU?$char_traits@D@std@@V?$allocator@D@2@@std@@HU?$less@V?$basic_string@DU?$char_traits@D@std@@V?$allocator@D@2@@std@@@2@V?$allocator@U?$pair@$$CBV?$basic_string@DU?$char_traits@D@std@@V?$allocator@D@2@@std@@H@std@@@2@$0A@@std@@@std@@@2@V?$_Tree_const_iterator@V?$_Tree_val@V?$_Tmap_traits@V?$basic_string@DU?$char_traits@D@std@@V?$allocator@D@2@@std@@HU?$less@V?$basic_string@DU?$char_traits@D@std@@V?$allocator@D@2@@std@@@2@V?$allocator@U?$pair@$$CBV?$basic_string@DU?$char_traits@D@std@@V?$allocator@D@2@@std@@H@std@@@2@$0A@@std@@@std@@@2@@Z 0042a730 f i cinder:GlslProg.obj
 0001:00029730       ?erase@?$_Tree@V?$_Tmap_traits@V?$basic_string@DU?$char_traits@D@std@@V?$allocator@D@2@@std@@PBU_GUID@@U?$less@V?$basic_string@DU?$char_traits@D@std@@V?$allocator@D@2@@std@@@2@V?$allocator@U?$pair@$$CBV?$basic_string@DU?$char_traits@D@std@@V?$allocator@D@2@@std@@PBU_GUID@@@std@@@2@$0A@@std@@@std@@QAE?AV?$_Tree_iterator@V?$_Tree_val@V?$_Tmap_traits@V?$basic_string@DU?$char_traits@D@std@@V?$allocator@D@2@@std@@PBU_GUID@@U?$less@V?$basic_string@DU?$char_traits@D@std@@V?$allocator@D@2@@std@@@2@V?$allocator@U?$pair@$$CBV?$basic_string@DU?$char_traits@D@std@@V?$allocator@D@2@@std@@PBU_GUID@@@std@@@2@$0A@@std@@@std@@@2@V?$_Tree_const_iterator@V?$_Tree_val@V?$_Tmap_traits@V?$basic_string@DU?$char_traits@D@std@@V?$allocator@D@2@@std@@PBU_GUID@@U?$less@V?$basic_string@DU?$char_traits@D@std@@V?$allocator@D@2@@std@@@2@V?$allocator@U?$pair@$$CBV?$basic_string@DU?$char_traits@D@std@@V?$allocator@D@2@@std@@PBU_GUID@@@std@@@2@$0A@@std@@@std@@@2@@Z 0042a730 f i cinder:ImageTargetFileWic.obj
 0001:00029730       ?erase@?$_Tree@V?$_Tmap_traits@V?$basic_string@DU?$char_traits@D@std@@V?$allocator@D@2@@std@@_NU?$less@V?$basic_string@DU?$char_traits@D@std@@V?$allocator@D@2@@std@@@2@V?$allocator@U?$pair@$$CBV?$basic_string@DU?$char_traits@D@std@@V?$allocator@D@2@@std@@_N@std@@@2@$0A@@std@@@std@@QAE?AV?$_Tree_iterator@V?$_Tree_val@V?$_Tmap_traits@V?$basic_string@DU?$char_traits@D@std@@V?$allocator@D@2@@std@@_NU?$less@V?$basic_string@DU?$char_traits@D@std@@V?$allocator@D@2@@std@@@2@V?$allocator@U?$pair@$$CBV?$basic_string@DU?$char_traits@D@std@@V?$allocator@D@2@@std@@_N@std@@@2@$0A@@std@@@std@@@2@V?$_Tree_const_iterator@V?$_Tree_val@V?$_Tmap_traits@V?$basic_string@DU?$char_traits@D@std@@V?$allocator@D@2@@std@@_NU?$less@V?$basic_string@DU?$char_traits@D@std@@V?$allocator@D@2@@std@@@2@V?$allocator@U?$pair@$$CBV?$basic_string@DU?$char_traits@D@std@@V?$allocator@D@2@@std@@_N@std@@@2@$0A@@std@@@std@@@2@@Z 0042a730 f i cinder:gl.obj
 0001:000299b0       ?_Erase@?$_Tree@V?$_Tmap_traits@V?$basic_string@DU?$char_traits@D@std@@V?$allocator@D@2@@std@@PBU_GUID@@U?$less@V?$basic_string@DU?$char_traits@D@std@@V?$allocator@D@2@@std@@@2@V?$allocator@U?$pair@$$CBV?$basic_string@DU?$char_traits@D@std@@V?$allocator@D@2@@std@@PBU_GUID@@@std@@@2@$0A@@std@@@std@@IAEXPAU_Node@?$_Tree_nod@V?$_Tmap_traits@V?$basic_string@DU?$char_traits@D@std@@V?$allocator@D@2@@std@@PBU_GUID@@U?$less@V?$basic_string@DU?$char_traits@D@std@@V?$allocator@D@2@@std@@@2@V?$allocator@U?$pair@$$CBV?$basic_string@DU?$char_traits@D@std@@V?$allocator@D@2@@std@@PBU_GUID@@@std@@@2@$0A@@std@@@2@@Z 0042a9b0 f i cinder:ImageTargetFileWic.obj
 0001:000299b0       ?_Erase@?$_Tree@V?$_Tmap_traits@V?$basic_string@DU?$char_traits@D@std@@V?$allocator@D@2@@std@@HU?$less@V?$basic_string@DU?$char_traits@D@std@@V?$allocator@D@2@@std@@@2@V?$allocator@U?$pair@$$CBV?$basic_string@DU?$char_traits@D@std@@V?$allocator@D@2@@std@@H@std@@@2@$0A@@std@@@std@@IAEXPAU_Node@?$_Tree_nod@V?$_Tmap_traits@V?$basic_string@DU?$char_traits@D@std@@V?$allocator@D@2@@std@@HU?$less@V?$basic_string@DU?$char_traits@D@std@@V?$allocator@D@2@@std@@@2@V?$allocator@U?$pair@$$CBV?$basic_string@DU?$char_traits@D@std@@V?$allocator@D@2@@std@@H@std@@@2@$0A@@std@@@2@@Z 0042a9b0 f i cinder:GlslProg.obj
 0001:000299b0       ?_Erase@?$_Tree@V?$_Tmap_traits@V?$basic_string@DU?$char_traits@D@std@@V?$allocator@D@2@@std@@_NU?$less@V?$basic_string@DU?$char_traits@D@std@@V?$allocator@D@2@@std@@@2@V?$allocator@U?$pair@$$CBV?$basic_string@DU?$char_traits@D@std@@V?$allocator@D@2@@std@@_N@std@@@2@$0A@@std@@@std@@IAEXPAU_Node@?$_Tree_nod@V?$_Tmap_traits@V?$basic_string@DU?$char_traits@D@std@@V?$allocator@D@2@@std@@_NU?$less@V?$basic_string@DU?$char_traits@D@std@@V?$allocator@D@2@@std@@@2@V?$allocator@U?$pair@$$CBV?$basic_string@DU?$char_traits@D@std@@V?$allocator@D@2@@std@@_N@std@@@2@$0A@@std@@@2@@Z 0042a9b0 f i cinder:gl.obj
 0001:00029a10       ??$_Buynode@U?$pair@$$CBV?$basic_string@DU?$char_traits@D@std@@V?$allocator@D@2@@std@@_N@std@@@?$_Tree_val@V?$_Tmap_traits@V?$basic_string@DU?$char_traits@D@std@@V?$allocator@D@2@@std@@_NU?$less@V?$basic_string@DU?$char_traits@D@std@@V?$allocator@D@2@@std@@@2@V?$allocator@U?$pair@$$CBV?$basic_string@DU?$char_traits@D@std@@V?$allocator@D@2@@std@@_N@std@@@2@$0A@@std@@@std@@QAEPAU_Node@?$_Tree_nod@V?$_Tmap_traits@V?$basic_string@DU?$char_traits@D@std@@V?$allocator@D@2@@std@@_NU?$less@V?$basic_string@DU?$char_traits@D@std@@V?$allocator@D@2@@std@@@2@V?$allocator@U?$pair@$$CBV?$basic_string@DU?$char_traits@D@std@@V?$allocator@D@2@@std@@_N@std@@@2@$0A@@std@@@1@$$QAU?$pair@$$CBV?$basic_string@DU?$char_traits@D@std@@V?$allocator@D@2@@std@@_N@1@@Z 0042aa10 f i cinder:gl.obj
 0001:00029af0       ?erase@?$_Tree@V?$_Tmap_traits@V?$basic_string@DU?$char_traits@D@std@@V?$allocator@D@2@@std@@PBU_GUID@@U?$less@V?$basic_string@DU?$char_traits@D@std@@V?$allocator@D@2@@std@@@2@V?$allocator@U?$pair@$$CBV?$basic_string@DU?$char_traits@D@std@@V?$allocator@D@2@@std@@PBU_GUID@@@std@@@2@$0A@@std@@@std@@QAE?AV?$_Tree_iterator@V?$_Tree_val@V?$_Tmap_traits@V?$basic_string@DU?$char_traits@D@std@@V?$allocator@D@2@@std@@PBU_GUID@@U?$less@V?$basic_string@DU?$char_traits@D@std@@V?$allocator@D@2@@std@@@2@V?$allocator@U?$pair@$$CBV?$basic_string@DU?$char_traits@D@std@@V?$allocator@D@2@@std@@PBU_GUID@@@std@@@2@$0A@@std@@@std@@@2@V?$_Tree_const_iterator@V?$_Tree_val@V?$_Tmap_traits@V?$basic_string@DU?$char_traits@D@std@@V?$allocator@D@2@@std@@PBU_GUID@@U?$less@V?$basic_string@DU?$char_traits@D@std@@V?$allocator@D@2@@std@@@2@V?$allocator@U?$pair@$$CBV?$basic_string@DU?$char_traits@D@std@@V?$allocator@D@2@@std@@PBU_GUID@@@std@@@2@$0A@@std@@@std@@@2@0@Z 0042aaf0 f i cinder:ImageTargetFileWic.obj
 0001:00029af0       ?erase@?$_Tree@V?$_Tmap_traits@V?$basic_string@DU?$char_traits@D@std@@V?$allocator@D@2@@std@@_NU?$less@V?$basic_string@DU?$char_traits@D@std@@V?$allocator@D@2@@std@@@2@V?$allocator@U?$pair@$$CBV?$basic_string@DU?$char_traits@D@std@@V?$allocator@D@2@@std@@_N@std@@@2@$0A@@std@@@std@@QAE?AV?$_Tree_iterator@V?$_Tree_val@V?$_Tmap_traits@V?$basic_string@DU?$char_traits@D@std@@V?$allocator@D@2@@std@@_NU?$less@V?$basic_string@DU?$char_traits@D@std@@V?$allocator@D@2@@std@@@2@V?$allocator@U?$pair@$$CBV?$basic_string@DU?$char_traits@D@std@@V?$allocator@D@2@@std@@_N@std@@@2@$0A@@std@@@std@@@2@V?$_Tree_const_iterator@V?$_Tree_val@V?$_Tmap_traits@V?$basic_string@DU?$char_traits@D@std@@V?$allocator@D@2@@std@@_NU?$less@V?$basic_string@DU?$char_traits@D@std@@V?$allocator@D@2@@std@@@2@V?$allocator@U?$pair@$$CBV?$basic_string@DU?$char_traits@D@std@@V?$allocator@D@2@@std@@_N@std@@@2@$0A@@std@@@std@@@2@0@Z 0042aaf0 f i cinder:gl.obj
 0001:00029af0       ?erase@?$_Tree@V?$_Tmap_traits@V?$basic_string@DU?$char_traits@D@std@@V?$allocator@D@2@@std@@HU?$less@V?$basic_string@DU?$char_traits@D@std@@V?$allocator@D@2@@std@@@2@V?$allocator@U?$pair@$$CBV?$basic_string@DU?$char_traits@D@std@@V?$allocator@D@2@@std@@H@std@@@2@$0A@@std@@@std@@QAE?AV?$_Tree_iterator@V?$_Tree_val@V?$_Tmap_traits@V?$basic_string@DU?$char_traits@D@std@@V?$allocator@D@2@@std@@HU?$less@V?$basic_string@DU?$char_traits@D@std@@V?$allocator@D@2@@std@@@2@V?$allocator@U?$pair@$$CBV?$basic_string@DU?$char_traits@D@std@@V?$allocator@D@2@@std@@H@std@@@2@$0A@@std@@@std@@@2@V?$_Tree_const_iterator@V?$_Tree_val@V?$_Tmap_traits@V?$basic_string@DU?$char_traits@D@std@@V?$allocator@D@2@@std@@HU?$less@V?$basic_string@DU?$char_traits@D@std@@V?$allocator@D@2@@std@@@2@V?$allocator@U?$pair@$$CBV?$basic_string@DU?$char_traits@D@std@@V?$allocator@D@2@@std@@H@std@@@2@$0A@@std@@@std@@@2@0@Z 0042aaf0 f i cinder:GlslProg.obj
 0001:00029bb0       ??A?$map@V?$basic_string@DU?$char_traits@D@std@@V?$allocator@D@2@@std@@_NU?$less@V?$basic_string@DU?$char_traits@D@std@@V?$allocator@D@2@@std@@@2@V?$allocator@U?$pair@$$CBV?$basic_string@DU?$char_traits@D@std@@V?$allocator@D@2@@std@@_N@std@@@2@@std@@QAEAA_NABV?$basic_string@DU?$char_traits@D@std@@V?$allocator@D@2@@1@@Z 0042abb0 f i cinder:gl.obj
 0001:00029c90       ?isExtensionAvailable@gl@cinder@@YA_NABV?$basic_string@DU?$char_traits@D@std@@V?$allocator@D@2@@std@@@Z 0042ac90 f   cinder:gl.obj
 0001:00029e70       ??0Format@Texture@gl@cinder@@QAE@XZ 0042ae70 f   cinder:Texture.obj
 0001:00029ea0       ??$checked_array_delete@E@boost@@YAXPAE@Z 0042aea0 f i cinder:Texture.obj
 0001:00029eb0       ??_GObj@Texture@gl@cinder@@QAEPAXI@Z 0042aeb0 f i cinder:Texture.obj
 0001:00029f00       ?_Destroy@?$_Ref_count@UObj@Texture@gl@cinder@@@tr1@std@@EAEXXZ 0042af00 f i cinder:Texture.obj
 0001:00029f40       ?_Get_deleter@?$_Ref_count_del@EU?$checked_array_deleter@E@boost@@@tr1@std@@UBEPAXABVtype_info@@@Z 0042af40 f i cinder:Texture.obj
 0001:00029f70       ?_Get_deleter@?$_Ref_count_del@EP6AXPAE@Z@tr1@std@@UBEPAXABVtype_info@@@Z 0042af70 f i cinder:Texture.obj
 0001:00029fa0       ?init@Texture@gl@cinder@@IAEXPBEHIIABUFormat@123@@Z 0042afa0 f   cinder:Texture.obj
 0001:0002a0b0       ?bind@Texture@gl@cinder@@QBEXI@Z 0042b0b0 f   cinder:Texture.obj
 0001:0002a0f0       ?unbind@Texture@gl@cinder@@QBEXI@Z 0042b0f0 f   cinder:Texture.obj
 0001:0002a130       ?enableAndBind@Texture@gl@cinder@@QBEXXZ 0042b130 f   cinder:Texture.obj
 0001:0002a160       ??$_Resetp@UObj@Texture@gl@cinder@@@?$shared_ptr@UObj@Texture@gl@cinder@@@tr1@std@@AAEXPAUObj@Texture@gl@cinder@@@Z 0042b160 f i cinder:Texture.obj
 0001:0002a200       ?getWidth@Texture@gl@cinder@@QBEHXZ 0042b200 f   cinder:Texture.obj
 0001:0002a280       ?getHeight@Texture@gl@cinder@@QBEHXZ 0042b280 f   cinder:Texture.obj
 0001:0002a300       ?getCleanWidth@Texture@gl@cinder@@QBEHXZ 0042b300 f   cinder:Texture.obj
 0001:0002a380       ?getCleanHeight@Texture@gl@cinder@@QBEHXZ 0042b380 f   cinder:Texture.obj
 0001:0002a400       ?getAreaTexCoords@Texture@gl@cinder@@QBE?AV?$RectT@M@3@ABV?$AreaT@H@3@@Z 0042b400 f   cinder:Texture.obj
 0001:0002a4d0       ??$_Resetp@EU?$checked_array_deleter@E@boost@@@?$shared_ptr@E@tr1@std@@AAEXPAEU?$checked_array_deleter@E@boost@@@Z 0042b4d0 f i cinder:Texture.obj
 0001:0002a570       ??$_Resetp@EP6AXPAE@Z@?$shared_ptr@E@tr1@std@@AAEXPAEP6AX0@Z@Z 0042b570 f i cinder:Texture.obj
 0001:0002a610       ??0Texture@gl@cinder@@QAE@HHUFormat@012@@Z 0042b610 f   cinder:Texture.obj
 0001:0002a6a0       ??0Texture@gl@cinder@@QAE@IIHH_N@Z 0042b6a0 f   cinder:Texture.obj
 0001:0002a750       ??$?0EP6AXPAE@Z@?$shared_ptr@E@tr1@std@@QAE@PAEP6AX0@Z@Z 0042b750 f i cinder:Texture.obj
 0001:0002a780       ??0ImageIoException@cinder@@QAE@ABV01@@Z 0042b780 f i cinder:Texture.obj
 0001:0002a7a0       ??0ImageIoExceptionIllegalColorModel@cinder@@QAE@ABV01@@Z 0042b7a0 f i cinder:Texture.obj
 0001:0002a7c0       ?SurfaceChannelOrderToDataFormatAndType@Texture@gl@cinder@@SAXABVSurfaceChannelOrder@3@PAHPAI@Z 0042b7c0 f   cinder:Texture.obj
 0001:0002a8f0       ??0TextureDataExc@gl@cinder@@QAE@ABV012@@Z 0042b8f0 f i cinder:Texture.obj
 0001:0002a930       ??0Texture@gl@cinder@@QAE@ABV?$SurfaceT@E@2@UFormat@012@@Z 0042b930 f   cinder:Texture.obj
 0001:0002aa20       ?unbind@GlslProg@gl@cinder@@SAXXZ 0042ba20 f   cinder:GlslProg.obj
 0001:0002aa30       ?_Max@?$_Tree_val@V?$_Tmap_traits@V?$basic_string@DU?$char_traits@D@std@@V?$allocator@D@2@@std@@PBU_GUID@@U?$less@V?$basic_string@DU?$char_traits@D@std@@V?$allocator@D@2@@std@@@2@V?$allocator@U?$pair@$$CBV?$basic_string@DU?$char_traits@D@std@@V?$allocator@D@2@@std@@PBU_GUID@@@std@@@2@$0A@@std@@@std@@SAPAU_Node@?$_Tree_nod@V?$_Tmap_traits@V?$basic_string@DU?$char_traits@D@std@@V?$allocator@D@2@@std@@PBU_GUID@@U?$less@V?$basic_string@DU?$char_traits@D@std@@V?$allocator@D@2@@std@@@2@V?$allocator@U?$pair@$$CBV?$basic_string@DU?$char_traits@D@std@@V?$allocator@D@2@@std@@PBU_GUID@@@std@@@2@$0A@@std@@@2@PAU342@@Z 0042ba30 f i cinder:ImageTargetFileWic.obj
 0001:0002aa30       ?_Max@?$_Tree_val@V?$_Tmap_traits@V?$basic_string@DU?$char_traits@D@std@@V?$allocator@D@2@@std@@_NU?$less@V?$basic_string@DU?$char_traits@D@std@@V?$allocator@D@2@@std@@@2@V?$allocator@U?$pair@$$CBV?$basic_string@DU?$char_traits@D@std@@V?$allocator@D@2@@std@@_N@std@@@2@$0A@@std@@@std@@SAPAU_Node@?$_Tree_nod@V?$_Tmap_traits@V?$basic_string@DU?$char_traits@D@std@@V?$allocator@D@2@@std@@_NU?$less@V?$basic_string@DU?$char_traits@D@std@@V?$allocator@D@2@@std@@@2@V?$allocator@U?$pair@$$CBV?$basic_string@DU?$char_traits@D@std@@V?$allocator@D@2@@std@@_N@std@@@2@$0A@@std@@@2@PAU342@@Z 0042ba30 f i cinder:gl.obj
 0001:0002aa30       ?_Max@?$_Tree_val@V?$_Tmap_traits@V?$basic_string@DU?$char_traits@D@std@@V?$allocator@D@2@@std@@HU?$less@V?$basic_string@DU?$char_traits@D@std@@V?$allocator@D@2@@std@@@2@V?$allocator@U?$pair@$$CBV?$basic_string@DU?$char_traits@D@std@@V?$allocator@D@2@@std@@H@std@@@2@$0A@@std@@@std@@SAPAU_Node@?$_Tree_nod@V?$_Tmap_traits@V?$basic_string@DU?$char_traits@D@std@@V?$allocator@D@2@@std@@HU?$less@V?$basic_string@DU?$char_traits@D@std@@V?$allocator@D@2@@std@@@2@V?$allocator@U?$pair@$$CBV?$basic_string@DU?$char_traits@D@std@@V?$allocator@D@2@@std@@H@std@@@2@$0A@@std@@@2@PAU342@@Z 0042ba30 f i cinder:GlslProg.obj
 0001:0002aa50       ?bind@GlslProg@gl@cinder@@QBEXXZ 0042ba50 f   cinder:GlslProg.obj
 0001:0002aa60       ??0GlslProgCompileExc@gl@cinder@@QAE@ABV?$basic_string@DU?$char_traits@D@std@@V?$allocator@D@2@@std@@H@Z 0042ba60 f   cinder:GlslProg.obj
 0001:0002aae0       ??1?$pair@$$CBV?$basic_string@DU?$char_traits@D@std@@V?$allocator@D@2@@std@@PBU_GUID@@@std@@QAE@XZ 0042bae0 f i cinder:ImageTargetFileWic.obj
 0001:0002aae0       ??1?$pair@$$CBV?$basic_string@DU?$char_traits@D@std@@V?$allocator@D@2@@std@@H@std@@QAE@XZ 0042bae0 f i cinder:GlslProg.obj
 0001:0002aae0       ??1Url@cinder@@QAE@XZ      0042bae0 f i cinder:DataSource.obj
 0001:0002aae0       ??1?$basic_string@DU?$char_traits@D@std@@V?$allocator@D@2@@std@@QAE@XZ 0042bae0 f i ThreeDeeApp.obj
 0001:0002aae0       ??1?$pair@$$CBV?$basic_string@DU?$char_traits@D@std@@V?$allocator@D@2@@std@@_N@std@@QAE@XZ 0042bae0 f i cinder:gl.obj
 0001:0002aae0       ??1?$basic_string@DU?$traits_extension@U?$char_traits@D@std@@@tokenizer_detail@boost@@V?$allocator@D@std@@@std@@QAE@XZ 0042bae0 f i cinder:Utilities.obj
 0001:0002ab10       ?_Lbound@?$_Tree@V?$_Tmap_traits@V?$basic_string@DU?$char_traits@D@std@@V?$allocator@D@2@@std@@PBU_GUID@@U?$less@V?$basic_string@DU?$char_traits@D@std@@V?$allocator@D@2@@std@@@2@V?$allocator@U?$pair@$$CBV?$basic_string@DU?$char_traits@D@std@@V?$allocator@D@2@@std@@PBU_GUID@@@std@@@2@$0A@@std@@@std@@IAEPAU_Node@?$_Tree_nod@V?$_Tmap_traits@V?$basic_string@DU?$char_traits@D@std@@V?$allocator@D@2@@std@@PBU_GUID@@U?$less@V?$basic_string@DU?$char_traits@D@std@@V?$allocator@D@2@@std@@@2@V?$allocator@U?$pair@$$CBV?$basic_string@DU?$char_traits@D@std@@V?$allocator@D@2@@std@@PBU_GUID@@@std@@@2@$0A@@std@@@2@ABV?$basic_string@DU?$char_traits@D@std@@V?$allocator@D@2@@2@@Z 0042bb10 f i cinder:ImageTargetFileWic.obj
 0001:0002ab10       ?_Lbound@?$_Tree@V?$_Tmap_traits@V?$basic_string@DU?$char_traits@D@std@@V?$allocator@D@2@@std@@_NU?$less@V?$basic_string@DU?$char_traits@D@std@@V?$allocator@D@2@@std@@@2@V?$allocator@U?$pair@$$CBV?$basic_string@DU?$char_traits@D@std@@V?$allocator@D@2@@std@@_N@std@@@2@$0A@@std@@@std@@IAEPAU_Node@?$_Tree_nod@V?$_Tmap_traits@V?$basic_string@DU?$char_traits@D@std@@V?$allocator@D@2@@std@@_NU?$less@V?$basic_string@DU?$char_traits@D@std@@V?$allocator@D@2@@std@@@2@V?$allocator@U?$pair@$$CBV?$basic_string@DU?$char_traits@D@std@@V?$allocator@D@2@@std@@_N@std@@@2@$0A@@std@@@2@ABV?$basic_string@DU?$char_traits@D@std@@V?$allocator@D@2@@2@@Z 0042bb10 f i cinder:gl.obj
 0001:0002ab10       ?_Lbound@?$_Tree@V?$_Tmap_traits@V?$basic_string@DU?$char_traits@D@std@@V?$allocator@D@2@@std@@HU?$less@V?$basic_string@DU?$char_traits@D@std@@V?$allocator@D@2@@std@@@2@V?$allocator@U?$pair@$$CBV?$basic_string@DU?$char_traits@D@std@@V?$allocator@D@2@@std@@H@std@@@2@$0A@@std@@@std@@IAEPAU_Node@?$_Tree_nod@V?$_Tmap_traits@V?$basic_string@DU?$char_traits@D@std@@V?$allocator@D@2@@std@@HU?$less@V?$basic_string@DU?$char_traits@D@std@@V?$allocator@D@2@@std@@@2@V?$allocator@U?$pair@$$CBV?$basic_string@DU?$char_traits@D@std@@V?$allocator@D@2@@std@@H@std@@@2@$0A@@std@@@2@ABV?$basic_string@DU?$char_traits@D@std@@V?$allocator@D@2@@2@@Z 0042bb10 f i cinder:GlslProg.obj
 0001:0002aba0       ?_Insert@?$_Tree@V?$_Tmap_traits@V?$basic_string@DU?$char_traits@D@std@@V?$allocator@D@2@@std@@HU?$less@V?$basic_string@DU?$char_traits@D@std@@V?$allocator@D@2@@std@@@2@V?$allocator@U?$pair@$$CBV?$basic_string@DU?$char_traits@D@std@@V?$allocator@D@2@@std@@H@std@@@2@$0A@@std@@@std@@IAE?AV?$_Tree_iterator@V?$_Tree_val@V?$_Tmap_traits@V?$basic_string@DU?$char_traits@D@std@@V?$allocator@D@2@@std@@HU?$less@V?$basic_string@DU?$char_traits@D@std@@V?$allocator@D@2@@std@@@2@V?$allocator@U?$pair@$$CBV?$basic_string@DU?$char_traits@D@std@@V?$allocator@D@2@@std@@H@std@@@2@$0A@@std@@@std@@@2@_NPAU_Node@?$_Tree_nod@V?$_Tmap_traits@V?$basic_string@DU?$char_traits@D@std@@V?$allocator@D@2@@std@@HU?$less@V?$basic_string@DU?$char_traits@D@std@@V?$allocator@D@2@@std@@@2@V?$allocator@U?$pair@$$CBV?$basic_string@DU?$char_traits@D@std@@V?$allocator@D@2@@std@@H@std@@@2@$0A@@std@@@2@1@Z 0042bba0 f i cinder:GlslProg.obj
 0001:0002aba0       ?_Insert@?$_Tree@V?$_Tmap_traits@V?$basic_string@DU?$char_traits@D@std@@V?$allocator@D@2@@std@@_NU?$less@V?$basic_string@DU?$char_traits@D@std@@V?$allocator@D@2@@std@@@2@V?$allocator@U?$pair@$$CBV?$basic_string@DU?$char_traits@D@std@@V?$allocator@D@2@@std@@_N@std@@@2@$0A@@std@@@std@@IAE?AV?$_Tree_iterator@V?$_Tree_val@V?$_Tmap_traits@V?$basic_string@DU?$char_traits@D@std@@V?$allocator@D@2@@std@@_NU?$less@V?$basic_string@DU?$char_traits@D@std@@V?$allocator@D@2@@std@@@2@V?$allocator@U?$pair@$$CBV?$basic_string@DU?$char_traits@D@std@@V?$allocator@D@2@@std@@_N@std@@@2@$0A@@std@@@std@@@2@_NPAU_Node@?$_Tree_nod@V?$_Tmap_traits@V?$basic_string@DU?$char_traits@D@std@@V?$allocator@D@2@@std@@_NU?$less@V?$basic_string@DU?$char_traits@D@std@@V?$allocator@D@2@@std@@@2@V?$allocator@U?$pair@$$CBV?$basic_string@DU?$char_traits@D@std@@V?$allocator@D@2@@std@@_N@std@@@2@$0A@@std@@@2@1@Z 0042bba0 f i cinder:gl.obj
 0001:0002aba0       ?_Insert@?$_Tree@V?$_Tmap_traits@V?$basic_string@DU?$char_traits@D@std@@V?$allocator@D@2@@std@@PBU_GUID@@U?$less@V?$basic_string@DU?$char_traits@D@std@@V?$allocator@D@2@@std@@@2@V?$allocator@U?$pair@$$CBV?$basic_string@DU?$char_traits@D@std@@V?$allocator@D@2@@std@@PBU_GUID@@@std@@@2@$0A@@std@@@std@@IAE?AV?$_Tree_iterator@V?$_Tree_val@V?$_Tmap_traits@V?$basic_string@DU?$char_traits@D@std@@V?$allocator@D@2@@std@@PBU_GUID@@U?$less@V?$basic_string@DU?$char_traits@D@std@@V?$allocator@D@2@@std@@@2@V?$allocator@U?$pair@$$CBV?$basic_string@DU?$char_traits@D@std@@V?$allocator@D@2@@std@@PBU_GUID@@@std@@@2@$0A@@std@@@std@@@2@_NPAU_Node@?$_Tree_nod@V?$_Tmap_traits@V?$basic_string@DU?$char_traits@D@std@@V?$allocator@D@2@@std@@PBU_GUID@@U?$less@V?$basic_string@DU?$char_traits@D@std@@V?$allocator@D@2@@std@@@2@V?$allocator@U?$pair@$$CBV?$basic_string@DU?$char_traits@D@std@@V?$allocator@D@2@@std@@PBU_GUID@@@std@@@2@$0A@@std@@@2@1@Z 0042bba0 f i cinder:ImageTargetFileWic.obj
 0001:0002adf0       ?_Linsert@?$_Tree@V?$_Tmap_traits@V?$basic_string@DU?$char_traits@D@std@@V?$allocator@D@2@@std@@HU?$less@V?$basic_string@DU?$char_traits@D@std@@V?$allocator@D@2@@std@@@2@V?$allocator@U?$pair@$$CBV?$basic_string@DU?$char_traits@D@std@@V?$allocator@D@2@@std@@H@std@@@2@$0A@@std@@@std@@QAE?AU?$pair@V?$_Tree_iterator@V?$_Tree_val@V?$_Tmap_traits@V?$basic_string@DU?$char_traits@D@std@@V?$allocator@D@2@@std@@HU?$less@V?$basic_string@DU?$char_traits@D@std@@V?$allocator@D@2@@std@@@2@V?$allocator@U?$pair@$$CBV?$basic_string@DU?$char_traits@D@std@@V?$allocator@D@2@@std@@H@std@@@2@$0A@@std@@@std@@@std@@_N@2@PAU_Node@?$_Tree_nod@V?$_Tmap_traits@V?$basic_string@DU?$char_traits@D@std@@V?$allocator@D@2@@std@@HU?$less@V?$basic_string@DU?$char_traits@D@std@@V?$allocator@D@2@@std@@@2@V?$allocator@U?$pair@$$CBV?$basic_string@DU?$char_traits@D@std@@V?$allocator@D@2@@std@@H@std@@@2@$0A@@std@@@2@_N@Z 0042bdf0 f i cinder:GlslProg.obj
 0001:0002adf0       ?_Linsert@?$_Tree@V?$_Tmap_traits@V?$basic_string@DU?$char_traits@D@std@@V?$allocator@D@2@@std@@PBU_GUID@@U?$less@V?$basic_string@DU?$char_traits@D@std@@V?$allocator@D@2@@std@@@2@V?$allocator@U?$pair@$$CBV?$basic_string@DU?$char_traits@D@std@@V?$allocator@D@2@@std@@PBU_GUID@@@std@@@2@$0A@@std@@@std@@QAE?AU?$pair@V?$_Tree_iterator@V?$_Tree_val@V?$_Tmap_traits@V?$basic_string@DU?$char_traits@D@std@@V?$allocator@D@2@@std@@PBU_GUID@@U?$less@V?$basic_string@DU?$char_traits@D@std@@V?$allocator@D@2@@std@@@2@V?$allocator@U?$pair@$$CBV?$basic_string@DU?$char_traits@D@std@@V?$allocator@D@2@@std@@PBU_GUID@@@std@@@2@$0A@@std@@@std@@@std@@_N@2@PAU_Node@?$_Tree_nod@V?$_Tmap_traits@V?$basic_string@DU?$char_traits@D@std@@V?$allocator@D@2@@std@@PBU_GUID@@U?$less@V?$basic_string@DU?$char_traits@D@std@@V?$allocator@D@2@@std@@@2@V?$allocator@U?$pair@$$CBV?$basic_string@DU?$char_traits@D@std@@V?$allocator@D@2@@std@@PBU_GUID@@@std@@@2@$0A@@std@@@2@_N@Z 0042bdf0 f i cinder:ImageTargetFileWic.obj
 0001:0002adf0       ?_Linsert@?$_Tree@V?$_Tmap_traits@V?$basic_string@DU?$char_traits@D@std@@V?$allocator@D@2@@std@@_NU?$less@V?$basic_string@DU?$char_traits@D@std@@V?$allocator@D@2@@std@@@2@V?$allocator@U?$pair@$$CBV?$basic_string@DU?$char_traits@D@std@@V?$allocator@D@2@@std@@_N@std@@@2@$0A@@std@@@std@@QAE?AU?$pair@V?$_Tree_iterator@V?$_Tree_val@V?$_Tmap_traits@V?$basic_string@DU?$char_traits@D@std@@V?$allocator@D@2@@std@@_NU?$less@V?$basic_string@DU?$char_traits@D@std@@V?$allocator@D@2@@std@@@2@V?$allocator@U?$pair@$$CBV?$basic_string@DU?$char_traits@D@std@@V?$allocator@D@2@@std@@_N@std@@@2@$0A@@std@@@std@@@std@@_N@2@PAU_Node@?$_Tree_nod@V?$_Tmap_traits@V?$basic_string@DU?$char_traits@D@std@@V?$allocator@D@2@@std@@_NU?$less@V?$basic_string@DU?$char_traits@D@std@@V?$allocator@D@2@@std@@@2@V?$allocator@U?$pair@$$CBV?$basic_string@DU?$char_traits@D@std@@V?$allocator@D@2@@std@@_N@std@@@2@$0A@@std@@@2@_N@Z 0042bdf0 f i cinder:gl.obj
 0001:0002afb0       ?getShaderLog@GlslProg@gl@cinder@@QBE?AV?$basic_string@DU?$char_traits@D@std@@V?$allocator@D@2@@std@@I@Z 0042bfb0 f   cinder:GlslProg.obj
 0001:0002b0c0       ?_Insert@?$_Tree@V?$_Tmap_traits@V?$basic_string@DU?$char_traits@D@std@@V?$allocator@D@2@@std@@PBU_GUID@@U?$less@V?$basic_string@DU?$char_traits@D@std@@V?$allocator@D@2@@std@@@2@V?$allocator@U?$pair@$$CBV?$basic_string@DU?$char_traits@D@std@@V?$allocator@D@2@@std@@PBU_GUID@@@std@@@2@$0A@@std@@@std@@QAE?AV?$_Tree_iterator@V?$_Tree_val@V?$_Tmap_traits@V?$basic_string@DU?$char_traits@D@std@@V?$allocator@D@2@@std@@PBU_GUID@@U?$less@V?$basic_string@DU?$char_traits@D@std@@V?$allocator@D@2@@std@@@2@V?$allocator@U?$pair@$$CBV?$basic_string@DU?$char_traits@D@std@@V?$allocator@D@2@@std@@PBU_GUID@@@std@@@2@$0A@@std@@@std@@@2@V?$_Tree_const_iterator@V?$_Tree_val@V?$_Tmap_traits@V?$basic_string@DU?$char_traits@D@std@@V?$allocator@D@2@@std@@PBU_GUID@@U?$less@V?$basic_string@DU?$char_traits@D@std@@V?$allocator@D@2@@std@@@2@V?$allocator@U?$pair@$$CBV?$basic_string@DU?$char_traits@D@std@@V?$allocator@D@2@@std@@PBU_GUID@@@std@@@2@$0A@@std@@@std@@@2@PAU_Node@?$_Tree_nod@V?$_Tmap_traits@V?$basic_string@DU?$char_traits@D@std@@V?$allocator@D@2@@std@@PBU_GUID@@U?$less@V?$basic_string@DU?$char_traits@D@std@@V?$allocator@D@2@@std@@@2@V?$allocator@U?$pair@$$CBV?$basic_string@DU?$char_traits@D@std@@V?$allocator@D@2@@std@@PBU_GUID@@@std@@@2@$0A@@std@@@2@@Z 0042c0c0 f i cinder:ImageTargetFileWic.obj
 0001:0002b0c0       ?_Insert@?$_Tree@V?$_Tmap_traits@V?$basic_string@DU?$char_traits@D@std@@V?$allocator@D@2@@std@@_NU?$less@V?$basic_string@DU?$char_traits@D@std@@V?$allocator@D@2@@std@@@2@V?$allocator@U?$pair@$$CBV?$basic_string@DU?$char_traits@D@std@@V?$allocator@D@2@@std@@_N@std@@@2@$0A@@std@@@std@@QAE?AV?$_Tree_iterator@V?$_Tree_val@V?$_Tmap_traits@V?$basic_string@DU?$char_traits@D@std@@V?$allocator@D@2@@std@@_NU?$less@V?$basic_string@DU?$char_traits@D@std@@V?$allocator@D@2@@std@@@2@V?$allocator@U?$pair@$$CBV?$basic_string@DU?$char_traits@D@std@@V?$allocator@D@2@@std@@_N@std@@@2@$0A@@std@@@std@@@2@V?$_Tree_const_iterator@V?$_Tree_val@V?$_Tmap_traits@V?$basic_string@DU?$char_traits@D@std@@V?$allocator@D@2@@std@@_NU?$less@V?$basic_string@DU?$char_traits@D@std@@V?$allocator@D@2@@std@@@2@V?$allocator@U?$pair@$$CBV?$basic_string@DU?$char_traits@D@std@@V?$allocator@D@2@@std@@_N@std@@@2@$0A@@std@@@std@@@2@PAU_Node@?$_Tree_nod@V?$_Tmap_traits@V?$basic_string@DU?$char_traits@D@std@@V?$allocator@D@2@@std@@_NU?$less@V?$basic_string@DU?$char_traits@D@std@@V?$allocator@D@2@@std@@@2@V?$allocator@U?$pair@$$CBV?$basic_string@DU?$char_traits@D@std@@V?$allocator@D@2@@std@@_N@std@@@2@$0A@@std@@@2@@Z 0042c0c0 f i cinder:gl.obj
 0001:0002b0c0       ?_Insert@?$_Tree@V?$_Tmap_traits@V?$basic_string@DU?$char_traits@D@std@@V?$allocator@D@2@@std@@HU?$less@V?$basic_string@DU?$char_traits@D@std@@V?$allocator@D@2@@std@@@2@V?$allocator@U?$pair@$$CBV?$basic_string@DU?$char_traits@D@std@@V?$allocator@D@2@@std@@H@std@@@2@$0A@@std@@@std@@QAE?AV?$_Tree_iterator@V?$_Tree_val@V?$_Tmap_traits@V?$basic_string@DU?$char_traits@D@std@@V?$allocator@D@2@@std@@HU?$less@V?$basic_string@DU?$char_traits@D@std@@V?$allocator@D@2@@std@@@2@V?$allocator@U?$pair@$$CBV?$basic_string@DU?$char_traits@D@std@@V?$allocator@D@2@@std@@H@std@@@2@$0A@@std@@@std@@@2@V?$_Tree_const_iterator@V?$_Tree_val@V?$_Tmap_traits@V?$basic_string@DU?$char_traits@D@std@@V?$allocator@D@2@@std@@HU?$less@V?$basic_string@DU?$char_traits@D@std@@V?$allocator@D@2@@std@@@2@V?$allocator@U?$pair@$$CBV?$basic_string@DU?$char_traits@D@std@@V?$allocator@D@2@@std@@H@std@@@2@$0A@@std@@@std@@@2@PAU_Node@?$_Tree_nod@V?$_Tmap_traits@V?$basic_string@DU?$char_traits@D@std@@V?$allocator@D@2@@std@@HU?$less@V?$basic_string@DU?$char_traits@D@std@@V?$allocator@D@2@@std@@@2@V?$allocator@U?$pair@$$CBV?$basic_string@DU?$char_traits@D@std@@V?$allocator@D@2@@std@@H@std@@@2@$0A@@std@@@2@@Z 0042c0c0 f i cinder:GlslProg.obj
 0001:0002b280       ?loadShader@GlslProg@gl@cinder@@IAEXPBDH@Z 0042c280 f   cinder:GlslProg.obj
 0001:0002b360       ??0GlslProgCompileExc@gl@cinder@@QAE@ABV012@@Z 0042c360 f i cinder:GlslProg.obj
 0001:0002b3a0       ??$_Buynode@U?$pair@$$CBV?$basic_string@DU?$char_traits@D@std@@V?$allocator@D@2@@std@@PBU_GUID@@@std@@@?$_Tree_val@V?$_Tmap_traits@V?$basic_string@DU?$char_traits@D@std@@V?$allocator@D@2@@std@@PBU_GUID@@U?$less@V?$basic_string@DU?$char_traits@D@std@@V?$allocator@D@2@@std@@@2@V?$allocator@U?$pair@$$CBV?$basic_string@DU?$char_traits@D@std@@V?$allocator@D@2@@std@@PBU_GUID@@@std@@@2@$0A@@std@@@std@@QAEPAU_Node@?$_Tree_nod@V?$_Tmap_traits@V?$basic_string@DU?$char_traits@D@std@@V?$allocator@D@2@@std@@PBU_GUID@@U?$less@V?$basic_string@DU?$char_traits@D@std@@V?$allocator@D@2@@std@@@2@V?$allocator@U?$pair@$$CBV?$basic_string@DU?$char_traits@D@std@@V?$allocator@D@2@@std@@PBU_GUID@@@std@@@2@$0A@@std@@@1@$$QAU?$pair@$$CBV?$basic_string@DU?$char_traits@D@std@@V?$allocator@D@2@@std@@PBU_GUID@@@1@@Z 0042c3a0 f i cinder:ImageTargetFileWic.obj
 0001:0002b3a0       ??$_Buynode@U?$pair@$$CBV?$basic_string@DU?$char_traits@D@std@@V?$allocator@D@2@@std@@H@std@@@?$_Tree_val@V?$_Tmap_traits@V?$basic_string@DU?$char_traits@D@std@@V?$allocator@D@2@@std@@HU?$less@V?$basic_string@DU?$char_traits@D@std@@V?$allocator@D@2@@std@@@2@V?$allocator@U?$pair@$$CBV?$basic_string@DU?$char_traits@D@std@@V?$allocator@D@2@@std@@H@std@@@2@$0A@@std@@@std@@QAEPAU_Node@?$_Tree_nod@V?$_Tmap_traits@V?$basic_string@DU?$char_traits@D@std@@V?$allocator@D@2@@std@@HU?$less@V?$basic_string@DU?$char_traits@D@std@@V?$allocator@D@2@@std@@@2@V?$allocator@U?$pair@$$CBV?$basic_string@DU?$char_traits@D@std@@V?$allocator@D@2@@std@@H@std@@@2@$0A@@std@@@1@$$QAU?$pair@$$CBV?$basic_string@DU?$char_traits@D@std@@V?$allocator@D@2@@std@@H@1@@Z 0042c3a0 f i cinder:GlslProg.obj
 0001:0002b480       ?loadShader@GlslProg@gl@cinder@@IAEXVBuffer@3@H@Z 0042c480 f   cinder:GlslProg.obj
 0001:0002b590       ??A?$map@V?$basic_string@DU?$char_traits@D@std@@V?$allocator@D@2@@std@@HU?$less@V?$basic_string@DU?$char_traits@D@std@@V?$allocator@D@2@@std@@@2@V?$allocator@U?$pair@$$CBV?$basic_string@DU?$char_traits@D@std@@V?$allocator@D@2@@std@@H@std@@@2@@std@@QAEAAHABV?$basic_string@DU?$char_traits@D@std@@V?$allocator@D@2@@1@@Z 0042c590 f i cinder:GlslProg.obj
 0001:0002b590       ??A?$map@V?$basic_string@DU?$char_traits@D@std@@V?$allocator@D@2@@std@@PBU_GUID@@U?$less@V?$basic_string@DU?$char_traits@D@std@@V?$allocator@D@2@@std@@@2@V?$allocator@U?$pair@$$CBV?$basic_string@DU?$char_traits@D@std@@V?$allocator@D@2@@std@@PBU_GUID@@@std@@@2@@std@@QAEAAPBU_GUID@@ABV?$basic_string@DU?$char_traits@D@std@@V?$allocator@D@2@@1@@Z 0042c590 f i cinder:ImageTargetFileWic.obj
 0001:0002b670       ??1?$map@V?$basic_string@DU?$char_traits@D@std@@V?$allocator@D@2@@std@@HU?$less@V?$basic_string@DU?$char_traits@D@std@@V?$allocator@D@2@@std@@@2@V?$allocator@U?$pair@$$CBV?$basic_string@DU?$char_traits@D@std@@V?$allocator@D@2@@std@@H@std@@@2@@std@@QAE@XZ 0042c670 f i cinder:GlslProg.obj
 0001:0002b6d0       ?getUniformLocation@GlslProg@gl@cinder@@QAEHABV?$basic_string@DU?$char_traits@D@std@@V?$allocator@D@2@@std@@@Z 0042c6d0 f   cinder:GlslProg.obj
 0001:0002b770       ??_GObj@GlslProg@gl@cinder@@QAEPAXI@Z 0042c770 f i cinder:GlslProg.obj
 0001:0002b800       ?_Destroy@?$_Ref_count@UObj@GlslProg@gl@cinder@@@tr1@std@@EAEXXZ 0042c800 f i cinder:GlslProg.obj
 0001:0002b890       ?uniform@GlslProg@gl@cinder@@QAEXABV?$basic_string@DU?$char_traits@D@std@@V?$allocator@D@2@@std@@H@Z 0042c890 f   cinder:GlslProg.obj
 0001:0002b8b0       ?uniform@GlslProg@gl@cinder@@QAEXABV?$basic_string@DU?$char_traits@D@std@@V?$allocator@D@2@@std@@ABV?$Vec2@M@3@@Z 0042c8b0 f   cinder:GlslProg.obj
 0001:0002b8e0       ??$_Resetp@UObj@GlslProg@gl@cinder@@@?$shared_ptr@UObj@GlslProg@gl@cinder@@@tr1@std@@AAEXPAUObj@GlslProg@gl@cinder@@@Z 0042c8e0 f i cinder:GlslProg.obj
 0001:0002b980       ??0GlslProg@gl@cinder@@QAE@V?$shared_ptr@VDataSource@cinder@@@tr1@std@@00@Z 0042c980 f   cinder:GlslProg.obj
 0001:0002bb90       ??0Format@Fbo@gl@cinder@@QAE@XZ 0042cb90 f   cinder:Fbo.obj
 0001:0002bbe0       ?enableDepthBuffer@Format@Fbo@gl@cinder@@QAEX_N0@Z 0042cbe0 f   cinder:Fbo.obj
 0001:0002bc00       ?unbindFramebuffer@Fbo@gl@cinder@@SAXXZ 0042cc00 f   cinder:Fbo.obj
 0001:0002bc10       ?_Destroy@?$_Ref_count@UObj@Renderbuffer@gl@cinder@@@tr1@std@@EAEXXZ 0042cc10 f i cinder:Fbo.obj
 0001:0002bc40       ?getFilePath@DataTarget@cinder@@QAEABV?$basic_string@DU?$char_traits@D@std@@V?$allocator@D@2@@std@@XZ 0042cc40 f i cinder:DataTarget.obj
 0001:0002bc40       ?what@ExcAttrNotFound@XmlTree@cinder@@UBEPBDXZ 0042cc40 f i cinder:Xml.obj
 0001:0002bc40       ?what@TextureDataExc@gl@cinder@@UBEPBDXZ 0042cc40 f i cinder:Texture.obj
 0001:0002bc40       ?what@GlslProgCompileExc@gl@cinder@@UBEPBDXZ 0042cc40 f i cinder:GlslProg.obj
 0001:0002bc40       ?getFilePath@DataSource@cinder@@QAEABV?$basic_string@DU?$char_traits@D@std@@V?$allocator@D@2@@std@@XZ 0042cc40 f i cinder:DataSource.obj
 0001:0002bc40       ?what@FboExceptionInvalidSpecification@gl@cinder@@UBEPBDXZ 0042cc40 f i cinder:Fbo.obj
 0001:0002bc40       ?what@ExcChildNotFound@XmlTree@cinder@@UBEPBDXZ 0042cc40 f i cinder:Xml.obj
 0001:0002bc50       ??0FboException@gl@cinder@@QAE@ABV012@@Z 0042cc50 f i cinder:Fbo.obj
 0001:0002bc70       ??0FboExceptionInvalidSpecification@gl@cinder@@QAE@ABV012@@Z 0042cc70 f i cinder:Fbo.obj
 0001:0002bca0       ?bindFramebuffer@Fbo@gl@cinder@@QAEXXZ 0042cca0 f   cinder:Fbo.obj
 0001:0002bcd0       ??4FboExceptionInvalidSpecification@gl@cinder@@QAEAAV012@ABV012@@Z 0042ccd0 f i cinder:Fbo.obj
 0001:0002bd10       ??0FboExceptionInvalidSpecification@gl@cinder@@QAE@ABV?$basic_string@DU?$char_traits@D@std@@V?$allocator@D@2@@std@@@Z 0042cd10 f   cinder:Fbo.obj
 0001:0002bd50       ??$_Resetp@UObj@Renderbuffer@gl@cinder@@@?$shared_ptr@UObj@Renderbuffer@gl@cinder@@@tr1@std@@AAEXPAUObj@Renderbuffer@gl@cinder@@@Z 0042cd50 f i cinder:Fbo.obj
 0001:0002be00       ?reserve@?$vector@IV?$allocator@I@std@@@std@@QAEXI@Z 0042ce00 f i cinder:Fbo.obj
 0001:0002be00       ?reserve@?$vector@PBV?$list@VXmlTree@cinder@@V?$allocator@VXmlTree@cinder@@@std@@@std@@V?$allocator@PBV?$list@VXmlTree@cinder@@V?$allocator@VXmlTree@cinder@@@std@@@std@@@2@@std@@QAEXI@Z 0042ce00 f i cinder:Xml.obj
 0001:0002be80       ?resolveTextures@Fbo@gl@cinder@@IBEXXZ 0042ce80 f   cinder:Fbo.obj
 0001:0002c0e0       ??$_Dest_val@V?$allocator@VTexture@gl@cinder@@@std@@VTexture@gl@cinder@@@std@@YAXAAV?$allocator@VTexture@gl@cinder@@@0@PAVTexture@gl@cinder@@@Z 0042d0e0 f i cinder:Fbo.obj
 0001:0002c0e0       ??$_Dest_val@V?$allocator@VRenderbuffer@gl@cinder@@@std@@VRenderbuffer@gl@cinder@@@std@@YAXAAV?$allocator@VRenderbuffer@gl@cinder@@@0@PAVRenderbuffer@gl@cinder@@@Z 0042d0e0 f i cinder:Fbo.obj
 0001:0002c120       ?getTexture@Fbo@gl@cinder@@QAEAAVTexture@23@H@Z 0042d120 f   cinder:Fbo.obj
 0001:0002c1c0       ?checkStatus@Fbo@gl@cinder@@IAE_NPAVFboExceptionInvalidSpecification@23@@Z 0042d1c0 f   cinder:Fbo.obj
 0001:0002c580       ?getMaxSamples@Fbo@gl@cinder@@SAHXZ 0042d580 f   cinder:Fbo.obj
 0001:0002c6c0       ??$_Destroy_range@V?$allocator@VRenderbuffer@gl@cinder@@@std@@@std@@YAXPAVRenderbuffer@gl@cinder@@0AAV?$allocator@VRenderbuffer@gl@cinder@@@0@U_Nonscalar_ptr_iterator_tag@0@@Z 0042d6c0 f i cinder:Fbo.obj
 0001:0002c6c0       ??$_Destroy_range@V?$allocator@VTexture@gl@cinder@@@std@@@std@@YAXPAVTexture@gl@cinder@@0AAV?$allocator@VTexture@gl@cinder@@@0@U_Nonscalar_ptr_iterator_tag@0@@Z 0042d6c0 f i cinder:Fbo.obj
 0001:0002c6c0       ??$_Destroy_range@V?$allocator@V?$shared_ptr@VDisplay@cinder@@@tr1@std@@@std@@@std@@YAXPAV?$shared_ptr@VDisplay@cinder@@@tr1@0@0AAV?$allocator@V?$shared_ptr@VDisplay@cinder@@@tr1@std@@@0@U_Nonscalar_ptr_iterator_tag@0@@Z 0042d6c0 f i cinder:Display.obj
 0001:0002c720       ??$_Uninit_move@PAVTexture@gl@cinder@@PAV123@V?$allocator@VTexture@gl@cinder@@@std@@V123@@std@@YAPAVTexture@gl@cinder@@PAV123@00AAV?$allocator@VTexture@gl@cinder@@@0@0U_Nonscalar_ptr_iterator_tag@0@@Z 0042d720 f i cinder:Fbo.obj
 0001:0002c720       ??$_Uninit_move@PAVRenderbuffer@gl@cinder@@PAV123@V?$allocator@VRenderbuffer@gl@cinder@@@std@@V123@@std@@YAPAVRenderbuffer@gl@cinder@@PAV123@00AAV?$allocator@VRenderbuffer@gl@cinder@@@0@0U_Nonscalar_ptr_iterator_tag@0@@Z 0042d720 f i cinder:Fbo.obj
 0001:0002c7f0       ??0Obj@Renderbuffer@gl@cinder@@QAE@HHIHH@Z 0042d7f0 f   cinder:Fbo.obj
 0001:0002c8f0       ?reserve@?$vector@VTexture@gl@cinder@@V?$allocator@VTexture@gl@cinder@@@std@@@std@@QAEXI@Z 0042d8f0 f i cinder:Fbo.obj
 0001:0002c8f0       ?reserve@?$vector@VRenderbuffer@gl@cinder@@V?$allocator@VRenderbuffer@gl@cinder@@@std@@@std@@QAEXI@Z 0042d8f0 f i cinder:Fbo.obj
 0001:0002c9e0       ??1?$vector@VRenderbuffer@gl@cinder@@V?$allocator@VRenderbuffer@gl@cinder@@@std@@@std@@QAE@XZ 0042d9e0 f i cinder:Fbo.obj
 0001:0002c9e0       ??1?$vector@VTexture@gl@cinder@@V?$allocator@VTexture@gl@cinder@@@std@@@std@@QAE@XZ 0042d9e0 f i cinder:Fbo.obj
 0001:0002ca30       ??0Obj@Fbo@gl@cinder@@QAE@HH@Z 0042da30 f   cinder:Fbo.obj
 0001:0002cac0       ??1Obj@Fbo@gl@cinder@@QAE@XZ 0042dac0 f   cinder:Fbo.obj
 0001:0002cc30       ?_Destroy@?$_Ref_count@UObj@Fbo@gl@cinder@@@tr1@std@@EAEXXZ 0042dc30 f i cinder:Fbo.obj
 0001:0002cc50       ?initMultisample@Fbo@gl@cinder@@IAE_N_N@Z 0042dc50 f   cinder:Fbo.obj
 0001:0002d3b0       ??$_Resetp@UObj@Fbo@gl@cinder@@@?$shared_ptr@UObj@Fbo@gl@cinder@@@tr1@std@@AAEXPAUObj@Fbo@gl@cinder@@@Z 0042e3b0 f i cinder:Fbo.obj
 0001:0002d450       ?init@Fbo@gl@cinder@@IAEXXZ 0042e450 f   cinder:Fbo.obj
 0001:0002dd20       ??0Fbo@gl@cinder@@QAE@HHUFormat@012@@Z 0042ed20 f   cinder:Fbo.obj
 0001:0002ddb0       ??1SurfaceBase@cairo@cinder@@UAE@XZ 0042edb0 f   cinder:Cairo.obj
 0001:0002ddd0       ?getSurface@SurfaceImage@cairo@cinder@@QAEAAV?$SurfaceT@E@3@XZ 0042edd0 f   cinder:Cairo.obj
 0001:0002dde0       ??1Pattern@cairo@cinder@@QAE@XZ 0042ede0 f   cinder:Cairo.obj
 0001:0002ddf0       ?addColorStopRgba@Gradient@cairo@cinder@@QAEXNNNNN@Z 0042edf0 f   cinder:Cairo.obj
 0001:0002de30       ??0GradientRadial@cairo@cinder@@QAE@ABV?$Vec2@M@2@M0M@Z 0042ee30 f   cinder:Cairo.obj
 0001:0002de80       ??0Context@cairo@cinder@@QAE@ABVSurfaceBase@12@@Z 0042ee80 f   cinder:Cairo.obj
 0001:0002deb0       ??1Context@cairo@cinder@@QAE@XZ 0042eeb0 f   cinder:Cairo.obj
 0001:0002dee0       ?save@Context@cairo@cinder@@QAEXXZ 0042eee0 f   cinder:Cairo.obj
 0001:0002def0       ?restore@Context@cairo@cinder@@QAEXXZ 0042eef0 f   cinder:Cairo.obj
 0001:0002df00       ?setSourceRgba@Context@cairo@cinder@@QAEXNNNN@Z 0042ef00 f   cinder:Cairo.obj
 0001:0002df30       ?setSource@Context@cairo@cinder@@QAEXABVPattern@23@@Z 0042ef30 f   cinder:Cairo.obj
 0001:0002df50       ?setLineWidth@Context@cairo@cinder@@QAEXN@Z 0042ef50 f   cinder:Cairo.obj
 0001:0002df70       ?clip@Context@cairo@cinder@@QAEXXZ 0042ef70 f   cinder:Cairo.obj
 0001:0002df80       ?fill@Context@cairo@cinder@@QAEXXZ 0042ef80 f   cinder:Cairo.obj
 0001:0002df90       ?fillPreserve@Context@cairo@cinder@@QAEXXZ 0042ef90 f   cinder:Cairo.obj
 0001:0002dfa0       ?stroke@Context@cairo@cinder@@QAEXXZ 0042efa0 f   cinder:Cairo.obj
 0001:0002dfb0       ?newPath@Context@cairo@cinder@@QAEXXZ 0042efb0 f   cinder:Cairo.obj
 0001:0002dfc0       ?closePath@Context@cairo@cinder@@QAEXXZ 0042efc0 f   cinder:Cairo.obj
 0001:0002dfd0       ?arc@Context@cairo@cinder@@QAEXNNNNN@Z 0042efd0 f   cinder:Cairo.obj
 0001:0002e010       ?arcNegative@Context@cairo@cinder@@QAEXNNNNN@Z 0042f010 f   cinder:Cairo.obj
 0001:0002e050       ?curveTo@Context@cairo@cinder@@QAEXNNNNNN@Z 0042f050 f   cinder:Cairo.obj
 0001:0002e090       ?lineTo@Context@cairo@cinder@@QAEXNN@Z 0042f090 f   cinder:Cairo.obj
 0001:0002e0c0       ?moveTo@Context@cairo@cinder@@QAEXNN@Z 0042f0c0 f   cinder:Cairo.obj
 0001:0002e0f0       ?rectangle@Context@cairo@cinder@@QAEXNNNN@Z 0042f0f0 f   cinder:Cairo.obj
 0001:0002e120       ?circle@Context@cairo@cinder@@QAEXNNN@Z 0042f120 f   cinder:Cairo.obj
 0001:0002e170       ??_GSurfaceBase@cairo@cinder@@UAEPAXI@Z 0042f170 f i cinder:Cairo.obj
 0001:0002e170       ??_ESurfaceBase@cairo@cinder@@UAEPAXI@Z 0042f170 f i cinder:Cairo.obj
 0001:0002e1b0       ??_GSurfaceImage@cairo@cinder@@UAEPAXI@Z 0042f1b0 f i cinder:Cairo.obj
 0001:0002e1b0       ??_ESurfaceImage@cairo@cinder@@UAEPAXI@Z 0042f1b0 f i cinder:Cairo.obj
 0001:0002e250       ?initCinderSurface@SurfaceImage@cairo@cinder@@IAEX_NPAEH@Z 0042f250 f   cinder:Cairo.obj
 0001:0002e340       ??0SurfaceImage@cairo@cinder@@QAE@HH_N@Z 0042f340 f   cinder:Cairo.obj
 0001:0002e3e0       ?setPerspective@CameraPersp@cinder@@QAEXMMMM@Z 0042f3e0 f   cinder:Camera.obj
 0001:0002e410       ?calcProjection@CameraPersp@cinder@@MAEXXZ 0042f410 f   cinder:Camera.obj
 0001:0002e620       ??D?$Quaternion@M@cinder@@QAE?BV?$Vec3@M@1@ABV21@@Z 0042f620 f i cinder:Camera.obj
 0001:0002e6e0       ?set@?$Quaternion@M@cinder@@QAEXABV?$Matrix44@M@2@@Z 0042f6e0 f i cinder:Camera.obj
 0001:0002e840       ??0Camera@cinder@@QAE@XZ   0042f840 f i cinder:Camera.obj
 0001:0002e9f0       ?calcModelView@Camera@cinder@@IAEXXZ 0042f9f0 f   cinder:Camera.obj
 0001:0002ebd0       ??_GCameraPersp@cinder@@UAEPAXI@Z 0042fbd0 f i cinder:Camera.obj
 0001:0002ebd0       ??_GCamera@cinder@@UAEPAXI@Z 0042fbd0 f i ThreeDeeApp.obj
 0001:0002ebd0       ??_ECameraPersp@cinder@@UAEPAXI@Z 0042fbd0 f i cinder:Camera.obj
 0001:0002ebd0       ??_ECamera@cinder@@UAEPAXI@Z 0042fbd0 f i  CIL library: CIL module
 0001:0002ec00       ?normalized@?$Quaternion@M@cinder@@QBE?AV12@XZ 0042fc00 f i cinder:Camera.obj
 0001:0002ecb0       ?alignZAxisWithTarget@?$Matrix44@M@cinder@@SA?AV12@V?$Vec3@M@2@0@Z 0042fcb0 f i cinder:Camera.obj
 0001:0002f010       ?lookAt@Camera@cinder@@QAEXABV?$Vec3@M@2@0@Z 00430010 f   cinder:Camera.obj
 0001:0002f130       ?lookAt@Camera@cinder@@QAEXABV?$Vec3@M@2@00@Z 00430130 f   cinder:Camera.obj
 0001:0002f2c0       ??0CameraPersp@cinder@@QAE@HHM@Z 004302c0 f   cinder:Camera.obj
 0001:0002f3c0       ??0CameraPersp@cinder@@QAE@XZ 004303c0 f   cinder:Camera.obj
 0001:0002f480       ??0ImageIo@cinder@@IAE@XZ  00430480 f   cinder:ImageIo.obj
 0001:0002f4a0       ?channelOrderHasAlpha@ImageIo@cinder@@SA_NW4ChannelOrder@12@@Z 004304a0 f   cinder:ImageIo.obj
 0001:0002f4c0       ?dataTypeBytes@ImageIo@cinder@@SAEW4DataType@12@@Z 004304c0 f   cinder:ImageIo.obj
 0001:0002f4f0       ?isPremultiplied@ImageSource@cinder@@QBE_NXZ 004304f0 f   cinder:ImageIo.obj
 0001:0002f500       ??1StreamExc@cinder@@UAE@XZ 00430500 f i cinder:DataSource.obj
 0001:0002f500       ??1FboExceptionInvalidSpecification@gl@cinder@@UAE@XZ 00430500 f i cinder:Fbo.obj
 0001:0002f500       ??1ImageIoExceptionIllegalChannelOrder@cinder@@UAE@XZ 00430500 f i cinder:ImageIo.obj
 0001:0002f500       ??1ImageIoExceptionUnknownExtension@cinder@@UAE@XZ 00430500 f i cinder:ImageIo.obj
 0001:0002f500       ??1ExcChildNotFound@XmlTree@cinder@@UAE@XZ 00430500 f i cinder:Xml.obj
 0001:0002f500       ??1ImageIoExceptionFailedLoad@cinder@@UAE@XZ 00430500 f i cinder:ImageIo.obj
 0001:0002f500       ??1ImageIoExceptionIllegalDataType@cinder@@UAE@XZ 00430500 f i cinder:ImageIo.obj
 0001:0002f500       ??1ImageIoExceptionIllegalColorModel@cinder@@UAE@XZ 00430500 f i cinder:Texture.obj
 0001:0002f500       ??1ExcAttrNotFound@XmlTree@cinder@@UAE@XZ 00430500 f i cinder:Xml.obj
 0001:0002f500       ??1StreamExcOutOfMemory@cinder@@UAE@XZ 00430500 f i cinder:Stream.obj
 0001:0002f510       ?_Min@?$_Tree_val@V?$_Tmap_traits@V?$basic_string@DU?$char_traits@D@std@@V?$allocator@D@2@@std@@V?$multimap@HU?$pair@P6A?AV?$shared_ptr@VImageTarget@cinder@@@tr1@std@@V?$shared_ptr@VDataTarget@cinder@@@23@V?$shared_ptr@VImageSource@cinder@@@23@VOptions@ImageTarget@cinder@@ABV?$basic_string@DU?$char_traits@D@std@@V?$allocator@D@2@@3@@ZV93@@std@@U?$less@H@2@V?$allocator@U?$pair@$$CBHU?$pair@P6A?AV?$shared_ptr@VImageTarget@cinder@@@tr1@std@@V?$shared_ptr@VDataTarget@cinder@@@23@V?$shared_ptr@VImageSource@cinder@@@23@VOptions@ImageTarget@cinder@@ABV?$basic_string@DU?$char_traits@D@std@@V?$allocator@D@2@@3@@ZV93@@std@@@std@@@2@@2@U?$less@V?$basic_string@DU?$char_traits@D@std@@V?$allocator@D@2@@std@@@2@V?$allocator@U?$pair@$$CBV?$basic_string@DU?$char_traits@D@std@@V?$allocator@D@2@@std@@V?$multimap@HU?$pair@P6A?AV?$shared_ptr@VImageTarget@cinder@@@tr1@std@@V?$shared_ptr@VDataTarget@cinder@@@23@V?$shared_ptr@VImageSource@cinder@@@23@VOptions@ImageTarget@cinder@@ABV?$basic_string@DU?$char_traits@D@std@@V?$allocator@D@2@@3@@ZV93@@std@@U?$less@H@2@V?$allocator@U?$pair@$$CBHU?$pair@P6A?AV?$shared_ptr@VImageTarget@cinder@@@tr1@std@@V?$shared_ptr@VDataTarget@cinder@@@23@V?$shared_ptr@VImageSource@cinder@@@23@VOptions@ImageTarget@cinder@@ABV?$basic_string@DU?$char_traits@D@std@@V?$allocator@D@2@@3@@ZV93@@std@@@std@@@2@@2@@std@@@2@$0A@@std@@@std@@SAPAU_Node@?$_Tree_nod@V?$_Tmap_traits@V?$basic_string@DU?$char_traits@D@std@@V?$allocator@D@2@@std@@V?$multimap@HU?$pair@P6A?AV?$shared_ptr@VImageTarget@cinder@@@tr1@std@@V?$shared_ptr@VDataTarget@cinder@@@23@V?$shared_ptr@VImageSource@cinder@@@23@VOptions@ImageTarget@cinder@@ABV?$basic_string@DU?$char_traits@D@std@@V?$allocator@D@2@@3@@ZV93@@std@@U?$less@H@2@V?$allocator@U?$pair@$$CBHU?$pair@P6A?AV?$shared_ptr@VImageTarget@cinder@@@tr1@std@@V?$shared_ptr@VDataTarget@cinder@@@23@V?$shared_ptr@VImageSource@cinder@@@23@VOptions@ImageTarget@cinder@@ABV?$basic_string@DU?$char_traits@D@std@@V?$allocator@D@2@@3@@ZV93@@std@@@std@@@2@@2@U?$less@V?$basic_string@DU?$char_traits@D@std@@V?$allocator@D@2@@std@@@2@V?$allocator@U?$pair@$$CBV?$basic_string@DU?$char_traits@D@std@@V?$allocator@D@2@@std@@V?$multimap@HU?$pair@P6A?AV?$shared_ptr@VImageTarget@cinder@@@tr1@std@@V?$shared_ptr@VDataTarget@cinder@@@23@V?$shared_ptr@VImageSource@cinder@@@23@VOptions@ImageTarget@cinder@@ABV?$basic_string@DU?$char_traits@D@std@@V?$allocator@D@2@@3@@ZV93@@std@@U?$less@H@2@V?$allocator@U?$pair@$$CBHU?$pair@P6A?AV?$shared_ptr@VImageTarget@cinder@@@tr1@std@@V?$shared_ptr@VDataTarget@cinder@@@23@V?$shared_ptr@VImageSource@cinder@@@23@VOptions@ImageTarget@cinder@@ABV?$basic_string@DU?$char_traits@D@std@@V?$allocator@D@2@@3@@ZV93@@std@@@std@@@2@@2@@std@@@2@$0A@@std@@@2@PAU342@@Z 00430510 f i cinder:ImageIo.obj
 0001:0002f510       ?_Min@?$_Tree_val@V?$_Tmap_traits@V?$basic_string@DU?$char_traits@D@std@@V?$allocator@D@2@@std@@V?$multimap@HP6A?AV?$shared_ptr@VImageSource@cinder@@@tr1@std@@V?$shared_ptr@VDataSource@cinder@@@23@VOptions@ImageSource@cinder@@@ZU?$less@H@3@V?$allocator@U?$pair@$$CBHP6A?AV?$shared_ptr@VImageSource@cinder@@@tr1@std@@V?$shared_ptr@VDataSource@cinder@@@23@VOptions@ImageSource@cinder@@@Z@std@@@3@@2@U?$less@V?$basic_string@DU?$char_traits@D@std@@V?$allocator@D@2@@std@@@2@V?$allocator@U?$pair@$$CBV?$basic_string@DU?$char_traits@D@std@@V?$allocator@D@2@@std@@V?$multimap@HP6A?AV?$shared_ptr@VImageSource@cinder@@@tr1@std@@V?$shared_ptr@VDataSource@cinder@@@23@VOptions@ImageSource@cinder@@@ZU?$less@H@3@V?$allocator@U?$pair@$$CBHP6A?AV?$shared_ptr@VImageSource@cinder@@@tr1@std@@V?$shared_ptr@VDataSource@cinder@@@23@VOptions@ImageSource@cinder@@@Z@std@@@3@@2@@std@@@2@$0A@@std@@@std@@SAPAU_Node@?$_Tree_nod@V?$_Tmap_traits@V?$basic_string@DU?$char_traits@D@std@@V?$allocator@D@2@@std@@V?$multimap@HP6A?AV?$shared_ptr@VImageSource@cinder@@@tr1@std@@V?$shared_ptr@VDataSource@cinder@@@23@VOptions@ImageSource@cinder@@@ZU?$less@H@3@V?$allocator@U?$pair@$$CBHP6A?AV?$shared_ptr@VImageSource@cinder@@@tr1@std@@V?$shared_ptr@VDataSource@cinder@@@23@VOptions@ImageSource@cinder@@@Z@std@@@3@@2@U?$less@V?$basic_string@DU?$char_traits@D@std@@V?$allocator@D@2@@std@@@2@V?$allocator@U?$pair@$$CBV?$basic_string@DU?$char_traits@D@std@@V?$allocator@D@2@@std@@V?$multimap@HP6A?AV?$shared_ptr@VImageSource@cinder@@@tr1@std@@V?$shared_ptr@VDataSource@cinder@@@23@VOptions@ImageSource@cinder@@@ZU?$less@H@3@V?$allocator@U?$pair@$$CBHP6A?AV?$shared_ptr@VImageSource@cinder@@@tr1@std@@V?$shared_ptr@VDataSource@cinder@@@23@VOptions@ImageSource@cinder@@@Z@std@@@3@@2@@std@@@2@$0A@@std@@@2@PAU342@@Z 00430510 f i cinder:ImageIo.obj
 0001:0002f530       ?_Min@?$_Tree_val@V?$_Tmap_traits@HP6A?AV?$shared_ptr@VImageSource@cinder@@@tr1@std@@V?$shared_ptr@VDataSource@cinder@@@23@VOptions@ImageSource@cinder@@@ZU?$less@H@3@V?$allocator@U?$pair@$$CBHP6A?AV?$shared_ptr@VImageSource@cinder@@@tr1@std@@V?$shared_ptr@VDataSource@cinder@@@23@VOptions@ImageSource@cinder@@@Z@std@@@3@$0A@@std@@@std@@SAPAU_Node@?$_Tree_nod@V?$_Tmap_traits@HP6A?AV?$shared_ptr@VImageSource@cinder@@@tr1@std@@V?$shared_ptr@VDataSource@cinder@@@23@VOptions@ImageSource@cinder@@@ZU?$less@H@3@V?$allocator@U?$pair@$$CBHP6A?AV?$shared_ptr@VImageSource@cinder@@@tr1@std@@V?$shared_ptr@VDataSource@cinder@@@23@VOptions@ImageSource@cinder@@@Z@std@@@3@$0A@@std@@@2@PAU342@@Z 00430530 f i cinder:ImageIo.obj
 0001:0002f530       ?_Min@?$_Tree_val@V?$_Tmap_traits@HP6A?AV?$shared_ptr@VImageSource@cinder@@@tr1@std@@V?$shared_ptr@VDataSource@cinder@@@23@VOptions@ImageSource@cinder@@@ZU?$less@H@3@V?$allocator@U?$pair@$$CBHP6A?AV?$shared_ptr@VImageSource@cinder@@@tr1@std@@V?$shared_ptr@VDataSource@cinder@@@23@VOptions@ImageSource@cinder@@@Z@std@@@3@$00@std@@@std@@SAPAU_Node@?$_Tree_nod@V?$_Tmap_traits@HP6A?AV?$shared_ptr@VImageSource@cinder@@@tr1@std@@V?$shared_ptr@VDataSource@cinder@@@23@VOptions@ImageSource@cinder@@@ZU?$less@H@3@V?$allocator@U?$pair@$$CBHP6A?AV?$shared_ptr@VImageSource@cinder@@@tr1@std@@V?$shared_ptr@VDataSource@cinder@@@23@VOptions@ImageSource@cinder@@@Z@std@@@3@$00@std@@@2@PAU342@@Z 00430530 f i cinder:ImageIo.obj
 0001:0002f550       ?_Rrotate@?$_Tree@V?$_Tmap_traits@HP6A?AV?$shared_ptr@VImageSource@cinder@@@tr1@std@@V?$shared_ptr@VDataSource@cinder@@@23@VOptions@ImageSource@cinder@@@ZU?$less@H@3@V?$allocator@U?$pair@$$CBHP6A?AV?$shared_ptr@VImageSource@cinder@@@tr1@std@@V?$shared_ptr@VDataSource@cinder@@@23@VOptions@ImageSource@cinder@@@Z@std@@@3@$0A@@std@@@std@@IAEXPAU_Node@?$_Tree_nod@V?$_Tmap_traits@HP6A?AV?$shared_ptr@VImageSource@cinder@@@tr1@std@@V?$shared_ptr@VDataSource@cinder@@@23@VOptions@ImageSource@cinder@@@ZU?$less@H@3@V?$allocator@U?$pair@$$CBHP6A?AV?$shared_ptr@VImageSource@cinder@@@tr1@std@@V?$shared_ptr@VDataSource@cinder@@@23@VOptions@ImageSource@cinder@@@Z@std@@@3@$0A@@std@@@2@@Z 00430550 f i cinder:ImageIo.obj
 0001:0002f550       ?_Rrotate@?$_Tree@V?$_Tmap_traits@HP6A?AV?$shared_ptr@VImageSource@cinder@@@tr1@std@@V?$shared_ptr@VDataSource@cinder@@@23@VOptions@ImageSource@cinder@@@ZU?$less@H@3@V?$allocator@U?$pair@$$CBHP6A?AV?$shared_ptr@VImageSource@cinder@@@tr1@std@@V?$shared_ptr@VDataSource@cinder@@@23@VOptions@ImageSource@cinder@@@Z@std@@@3@$00@std@@@std@@IAEXPAU_Node@?$_Tree_nod@V?$_Tmap_traits@HP6A?AV?$shared_ptr@VImageSource@cinder@@@tr1@std@@V?$shared_ptr@VDataSource@cinder@@@23@VOptions@ImageSource@cinder@@@ZU?$less@H@3@V?$allocator@U?$pair@$$CBHP6A?AV?$shared_ptr@VImageSource@cinder@@@tr1@std@@V?$shared_ptr@VDataSource@cinder@@@23@VOptions@ImageSource@cinder@@@Z@std@@@3@$00@std@@@2@@Z 00430550 f i cinder:ImageIo.obj
 0001:0002f5b0       ?_Max@?$_Tree_val@V?$_Tmap_traits@HP6A?AV?$shared_ptr@VImageSource@cinder@@@tr1@std@@V?$shared_ptr@VDataSource@cinder@@@23@VOptions@ImageSource@cinder@@@ZU?$less@H@3@V?$allocator@U?$pair@$$CBHP6A?AV?$shared_ptr@VImageSource@cinder@@@tr1@std@@V?$shared_ptr@VDataSource@cinder@@@23@VOptions@ImageSource@cinder@@@Z@std@@@3@$0A@@std@@@std@@SAPAU_Node@?$_Tree_nod@V?$_Tmap_traits@HP6A?AV?$shared_ptr@VImageSource@cinder@@@tr1@std@@V?$shared_ptr@VDataSource@cinder@@@23@VOptions@ImageSource@cinder@@@ZU?$less@H@3@V?$allocator@U?$pair@$$CBHP6A?AV?$shared_ptr@VImageSource@cinder@@@tr1@std@@V?$shared_ptr@VDataSource@cinder@@@23@VOptions@ImageSource@cinder@@@Z@std@@@3@$0A@@std@@@2@PAU342@@Z 004305b0 f i cinder:ImageIo.obj
 0001:0002f5b0       ?_Max@?$_Tree_val@V?$_Tmap_traits@HP6A?AV?$shared_ptr@VImageSource@cinder@@@tr1@std@@V?$shared_ptr@VDataSource@cinder@@@23@VOptions@ImageSource@cinder@@@ZU?$less@H@3@V?$allocator@U?$pair@$$CBHP6A?AV?$shared_ptr@VImageSource@cinder@@@tr1@std@@V?$shared_ptr@VDataSource@cinder@@@23@VOptions@ImageSource@cinder@@@Z@std@@@3@$00@std@@@std@@SAPAU_Node@?$_Tree_nod@V?$_Tmap_traits@HP6A?AV?$shared_ptr@VImageSource@cinder@@@tr1@std@@V?$shared_ptr@VDataSource@cinder@@@23@VOptions@ImageSource@cinder@@@ZU?$less@H@3@V?$allocator@U?$pair@$$CBHP6A?AV?$shared_ptr@VImageSource@cinder@@@tr1@std@@V?$shared_ptr@VDataSource@cinder@@@23@VOptions@ImageSource@cinder@@@Z@std@@@3@$00@std@@@2@PAU342@@Z 004305b0 f i cinder:ImageIo.obj
 0001:0002f5d0       ?_Lrotate@?$_Tree@V?$_Tmap_traits@V?$basic_string@DU?$char_traits@D@std@@V?$allocator@D@2@@std@@V?$multimap@HP6A?AV?$shared_ptr@VImageSource@cinder@@@tr1@std@@V?$shared_ptr@VDataSource@cinder@@@23@VOptions@ImageSource@cinder@@@ZU?$less@H@3@V?$allocator@U?$pair@$$CBHP6A?AV?$shared_ptr@VImageSource@cinder@@@tr1@std@@V?$shared_ptr@VDataSource@cinder@@@23@VOptions@ImageSource@cinder@@@Z@std@@@3@@2@U?$less@V?$basic_string@DU?$char_traits@D@std@@V?$allocator@D@2@@std@@@2@V?$allocator@U?$pair@$$CBV?$basic_string@DU?$char_traits@D@std@@V?$allocator@D@2@@std@@V?$multimap@HP6A?AV?$shared_ptr@VImageSource@cinder@@@tr1@std@@V?$shared_ptr@VDataSource@cinder@@@23@VOptions@ImageSource@cinder@@@ZU?$less@H@3@V?$allocator@U?$pair@$$CBHP6A?AV?$shared_ptr@VImageSource@cinder@@@tr1@std@@V?$shared_ptr@VDataSource@cinder@@@23@VOptions@ImageSource@cinder@@@Z@std@@@3@@2@@std@@@2@$0A@@std@@@std@@IAEXPAU_Node@?$_Tree_nod@V?$_Tmap_traits@V?$basic_string@DU?$char_traits@D@std@@V?$allocator@D@2@@std@@V?$multimap@HP6A?AV?$shared_ptr@VImageSource@cinder@@@tr1@std@@V?$shared_ptr@VDataSource@cinder@@@23@VOptions@ImageSource@cinder@@@ZU?$less@H@3@V?$allocator@U?$pair@$$CBHP6A?AV?$shared_ptr@VImageSource@cinder@@@tr1@std@@V?$shared_ptr@VDataSource@cinder@@@23@VOptions@ImageSource@cinder@@@Z@std@@@3@@2@U?$less@V?$basic_string@DU?$char_traits@D@std@@V?$allocator@D@2@@std@@@2@V?$allocator@U?$pair@$$CBV?$basic_string@DU?$char_traits@D@std@@V?$allocator@D@2@@std@@V?$multimap@HP6A?AV?$shared_ptr@VImageSource@cinder@@@tr1@std@@V?$shared_ptr@VDataSource@cinder@@@23@VOptions@ImageSource@cinder@@@ZU?$less@H@3@V?$allocator@U?$pair@$$CBHP6A?AV?$shared_ptr@VImageSource@cinder@@@tr1@std@@V?$shared_ptr@VDataSource@cinder@@@23@VOptions@ImageSource@cinder@@@Z@std@@@3@@2@@std@@@2@$0A@@std@@@2@@Z 004305d0 f i cinder:ImageIo.obj
 0001:0002f5d0       ?_Lrotate@?$_Tree@V?$_Tmap_traits@V?$basic_string@DU?$char_traits@D@std@@V?$allocator@D@2@@std@@V?$multimap@HU?$pair@P6A?AV?$shared_ptr@VImageTarget@cinder@@@tr1@std@@V?$shared_ptr@VDataTarget@cinder@@@23@V?$shared_ptr@VImageSource@cinder@@@23@VOptions@ImageTarget@cinder@@ABV?$basic_string@DU?$char_traits@D@std@@V?$allocator@D@2@@3@@ZV93@@std@@U?$less@H@2@V?$allocator@U?$pair@$$CBHU?$pair@P6A?AV?$shared_ptr@VImageTarget@cinder@@@tr1@std@@V?$shared_ptr@VDataTarget@cinder@@@23@V?$shared_ptr@VImageSource@cinder@@@23@VOptions@ImageTarget@cinder@@ABV?$basic_string@DU?$char_traits@D@std@@V?$allocator@D@2@@3@@ZV93@@std@@@std@@@2@@2@U?$less@V?$basic_string@DU?$char_traits@D@std@@V?$allocator@D@2@@std@@@2@V?$allocator@U?$pair@$$CBV?$basic_string@DU?$char_traits@D@std@@V?$allocator@D@2@@std@@V?$multimap@HU?$pair@P6A?AV?$shared_ptr@VImageTarget@cinder@@@tr1@std@@V?$shared_ptr@VDataTarget@cinder@@@23@V?$shared_ptr@VImageSource@cinder@@@23@VOptions@ImageTarget@cinder@@ABV?$basic_string@DU?$char_traits@D@std@@V?$allocator@D@2@@3@@ZV93@@std@@U?$less@H@2@V?$allocator@U?$pair@$$CBHU?$pair@P6A?AV?$shared_ptr@VImageTarget@cinder@@@tr1@std@@V?$shared_ptr@VDataTarget@cinder@@@23@V?$shared_ptr@VImageSource@cinder@@@23@VOptions@ImageTarget@cinder@@ABV?$basic_string@DU?$char_traits@D@std@@V?$allocator@D@2@@3@@ZV93@@std@@@std@@@2@@2@@std@@@2@$0A@@std@@@std@@IAEXPAU_Node@?$_Tree_nod@V?$_Tmap_traits@V?$basic_string@DU?$char_traits@D@std@@V?$allocator@D@2@@std@@V?$multimap@HU?$pair@P6A?AV?$shared_ptr@VImageTarget@cinder@@@tr1@std@@V?$shared_ptr@VDataTarget@cinder@@@23@V?$shared_ptr@VImageSource@cinder@@@23@VOptions@ImageTarget@cinder@@ABV?$basic_string@DU?$char_traits@D@std@@V?$allocator@D@2@@3@@ZV93@@std@@U?$less@H@2@V?$allocator@U?$pair@$$CBHU?$pair@P6A?AV?$shared_ptr@VImageTarget@cinder@@@tr1@std@@V?$shared_ptr@VDataTarget@cinder@@@23@V?$shared_ptr@VImageSource@cinder@@@23@VOptions@ImageTarget@cinder@@ABV?$basic_string@DU?$char_traits@D@std@@V?$allocator@D@2@@3@@ZV93@@std@@@std@@@2@@2@U?$less@V?$basic_string@DU?$char_traits@D@std@@V?$allocator@D@2@@std@@@2@V?$allocator@U?$pair@$$CBV?$basic_string@DU?$char_traits@D@std@@V?$allocator@D@2@@std@@V?$multimap@HU?$pair@P6A?AV?$shared_ptr@VImageTarget@cinder@@@tr1@std@@V?$shared_ptr@VDataTarget@cinder@@@23@V?$shared_ptr@VImageSource@cinder@@@23@VOptions@ImageTarget@cinder@@ABV?$basic_string@DU?$char_traits@D@std@@V?$allocator@D@2@@3@@ZV93@@std@@U?$less@H@2@V?$allocator@U?$pair@$$CBHU?$pair@P6A?AV?$shared_ptr@VImageTarget@cinder@@@tr1@std@@V?$shared_ptr@VDataTarget@cinder@@@23@V?$shared_ptr@VImageSource@cinder@@@23@VOptions@ImageTarget@cinder@@ABV?$basic_string@DU?$char_traits@D@std@@V?$allocator@D@2@@3@@ZV93@@std@@@std@@@2@@2@@std@@@2@$0A@@std@@@2@@Z 004305d0 f i cinder:ImageIo.obj
 0001:0002f630       ?_Rrotate@?$_Tree@V?$_Tmap_traits@V?$basic_string@DU?$char_traits@D@std@@V?$allocator@D@2@@std@@V?$multimap@HU?$pair@P6A?AV?$shared_ptr@VImageTarget@cinder@@@tr1@std@@V?$shared_ptr@VDataTarget@cinder@@@23@V?$shared_ptr@VImageSource@cinder@@@23@VOptions@ImageTarget@cinder@@ABV?$basic_string@DU?$char_traits@D@std@@V?$allocator@D@2@@3@@ZV93@@std@@U?$less@H@2@V?$allocator@U?$pair@$$CBHU?$pair@P6A?AV?$shared_ptr@VImageTarget@cinder@@@tr1@std@@V?$shared_ptr@VDataTarget@cinder@@@23@V?$shared_ptr@VImageSource@cinder@@@23@VOptions@ImageTarget@cinder@@ABV?$basic_string@DU?$char_traits@D@std@@V?$allocator@D@2@@3@@ZV93@@std@@@std@@@2@@2@U?$less@V?$basic_string@DU?$char_traits@D@std@@V?$allocator@D@2@@std@@@2@V?$allocator@U?$pair@$$CBV?$basic_string@DU?$char_traits@D@std@@V?$allocator@D@2@@std@@V?$multimap@HU?$pair@P6A?AV?$shared_ptr@VImageTarget@cinder@@@tr1@std@@V?$shared_ptr@VDataTarget@cinder@@@23@V?$shared_ptr@VImageSource@cinder@@@23@VOptions@ImageTarget@cinder@@ABV?$basic_string@DU?$char_traits@D@std@@V?$allocator@D@2@@3@@ZV93@@std@@U?$less@H@2@V?$allocator@U?$pair@$$CBHU?$pair@P6A?AV?$shared_ptr@VImageTarget@cinder@@@tr1@std@@V?$shared_ptr@VDataTarget@cinder@@@23@V?$shared_ptr@VImageSource@cinder@@@23@VOptions@ImageTarget@cinder@@ABV?$basic_string@DU?$char_traits@D@std@@V?$allocator@D@2@@3@@ZV93@@std@@@std@@@2@@2@@std@@@2@$0A@@std@@@std@@IAEXPAU_Node@?$_Tree_nod@V?$_Tmap_traits@V?$basic_string@DU?$char_traits@D@std@@V?$allocator@D@2@@std@@V?$multimap@HU?$pair@P6A?AV?$shared_ptr@VImageTarget@cinder@@@tr1@std@@V?$shared_ptr@VDataTarget@cinder@@@23@V?$shared_ptr@VImageSource@cinder@@@23@VOptions@ImageTarget@cinder@@ABV?$basic_string@DU?$char_traits@D@std@@V?$allocator@D@2@@3@@ZV93@@std@@U?$less@H@2@V?$allocator@U?$pair@$$CBHU?$pair@P6A?AV?$shared_ptr@VImageTarget@cinder@@@tr1@std@@V?$shared_ptr@VDataTarget@cinder@@@23@V?$shared_ptr@VImageSource@cinder@@@23@VOptions@ImageTarget@cinder@@ABV?$basic_string@DU?$char_traits@D@std@@V?$allocator@D@2@@3@@ZV93@@std@@@std@@@2@@2@U?$less@V?$basic_string@DU?$char_traits@D@std@@V?$allocator@D@2@@std@@@2@V?$allocator@U?$pair@$$CBV?$basic_string@DU?$char_traits@D@std@@V?$allocator@D@2@@std@@V?$multimap@HU?$pair@P6A?AV?$shared_ptr@VImageTarget@cinder@@@tr1@std@@V?$shared_ptr@VDataTarget@cinder@@@23@V?$shared_ptr@VImageSource@cinder@@@23@VOptions@ImageTarget@cinder@@ABV?$basic_string@DU?$char_traits@D@std@@V?$allocator@D@2@@3@@ZV93@@std@@U?$less@H@2@V?$allocator@U?$pair@$$CBHU?$pair@P6A?AV?$shared_ptr@VImageTarget@cinder@@@tr1@std@@V?$shared_ptr@VDataTarget@cinder@@@23@V?$shared_ptr@VImageSource@cinder@@@23@VOptions@ImageTarget@cinder@@ABV?$basic_string@DU?$char_traits@D@std@@V?$allocator@D@2@@3@@ZV93@@std@@@std@@@2@@2@@std@@@2@$0A@@std@@@2@@Z 00430630 f i cinder:ImageIo.obj
 0001:0002f630       ?_Rrotate@?$_Tree@V?$_Tmap_traits@V?$basic_string@DU?$char_traits@D@std@@V?$allocator@D@2@@std@@V?$multimap@HP6A?AV?$shared_ptr@VImageSource@cinder@@@tr1@std@@V?$shared_ptr@VDataSource@cinder@@@23@VOptions@ImageSource@cinder@@@ZU?$less@H@3@V?$allocator@U?$pair@$$CBHP6A?AV?$shared_ptr@VImageSource@cinder@@@tr1@std@@V?$shared_ptr@VDataSource@cinder@@@23@VOptions@ImageSource@cinder@@@Z@std@@@3@@2@U?$less@V?$basic_string@DU?$char_traits@D@std@@V?$allocator@D@2@@std@@@2@V?$allocator@U?$pair@$$CBV?$basic_string@DU?$char_traits@D@std@@V?$allocator@D@2@@std@@V?$multimap@HP6A?AV?$shared_ptr@VImageSource@cinder@@@tr1@std@@V?$shared_ptr@VDataSource@cinder@@@23@VOptions@ImageSource@cinder@@@ZU?$less@H@3@V?$allocator@U?$pair@$$CBHP6A?AV?$shared_ptr@VImageSource@cinder@@@tr1@std@@V?$shared_ptr@VDataSource@cinder@@@23@VOptions@ImageSource@cinder@@@Z@std@@@3@@2@@std@@@2@$0A@@std@@@std@@IAEXPAU_Node@?$_Tree_nod@V?$_Tmap_traits@V?$basic_string@DU?$char_traits@D@std@@V?$allocator@D@2@@std@@V?$multimap@HP6A?AV?$shared_ptr@VImageSource@cinder@@@tr1@std@@V?$shared_ptr@VDataSource@cinder@@@23@VOptions@ImageSource@cinder@@@ZU?$less@H@3@V?$allocator@U?$pair@$$CBHP6A?AV?$shared_ptr@VImageSource@cinder@@@tr1@std@@V?$shared_ptr@VDataSource@cinder@@@23@VOptions@ImageSource@cinder@@@Z@std@@@3@@2@U?$less@V?$basic_string@DU?$char_traits@D@std@@V?$allocator@D@2@@std@@@2@V?$allocator@U?$pair@$$CBV?$basic_string@DU?$char_traits@D@std@@V?$allocator@D@2@@std@@V?$multimap@HP6A?AV?$shared_ptr@VImageSource@cinder@@@tr1@std@@V?$shared_ptr@VDataSource@cinder@@@23@VOptions@ImageSource@cinder@@@ZU?$less@H@3@V?$allocator@U?$pair@$$CBHP6A?AV?$shared_ptr@VImageSource@cinder@@@tr1@std@@V?$shared_ptr@VDataSource@cinder@@@23@VOptions@ImageSource@cinder@@@Z@std@@@3@@2@@std@@@2@$0A@@std@@@2@@Z 00430630 f i cinder:ImageIo.obj
 0001:0002f690       ?_Max@?$_Tree_val@V?$_Tmap_traits@V?$basic_string@DU?$char_traits@D@std@@V?$allocator@D@2@@std@@V?$multimap@HP6A?AV?$shared_ptr@VImageSource@cinder@@@tr1@std@@V?$shared_ptr@VDataSource@cinder@@@23@VOptions@ImageSource@cinder@@@ZU?$less@H@3@V?$allocator@U?$pair@$$CBHP6A?AV?$shared_ptr@VImageSource@cinder@@@tr1@std@@V?$shared_ptr@VDataSource@cinder@@@23@VOptions@ImageSource@cinder@@@Z@std@@@3@@2@U?$less@V?$basic_string@DU?$char_traits@D@std@@V?$allocator@D@2@@std@@@2@V?$allocator@U?$pair@$$CBV?$basic_string@DU?$char_traits@D@std@@V?$allocator@D@2@@std@@V?$multimap@HP6A?AV?$shared_ptr@VImageSource@cinder@@@tr1@std@@V?$shared_ptr@VDataSource@cinder@@@23@VOptions@ImageSource@cinder@@@ZU?$less@H@3@V?$allocator@U?$pair@$$CBHP6A?AV?$shared_ptr@VImageSource@cinder@@@tr1@std@@V?$shared_ptr@VDataSource@cinder@@@23@VOptions@ImageSource@cinder@@@Z@std@@@3@@2@@std@@@2@$0A@@std@@@std@@SAPAU_Node@?$_Tree_nod@V?$_Tmap_traits@V?$basic_string@DU?$char_traits@D@std@@V?$allocator@D@2@@std@@V?$multimap@HP6A?AV?$shared_ptr@VImageSource@cinder@@@tr1@std@@V?$shared_ptr@VDataSource@cinder@@@23@VOptions@ImageSource@cinder@@@ZU?$less@H@3@V?$allocator@U?$pair@$$CBHP6A?AV?$shared_ptr@VImageSource@cinder@@@tr1@std@@V?$shared_ptr@VDataSource@cinder@@@23@VOptions@ImageSource@cinder@@@Z@std@@@3@@2@U?$less@V?$basic_string@DU?$char_traits@D@std@@V?$allocator@D@2@@std@@@2@V?$allocator@U?$pair@$$CBV?$basic_string@DU?$char_traits@D@std@@V?$allocator@D@2@@std@@V?$multimap@HP6A?AV?$shared_ptr@VImageSource@cinder@@@tr1@std@@V?$shared_ptr@VDataSource@cinder@@@23@VOptions@ImageSource@cinder@@@ZU?$less@H@3@V?$allocator@U?$pair@$$CBHP6A?AV?$shared_ptr@VImageSource@cinder@@@tr1@std@@V?$shared_ptr@VDataSource@cinder@@@23@VOptions@ImageSource@cinder@@@Z@std@@@3@@2@@std@@@2@$0A@@std@@@2@PAU342@@Z 00430690 f i cinder:ImageIo.obj
 0001:0002f690       ?_Max@?$_Tree_val@V?$_Tmap_traits@V?$basic_string@DU?$char_traits@D@std@@V?$allocator@D@2@@std@@V?$multimap@HU?$pair@P6A?AV?$shared_ptr@VImageTarget@cinder@@@tr1@std@@V?$shared_ptr@VDataTarget@cinder@@@23@V?$shared_ptr@VImageSource@cinder@@@23@VOptions@ImageTarget@cinder@@ABV?$basic_string@DU?$char_traits@D@std@@V?$allocator@D@2@@3@@ZV93@@std@@U?$less@H@2@V?$allocator@U?$pair@$$CBHU?$pair@P6A?AV?$shared_ptr@VImageTarget@cinder@@@tr1@std@@V?$shared_ptr@VDataTarget@cinder@@@23@V?$shared_ptr@VImageSource@cinder@@@23@VOptions@ImageTarget@cinder@@ABV?$basic_string@DU?$char_traits@D@std@@V?$allocator@D@2@@3@@ZV93@@std@@@std@@@2@@2@U?$less@V?$basic_string@DU?$char_traits@D@std@@V?$allocator@D@2@@std@@@2@V?$allocator@U?$pair@$$CBV?$basic_string@DU?$char_traits@D@std@@V?$allocator@D@2@@std@@V?$multimap@HU?$pair@P6A?AV?$shared_ptr@VImageTarget@cinder@@@tr1@std@@V?$shared_ptr@VDataTarget@cinder@@@23@V?$shared_ptr@VImageSource@cinder@@@23@VOptions@ImageTarget@cinder@@ABV?$basic_string@DU?$char_traits@D@std@@V?$allocator@D@2@@3@@ZV93@@std@@U?$less@H@2@V?$allocator@U?$pair@$$CBHU?$pair@P6A?AV?$shared_ptr@VImageTarget@cinder@@@tr1@std@@V?$shared_ptr@VDataTarget@cinder@@@23@V?$shared_ptr@VImageSource@cinder@@@23@VOptions@ImageTarget@cinder@@ABV?$basic_string@DU?$char_traits@D@std@@V?$allocator@D@2@@3@@ZV93@@std@@@std@@@2@@2@@std@@@2@$0A@@std@@@std@@SAPAU_Node@?$_Tree_nod@V?$_Tmap_traits@V?$basic_string@DU?$char_traits@D@std@@V?$allocator@D@2@@std@@V?$multimap@HU?$pair@P6A?AV?$shared_ptr@VImageTarget@cinder@@@tr1@std@@V?$shared_ptr@VDataTarget@cinder@@@23@V?$shared_ptr@VImageSource@cinder@@@23@VOptions@ImageTarget@cinder@@ABV?$basic_string@DU?$char_traits@D@std@@V?$allocator@D@2@@3@@ZV93@@std@@U?$less@H@2@V?$allocator@U?$pair@$$CBHU?$pair@P6A?AV?$shared_ptr@VImageTarget@cinder@@@tr1@std@@V?$shared_ptr@VDataTarget@cinder@@@23@V?$shared_ptr@VImageSource@cinder@@@23@VOptions@ImageTarget@cinder@@ABV?$basic_string@DU?$char_traits@D@std@@V?$allocator@D@2@@3@@ZV93@@std@@@std@@@2@@2@U?$less@V?$basic_string@DU?$char_traits@D@std@@V?$allocator@D@2@@std@@@2@V?$allocator@U?$pair@$$CBV?$basic_string@DU?$char_traits@D@std@@V?$allocator@D@2@@std@@V?$multimap@HU?$pair@P6A?AV?$shared_ptr@VImageTarget@cinder@@@tr1@std@@V?$shared_ptr@VDataTarget@cinder@@@23@V?$shared_ptr@VImageSource@cinder@@@23@VOptions@ImageTarget@cinder@@ABV?$basic_string@DU?$char_traits@D@std@@V?$allocator@D@2@@3@@ZV93@@std@@U?$less@H@2@V?$allocator@U?$pair@$$CBHU?$pair@P6A?AV?$shared_ptr@VImageTarget@cinder@@@tr1@std@@V?$shared_ptr@VDataTarget@cinder@@@23@V?$shared_ptr@VImageSource@cinder@@@23@VOptions@ImageTarget@cinder@@ABV?$basic_string@DU?$char_traits@D@std@@V?$allocator@D@2@@3@@ZV93@@std@@@std@@@2@@2@@std@@@2@$0A@@std@@@2@PAU342@@Z 00430690 f i cinder:ImageIo.obj
 0001:0002f6b0       ?_Rrotate@?$_Tree@V?$_Tmap_traits@HU?$pair@P6A?AV?$shared_ptr@VImageTarget@cinder@@@tr1@std@@V?$shared_ptr@VDataTarget@cinder@@@23@V?$shared_ptr@VImageSource@cinder@@@23@VOptions@ImageTarget@cinder@@ABV?$basic_string@DU?$char_traits@D@std@@V?$allocator@D@2@@3@@ZV93@@std@@U?$less@H@2@V?$allocator@U?$pair@$$CBHU?$pair@P6A?AV?$shared_ptr@VImageTarget@cinder@@@tr1@std@@V?$shared_ptr@VDataTarget@cinder@@@23@V?$shared_ptr@VImageSource@cinder@@@23@VOptions@ImageTarget@cinder@@ABV?$basic_string@DU?$char_traits@D@std@@V?$allocator@D@2@@3@@ZV93@@std@@@std@@@2@$00@std@@@std@@IAEXPAU_Node@?$_Tree_nod@V?$_Tmap_traits@HU?$pair@P6A?AV?$shared_ptr@VImageTarget@cinder@@@tr1@std@@V?$shared_ptr@VDataTarget@cinder@@@23@V?$shared_ptr@VImageSource@cinder@@@23@VOptions@ImageTarget@cinder@@ABV?$basic_string@DU?$char_traits@D@std@@V?$allocator@D@2@@3@@ZV93@@std@@U?$less@H@2@V?$allocator@U?$pair@$$CBHU?$pair@P6A?AV?$shared_ptr@VImageTarget@cinder@@@tr1@std@@V?$shared_ptr@VDataTarget@cinder@@@23@V?$shared_ptr@VImageSource@cinder@@@23@VOptions@ImageTarget@cinder@@ABV?$basic_string@DU?$char_traits@D@std@@V?$allocator@D@2@@3@@ZV93@@std@@@std@@@2@$00@std@@@2@@Z 004306b0 f i cinder:ImageIo.obj
 0001:0002f710       ?_Max@?$_Tree_val@V?$_Tmap_traits@HU?$pair@P6A?AV?$shared_ptr@VImageTarget@cinder@@@tr1@std@@V?$shared_ptr@VDataTarget@cinder@@@23@V?$shared_ptr@VImageSource@cinder@@@23@VOptions@ImageTarget@cinder@@ABV?$basic_string@DU?$char_traits@D@std@@V?$allocator@D@2@@3@@ZV93@@std@@U?$less@H@2@V?$allocator@U?$pair@$$CBHU?$pair@P6A?AV?$shared_ptr@VImageTarget@cinder@@@tr1@std@@V?$shared_ptr@VDataTarget@cinder@@@23@V?$shared_ptr@VImageSource@cinder@@@23@VOptions@ImageTarget@cinder@@ABV?$basic_string@DU?$char_traits@D@std@@V?$allocator@D@2@@3@@ZV93@@std@@@std@@@2@$00@std@@@std@@SAPAU_Node@?$_Tree_nod@V?$_Tmap_traits@HU?$pair@P6A?AV?$shared_ptr@VImageTarget@cinder@@@tr1@std@@V?$shared_ptr@VDataTarget@cinder@@@23@V?$shared_ptr@VImageSource@cinder@@@23@VOptions@ImageTarget@cinder@@ABV?$basic_string@DU?$char_traits@D@std@@V?$allocator@D@2@@3@@ZV93@@std@@U?$less@H@2@V?$allocator@U?$pair@$$CBHU?$pair@P6A?AV?$shared_ptr@VImageTarget@cinder@@@tr1@std@@V?$shared_ptr@VDataTarget@cinder@@@23@V?$shared_ptr@VImageSource@cinder@@@23@VOptions@ImageTarget@cinder@@ABV?$basic_string@DU?$char_traits@D@std@@V?$allocator@D@2@@3@@ZV93@@std@@@std@@@2@$00@std@@@2@PAU342@@Z 00430710 f i cinder:ImageIo.obj
 0001:0002f730       ?_Min@?$_Tree_val@V?$_Tmap_traits@HU?$pair@P6A?AV?$shared_ptr@VImageTarget@cinder@@@tr1@std@@V?$shared_ptr@VDataTarget@cinder@@@23@V?$shared_ptr@VImageSource@cinder@@@23@VOptions@ImageTarget@cinder@@ABV?$basic_string@DU?$char_traits@D@std@@V?$allocator@D@2@@3@@ZV93@@std@@U?$less@H@2@V?$allocator@U?$pair@$$CBHU?$pair@P6A?AV?$shared_ptr@VImageTarget@cinder@@@tr1@std@@V?$shared_ptr@VDataTarget@cinder@@@23@V?$shared_ptr@VImageSource@cinder@@@23@VOptions@ImageTarget@cinder@@ABV?$basic_string@DU?$char_traits@D@std@@V?$allocator@D@2@@3@@ZV93@@std@@@std@@@2@$00@std@@@std@@SAPAU_Node@?$_Tree_nod@V?$_Tmap_traits@HU?$pair@P6A?AV?$shared_ptr@VImageTarget@cinder@@@tr1@std@@V?$shared_ptr@VDataTarget@cinder@@@23@V?$shared_ptr@VImageSource@cinder@@@23@VOptions@ImageTarget@cinder@@ABV?$basic_string@DU?$char_traits@D@std@@V?$allocator@D@2@@3@@ZV93@@std@@U?$less@H@2@V?$allocator@U?$pair@$$CBHU?$pair@P6A?AV?$shared_ptr@VImageTarget@cinder@@@tr1@std@@V?$shared_ptr@VDataTarget@cinder@@@23@V?$shared_ptr@VImageSource@cinder@@@23@VOptions@ImageTarget@cinder@@ABV?$basic_string@DU?$char_traits@D@std@@V?$allocator@D@2@@3@@ZV93@@std@@@std@@@2@$00@std@@@2@PAU342@@Z 00430730 f i cinder:ImageIo.obj
 0001:0002f750       ??E?$_Tree_unchecked_const_iterator@V?$_Tree_val@V?$_Tmap_traits@HU?$pair@P6A?AV?$shared_ptr@VImageTarget@cinder@@@tr1@std@@V?$shared_ptr@VDataTarget@cinder@@@23@V?$shared_ptr@VImageSource@cinder@@@23@VOptions@ImageTarget@cinder@@ABV?$basic_string@DU?$char_traits@D@std@@V?$allocator@D@2@@3@@ZV93@@std@@U?$less@H@2@V?$allocator@U?$pair@$$CBHU?$pair@P6A?AV?$shared_ptr@VImageTarget@cinder@@@tr1@std@@V?$shared_ptr@VDataTarget@cinder@@@23@V?$shared_ptr@VImageSource@cinder@@@23@VOptions@ImageTarget@cinder@@ABV?$basic_string@DU?$char_traits@D@std@@V?$allocator@D@2@@3@@ZV93@@std@@@std@@@2@$00@std@@@std@@U_Iterator_base0@2@@std@@QAEAAV01@XZ 00430750 f i cinder:ImageIo.obj
 0001:0002f7a0       ??F?$_Tree_unchecked_const_iterator@V?$_Tree_val@V?$_Tmap_traits@V?$basic_string@DU?$char_traits@D@std@@V?$allocator@D@2@@std@@V?$multimap@HU?$pair@P6A?AV?$shared_ptr@VImageTarget@cinder@@@tr1@std@@V?$shared_ptr@VDataTarget@cinder@@@23@V?$shared_ptr@VImageSource@cinder@@@23@VOptions@ImageTarget@cinder@@ABV?$basic_string@DU?$char_traits@D@std@@V?$allocator@D@2@@3@@ZV93@@std@@U?$less@H@2@V?$allocator@U?$pair@$$CBHU?$pair@P6A?AV?$shared_ptr@VImageTarget@cinder@@@tr1@std@@V?$shared_ptr@VDataTarget@cinder@@@23@V?$shared_ptr@VImageSource@cinder@@@23@VOptions@ImageTarget@cinder@@ABV?$basic_string@DU?$char_traits@D@std@@V?$allocator@D@2@@3@@ZV93@@std@@@std@@@2@@2@U?$less@V?$basic_string@DU?$char_traits@D@std@@V?$allocator@D@2@@std@@@2@V?$allocator@U?$pair@$$CBV?$basic_string@DU?$char_traits@D@std@@V?$allocator@D@2@@std@@V?$multimap@HU?$pair@P6A?AV?$shared_ptr@VImageTarget@cinder@@@tr1@std@@V?$shared_ptr@VDataTarget@cinder@@@23@V?$shared_ptr@VImageSource@cinder@@@23@VOptions@ImageTarget@cinder@@ABV?$basic_string@DU?$char_traits@D@std@@V?$allocator@D@2@@3@@ZV93@@std@@U?$less@H@2@V?$allocator@U?$pair@$$CBHU?$pair@P6A?AV?$shared_ptr@VImageTarget@cinder@@@tr1@std@@V?$shared_ptr@VDataTarget@cinder@@@23@V?$shared_ptr@VImageSource@cinder@@@23@VOptions@ImageTarget@cinder@@ABV?$basic_string@DU?$char_traits@D@std@@V?$allocator@D@2@@3@@ZV93@@std@@@std@@@2@@2@@std@@@2@$0A@@std@@@std@@U_Iterator_base0@2@@std@@QAEAAV01@XZ 004307a0 f i cinder:ImageIo.obj
 0001:0002f800       ??F?$_Tree_unchecked_const_iterator@V?$_Tree_val@V?$_Tmap_traits@HP6A?AV?$shared_ptr@VImageSource@cinder@@@tr1@std@@V?$shared_ptr@VDataSource@cinder@@@23@VOptions@ImageSource@cinder@@@ZU?$less@H@3@V?$allocator@U?$pair@$$CBHP6A?AV?$shared_ptr@VImageSource@cinder@@@tr1@std@@V?$shared_ptr@VDataSource@cinder@@@23@VOptions@ImageSource@cinder@@@Z@std@@@3@$0A@@std@@@std@@U_Iterator_base0@2@@std@@QAEAAV01@XZ 00430800 f i cinder:ImageIo.obj
 0001:0002f860       ??_EExcChildNotFound@XmlTree@cinder@@UAEPAXI@Z 00430860 f i cinder:Xml.obj
 0001:0002f860       ??_EFboExceptionInvalidSpecification@gl@cinder@@UAEPAXI@Z 00430860 f i cinder:Fbo.obj
 0001:0002f860       ??_EImageIoExceptionFailedLoad@cinder@@UAEPAXI@Z 00430860 f i cinder:ImageIo.obj
 0001:0002f860       ??_EImageIoExceptionIllegalChannelOrder@cinder@@UAEPAXI@Z 00430860 f i cinder:ImageIo.obj
 0001:0002f860       ??_GFboExceptionInvalidSpecification@gl@cinder@@UAEPAXI@Z 00430860 f i cinder:Fbo.obj
 0001:0002f860       ??_EStreamExc@cinder@@UAEPAXI@Z 00430860 f i cinder:DataSource.obj
 0001:0002f860       ??_GImageIoException@cinder@@UAEPAXI@Z 00430860 f i cinder:Texture.obj
 0001:0002f860       ??_GImageIoExceptionIllegalColorModel@cinder@@UAEPAXI@Z 00430860 f i cinder:Texture.obj
 0001:0002f860       ??_GExcChildNotFound@XmlTree@cinder@@UAEPAXI@Z 00430860 f i cinder:Xml.obj
 0001:0002f860       ??_EExcAttrNotFound@XmlTree@cinder@@UAEPAXI@Z 00430860 f i cinder:Xml.obj
 0001:0002f860       ??_GFboException@gl@cinder@@UAEPAXI@Z 00430860 f i cinder:Fbo.obj
 0001:0002f860       ??_GStreamExc@cinder@@UAEPAXI@Z 00430860 f i cinder:DataSource.obj
 0001:0002f860       ??_EImageIoExceptionIllegalColorModel@cinder@@UAEPAXI@Z 00430860 f i cinder:Texture.obj
 0001:0002f860       ??_EStreamExcOutOfMemory@cinder@@UAEPAXI@Z 00430860 f i cinder:Stream.obj
 0001:0002f860       ??_GException@cinder@@UAEPAXI@Z 00430860 f i cinder:Xml.obj
 0001:0002f860       ??_GStreamExcOutOfMemory@cinder@@UAEPAXI@Z 00430860 f i cinder:Stream.obj
 0001:0002f860       ??_EImageIoExceptionUnknownExtension@cinder@@UAEPAXI@Z 00430860 f i cinder:ImageIo.obj
 0001:0002f860       ??_GImageIoExceptionUnknownExtension@cinder@@UAEPAXI@Z 00430860 f i cinder:ImageIo.obj
 0001:0002f860       ??_EException@XmlTree@cinder@@UAEPAXI@Z 00430860 f i cinder:Xml.obj
 0001:0002f860       ??_GExcAttrNotFound@XmlTree@cinder@@UAEPAXI@Z 00430860 f i cinder:Xml.obj
 0001:0002f860       ??_GImageIoExceptionFailedLoad@cinder@@UAEPAXI@Z 00430860 f i cinder:ImageIo.obj
 0001:0002f860       ??_EFboException@gl@cinder@@UAEPAXI@Z 00430860 f i cinder:Fbo.obj
 0001:0002f860       ??_GImageIoExceptionIllegalChannelOrder@cinder@@UAEPAXI@Z 00430860 f i cinder:ImageIo.obj
 0001:0002f860       ??_EImageIoExceptionIllegalDataType@cinder@@UAEPAXI@Z 00430860 f i cinder:ImageIo.obj
 0001:0002f860       ??_GImageIoExceptionIllegalDataType@cinder@@UAEPAXI@Z 00430860 f i cinder:ImageIo.obj
 0001:0002f860       ??_EImageIoException@cinder@@UAEPAXI@Z 00430860 f i cinder:Texture.obj
 0001:0002f860       ??_GException@XmlTree@cinder@@UAEPAXI@Z 00430860 f i cinder:Xml.obj
 0001:0002f860       ??_EException@cinder@@UAEPAXI@Z 00430860 f i cinder:Xml.obj
 0001:0002f890       ?channelOrderNumChannels@ImageIo@cinder@@SACW4ChannelOrder@12@@Z 00430890 f   cinder:ImageIo.obj
 0001:0002f910       ??E?$_Tree_unchecked_const_iterator@V?$_Tree_val@V?$_Tmap_traits@V?$basic_string@DU?$char_traits@D@std@@V?$allocator@D@2@@std@@V?$multimap@HU?$pair@P6A?AV?$shared_ptr@VImageTarget@cinder@@@tr1@std@@V?$shared_ptr@VDataTarget@cinder@@@23@V?$shared_ptr@VImageSource@cinder@@@23@VOptions@ImageTarget@cinder@@ABV?$basic_string@DU?$char_traits@D@std@@V?$allocator@D@2@@3@@ZV93@@std@@U?$less@H@2@V?$allocator@U?$pair@$$CBHU?$pair@P6A?AV?$shared_ptr@VImageTarget@cinder@@@tr1@std@@V?$shared_ptr@VDataTarget@cinder@@@23@V?$shared_ptr@VImageSource@cinder@@@23@VOptions@ImageTarget@cinder@@ABV?$basic_string@DU?$char_traits@D@std@@V?$allocator@D@2@@3@@ZV93@@std@@@std@@@2@@2@U?$less@V?$basic_string@DU?$char_traits@D@std@@V?$allocator@D@2@@std@@@2@V?$allocator@U?$pair@$$CBV?$basic_string@DU?$char_traits@D@std@@V?$allocator@D@2@@std@@V?$multimap@HU?$pair@P6A?AV?$shared_ptr@VImageTarget@cinder@@@tr1@std@@V?$shared_ptr@VDataTarget@cinder@@@23@V?$shared_ptr@VImageSource@cinder@@@23@VOptions@ImageTarget@cinder@@ABV?$basic_string@DU?$char_traits@D@std@@V?$allocator@D@2@@3@@ZV93@@std@@U?$less@H@2@V?$allocator@U?$pair@$$CBHU?$pair@P6A?AV?$shared_ptr@VImageTarget@cinder@@@tr1@std@@V?$shared_ptr@VDataTarget@cinder@@@23@V?$shared_ptr@VImageSource@cinder@@@23@VOptions@ImageTarget@cinder@@ABV?$basic_string@DU?$char_traits@D@std@@V?$allocator@D@2@@3@@ZV93@@std@@@std@@@2@@2@@std@@@2@$0A@@std@@@std@@U_Iterator_base0@2@@std@@QAEAAV01@XZ 00430910 f i cinder:ImageIo.obj
 0001:0002f910       ??E?$_Tree_unchecked_const_iterator@V?$_Tree_val@V?$_Tmap_traits@V?$basic_string@DU?$char_traits@D@std@@V?$allocator@D@2@@std@@V?$multimap@HP6A?AV?$shared_ptr@VImageSource@cinder@@@tr1@std@@V?$shared_ptr@VDataSource@cinder@@@23@VOptions@ImageSource@cinder@@@ZU?$less@H@3@V?$allocator@U?$pair@$$CBHP6A?AV?$shared_ptr@VImageSource@cinder@@@tr1@std@@V?$shared_ptr@VDataSource@cinder@@@23@VOptions@ImageSource@cinder@@@Z@std@@@3@@2@U?$less@V?$basic_string@DU?$char_traits@D@std@@V?$allocator@D@2@@std@@@2@V?$allocator@U?$pair@$$CBV?$basic_string@DU?$char_traits@D@std@@V?$allocator@D@2@@std@@V?$multimap@HP6A?AV?$shared_ptr@VImageSource@cinder@@@tr1@std@@V?$shared_ptr@VDataSource@cinder@@@23@VOptions@ImageSource@cinder@@@ZU?$less@H@3@V?$allocator@U?$pair@$$CBHP6A?AV?$shared_ptr@VImageSource@cinder@@@tr1@std@@V?$shared_ptr@VDataSource@cinder@@@23@VOptions@ImageSource@cinder@@@Z@std@@@3@@2@@std@@@2@$0A@@std@@@std@@U_Iterator_base0@2@@std@@QAEAAV01@XZ 00430910 f i cinder:ImageIo.obj
 0001:0002f960       ??1?$_Tree_val@V?$_Tmap_traits@V?$basic_string@DU?$char_traits@D@std@@V?$allocator@D@2@@std@@_NU?$less@V?$basic_string@DU?$char_traits@D@std@@V?$allocator@D@2@@std@@@2@V?$allocator@U?$pair@$$CBV?$basic_string@DU?$char_traits@D@std@@V?$allocator@D@2@@std@@_N@std@@@2@$0A@@std@@@std@@QAE@XZ 00430960 f i cinder:gl.obj
 0001:0002f960       ??1?$_Tree_val@V?$_Tmap_traits@KV?$Vec2@M@cinder@@U?$less@K@std@@V?$allocator@U?$pair@$$CBKV?$Vec2@M@cinder@@@std@@@4@$0A@@std@@@std@@QAE@XZ 00430960 f i cinder:AppImplMswBasic.obj
 0001:0002f960       ??1?$_Tree_val@V?$_Tmap_traits@V?$basic_string@DU?$char_traits@D@std@@V?$allocator@D@2@@std@@HU?$less@V?$basic_string@DU?$char_traits@D@std@@V?$allocator@D@2@@std@@@2@V?$allocator@U?$pair@$$CBV?$basic_string@DU?$char_traits@D@std@@V?$allocator@D@2@@std@@H@std@@@2@$0A@@std@@@std@@QAE@XZ 00430960 f i cinder:GlslProg.obj
 0001:0002f960       ??1?$_Tree_val@V?$_Tmap_traits@V?$basic_string@DU?$char_traits@D@std@@V?$allocator@D@2@@std@@V?$multimap@HU?$pair@P6A?AV?$shared_ptr@VImageTarget@cinder@@@tr1@std@@V?$shared_ptr@VDataTarget@cinder@@@23@V?$shared_ptr@VImageSource@cinder@@@23@VOptions@ImageTarget@cinder@@ABV?$basic_string@DU?$char_traits@D@std@@V?$allocator@D@2@@3@@ZV93@@std@@U?$less@H@2@V?$allocator@U?$pair@$$CBHU?$pair@P6A?AV?$shared_ptr@VImageTarget@cinder@@@tr1@std@@V?$shared_ptr@VDataTarget@cinder@@@23@V?$shared_ptr@VImageSource@cinder@@@23@VOptions@ImageTarget@cinder@@ABV?$basic_string@DU?$char_traits@D@std@@V?$allocator@D@2@@3@@ZV93@@std@@@std@@@2@@2@U?$less@V?$basic_string@DU?$char_traits@D@std@@V?$allocator@D@2@@std@@@2@V?$allocator@U?$pair@$$CBV?$basic_string@DU?$char_traits@D@std@@V?$allocator@D@2@@std@@V?$multimap@HU?$pair@P6A?AV?$shared_ptr@VImageTarget@cinder@@@tr1@std@@V?$shared_ptr@VDataTarget@cinder@@@23@V?$shared_ptr@VImageSource@cinder@@@23@VOptions@ImageTarget@cinder@@ABV?$basic_string@DU?$char_traits@D@std@@V?$allocator@D@2@@3@@ZV93@@std@@U?$less@H@2@V?$allocator@U?$pair@$$CBHU?$pair@P6A?AV?$shared_ptr@VImageTarget@cinder@@@tr1@std@@V?$shared_ptr@VDataTarget@cinder@@@23@V?$shared_ptr@VImageSource@cinder@@@23@VOptions@ImageTarget@cinder@@ABV?$basic_string@DU?$char_traits@D@std@@V?$allocator@D@2@@3@@ZV93@@std@@@std@@@2@@2@@std@@@2@$0A@@std@@@std@@QAE@XZ 00430960 f i cinder:ImageIo.obj
 0001:0002f960       ??1?$_Tree_val@V?$_Tmap_traits@HU?$pair@P6A?AV?$shared_ptr@VImageTarget@cinder@@@tr1@std@@V?$shared_ptr@VDataTarget@cinder@@@23@V?$shared_ptr@VImageSource@cinder@@@23@VOptions@ImageTarget@cinder@@ABV?$basic_string@DU?$char_traits@D@std@@V?$allocator@D@2@@3@@ZV93@@std@@U?$less@H@2@V?$allocator@U?$pair@$$CBHU?$pair@P6A?AV?$shared_ptr@VImageTarget@cinder@@@tr1@std@@V?$shared_ptr@VDataTarget@cinder@@@23@V?$shared_ptr@VImageSource@cinder@@@23@VOptions@ImageTarget@cinder@@ABV?$basic_string@DU?$char_traits@D@std@@V?$allocator@D@2@@3@@ZV93@@std@@@std@@@2@$00@std@@@std@@QAE@XZ 00430960 f i cinder:ImageIo.obj
 0001:0002f960       ??1?$_Tree_val@V?$_Tmap_traits@V?$basic_string@DU?$char_traits@D@std@@V?$allocator@D@2@@std@@V?$multimap@HP6A?AV?$shared_ptr@VImageSource@cinder@@@tr1@std@@V?$shared_ptr@VDataSource@cinder@@@23@VOptions@ImageSource@cinder@@@ZU?$less@H@3@V?$allocator@U?$pair@$$CBHP6A?AV?$shared_ptr@VImageSource@cinder@@@tr1@std@@V?$shared_ptr@VDataSource@cinder@@@23@VOptions@ImageSource@cinder@@@Z@std@@@3@@2@U?$less@V?$basic_string@DU?$char_traits@D@std@@V?$allocator@D@2@@std@@@2@V?$allocator@U?$pair@$$CBV?$basic_string@DU?$char_traits@D@std@@V?$allocator@D@2@@std@@V?$multimap@HP6A?AV?$shared_ptr@VImageSource@cinder@@@tr1@std@@V?$shared_ptr@VDataSource@cinder@@@23@VOptions@ImageSource@cinder@@@ZU?$less@H@3@V?$allocator@U?$pair@$$CBHP6A?AV?$shared_ptr@VImageSource@cinder@@@tr1@std@@V?$shared_ptr@VDataSource@cinder@@@23@VOptions@ImageSource@cinder@@@Z@std@@@3@@2@@std@@@2@$0A@@std@@@std@@QAE@XZ 00430960 f i cinder:ImageIo.obj
 0001:0002f960       ??1?$_Tree_val@V?$_Tmap_traits@V?$basic_string@DU?$char_traits@D@std@@V?$allocator@D@2@@std@@PBU_GUID@@U?$less@V?$basic_string@DU?$char_traits@D@std@@V?$allocator@D@2@@std@@@2@V?$allocator@U?$pair@$$CBV?$basic_string@DU?$char_traits@D@std@@V?$allocator@D@2@@std@@PBU_GUID@@@std@@@2@$0A@@std@@@std@@QAE@XZ 00430960 f i cinder:ImageTargetFileWic.obj
 0001:0002f960       ??1?$_Tree_val@V?$_Tmap_traits@HP6A?AV?$shared_ptr@VImageSource@cinder@@@tr1@std@@V?$shared_ptr@VDataSource@cinder@@@23@VOptions@ImageSource@cinder@@@ZU?$less@H@3@V?$allocator@U?$pair@$$CBHP6A?AV?$shared_ptr@VImageSource@cinder@@@tr1@std@@V?$shared_ptr@VDataSource@cinder@@@23@VOptions@ImageSource@cinder@@@Z@std@@@3@$00@std@@@std@@QAE@XZ 00430960 f i cinder:ImageIo.obj
 0001:0002f960       ??1?$_Tree_val@V?$_Tmap_traits@HP6A?AV?$shared_ptr@VImageSource@cinder@@@tr1@std@@V?$shared_ptr@VDataSource@cinder@@@23@VOptions@ImageSource@cinder@@@ZU?$less@H@3@V?$allocator@U?$pair@$$CBHP6A?AV?$shared_ptr@VImageSource@cinder@@@tr1@std@@V?$shared_ptr@VDataSource@cinder@@@23@VOptions@ImageSource@cinder@@@Z@std@@@3@$0A@@std@@@std@@QAE@XZ 00430960 f i cinder:ImageIo.obj
 0001:0002f970       ??E?$_Tree_unchecked_const_iterator@V?$_Tree_val@V?$_Tmap_traits@HP6A?AV?$shared_ptr@VImageSource@cinder@@@tr1@std@@V?$shared_ptr@VDataSource@cinder@@@23@VOptions@ImageSource@cinder@@@ZU?$less@H@3@V?$allocator@U?$pair@$$CBHP6A?AV?$shared_ptr@VImageSource@cinder@@@tr1@std@@V?$shared_ptr@VDataSource@cinder@@@23@VOptions@ImageSource@cinder@@@Z@std@@@3@$00@std@@@std@@U_Iterator_base0@2@@std@@QAEAAV01@XZ 00430970 f i cinder:ImageIo.obj
 0001:0002f970       ??E?$_Tree_unchecked_const_iterator@V?$_Tree_val@V?$_Tmap_traits@HP6A?AV?$shared_ptr@VImageSource@cinder@@@tr1@std@@V?$shared_ptr@VDataSource@cinder@@@23@VOptions@ImageSource@cinder@@@ZU?$less@H@3@V?$allocator@U?$pair@$$CBHP6A?AV?$shared_ptr@VImageSource@cinder@@@tr1@std@@V?$shared_ptr@VDataSource@cinder@@@23@VOptions@ImageSource@cinder@@@Z@std@@@3@$0A@@std@@@std@@U_Iterator_base0@2@@std@@QAEAAV01@XZ 00430970 f i cinder:ImageIo.obj
 0001:0002f9c0       ?_Lrotate@?$_Tree@V?$_Tmap_traits@HP6A?AV?$shared_ptr@VImageSource@cinder@@@tr1@std@@V?$shared_ptr@VDataSource@cinder@@@23@VOptions@ImageSource@cinder@@@ZU?$less@H@3@V?$allocator@U?$pair@$$CBHP6A?AV?$shared_ptr@VImageSource@cinder@@@tr1@std@@V?$shared_ptr@VDataSource@cinder@@@23@VOptions@ImageSource@cinder@@@Z@std@@@3@$0A@@std@@@std@@IAEXPAU_Node@?$_Tree_nod@V?$_Tmap_traits@HP6A?AV?$shared_ptr@VImageSource@cinder@@@tr1@std@@V?$shared_ptr@VDataSource@cinder@@@23@VOptions@ImageSource@cinder@@@ZU?$less@H@3@V?$allocator@U?$pair@$$CBHP6A?AV?$shared_ptr@VImageSource@cinder@@@tr1@std@@V?$shared_ptr@VDataSource@cinder@@@23@VOptions@ImageSource@cinder@@@Z@std@@@3@$0A@@std@@@2@@Z 004309c0 f i cinder:ImageIo.obj
 0001:0002f9c0       ?_Lrotate@?$_Tree@V?$_Tmap_traits@HP6A?AV?$shared_ptr@VImageSource@cinder@@@tr1@std@@V?$shared_ptr@VDataSource@cinder@@@23@VOptions@ImageSource@cinder@@@ZU?$less@H@3@V?$allocator@U?$pair@$$CBHP6A?AV?$shared_ptr@VImageSource@cinder@@@tr1@std@@V?$shared_ptr@VDataSource@cinder@@@23@VOptions@ImageSource@cinder@@@Z@std@@@3@$00@std@@@std@@IAEXPAU_Node@?$_Tree_nod@V?$_Tmap_traits@HP6A?AV?$shared_ptr@VImageSource@cinder@@@tr1@std@@V?$shared_ptr@VDataSource@cinder@@@23@VOptions@ImageSource@cinder@@@ZU?$less@H@3@V?$allocator@U?$pair@$$CBHP6A?AV?$shared_ptr@VImageSource@cinder@@@tr1@std@@V?$shared_ptr@VDataSource@cinder@@@23@VOptions@ImageSource@cinder@@@Z@std@@@3@$00@std@@@2@@Z 004309c0 f i cinder:ImageIo.obj
 0001:0002fa20       ?_Lrotate@?$_Tree@V?$_Tmap_traits@HU?$pair@P6A?AV?$shared_ptr@VImageTarget@cinder@@@tr1@std@@V?$shared_ptr@VDataTarget@cinder@@@23@V?$shared_ptr@VImageSource@cinder@@@23@VOptions@ImageTarget@cinder@@ABV?$basic_string@DU?$char_traits@D@std@@V?$allocator@D@2@@3@@ZV93@@std@@U?$less@H@2@V?$allocator@U?$pair@$$CBHU?$pair@P6A?AV?$shared_ptr@VImageTarget@cinder@@@tr1@std@@V?$shared_ptr@VDataTarget@cinder@@@23@V?$shared_ptr@VImageSource@cinder@@@23@VOptions@ImageTarget@cinder@@ABV?$basic_string@DU?$char_traits@D@std@@V?$allocator@D@2@@3@@ZV93@@std@@@std@@@2@$00@std@@@std@@IAEXPAU_Node@?$_Tree_nod@V?$_Tmap_traits@HU?$pair@P6A?AV?$shared_ptr@VImageTarget@cinder@@@tr1@std@@V?$shared_ptr@VDataTarget@cinder@@@23@V?$shared_ptr@VImageSource@cinder@@@23@VOptions@ImageTarget@cinder@@ABV?$basic_string@DU?$char_traits@D@std@@V?$allocator@D@2@@3@@ZV93@@std@@U?$less@H@2@V?$allocator@U?$pair@$$CBHU?$pair@P6A?AV?$shared_ptr@VImageTarget@cinder@@@tr1@std@@V?$shared_ptr@VDataTarget@cinder@@@23@V?$shared_ptr@VImageSource@cinder@@@23@VOptions@ImageTarget@cinder@@ABV?$basic_string@DU?$char_traits@D@std@@V?$allocator@D@2@@3@@ZV93@@std@@@std@@@2@$00@std@@@2@@Z 00430a20 f i cinder:ImageIo.obj
 0001:0002fa80       ?translateRgbColorModelToOffsets@ImageIo@cinder@@SAXW4ChannelOrder@12@PAC1111@Z 00430a80 f   cinder:ImageIo.obj
 0001:0002fc40       ??0ImageIoExceptionIllegalChannelOrder@cinder@@QAE@ABV01@@Z 00430c40 f i cinder:ImageIo.obj
 0001:0002fc60       ?_Insert@?$_Tree@V?$_Tmap_traits@HP6A?AV?$shared_ptr@VImageSource@cinder@@@tr1@std@@V?$shared_ptr@VDataSource@cinder@@@23@VOptions@ImageSource@cinder@@@ZU?$less@H@3@V?$allocator@U?$pair@$$CBHP6A?AV?$shared_ptr@VImageSource@cinder@@@tr1@std@@V?$shared_ptr@VDataSource@cinder@@@23@VOptions@ImageSource@cinder@@@Z@std@@@3@$0A@@std@@@std@@IAE?AV?$_Tree_iterator@V?$_Tree_val@V?$_Tmap_traits@HP6A?AV?$shared_ptr@VImageSource@cinder@@@tr1@std@@V?$shared_ptr@VDataSource@cinder@@@23@VOptions@ImageSource@cinder@@@ZU?$less@H@3@V?$allocator@U?$pair@$$CBHP6A?AV?$shared_ptr@VImageSource@cinder@@@tr1@std@@V?$shared_ptr@VDataSource@cinder@@@23@VOptions@ImageSource@cinder@@@Z@std@@@3@$0A@@std@@@std@@@2@_NPAU_Node@?$_Tree_nod@V?$_Tmap_traits@HP6A?AV?$shared_ptr@VImageSource@cinder@@@tr1@std@@V?$shared_ptr@VDataSource@cinder@@@23@VOptions@ImageSource@cinder@@@ZU?$less@H@3@V?$allocator@U?$pair@$$CBHP6A?AV?$shared_ptr@VImageSource@cinder@@@tr1@std@@V?$shared_ptr@VDataSource@cinder@@@23@VOptions@ImageSource@cinder@@@Z@std@@@3@$0A@@std@@@2@1@Z 00430c60 f i cinder:ImageIo.obj
 0001:0002fe90       ??$_Transform@PADV?$_String_iterator@DU?$char_traits@D@std@@V?$allocator@D@2@@std@@P6AHH@Z@std@@YA?AV?$_String_iterator@DU?$char_traits@D@std@@V?$allocator@D@2@@0@PAD0V10@P6AHH@Z@Z 00430e90 f i cinder:ImageIo.obj
 0001:0002fed0       ??$rowFuncSourceRgb@EE$0A@$00@ImageSource@cinder@@IAEXV?$shared_ptr@VImageTarget@cinder@@@tr1@std@@HPBX@Z 00430ed0 f i cinder:ImageIo.obj
 0001:0002ffc0       ??$rowFuncSourceRgb@EE$0A@$0A@@ImageSource@cinder@@IAEXV?$shared_ptr@VImageTarget@cinder@@@tr1@std@@HPBX@Z 00430fc0 f i cinder:ImageIo.obj
 0001:000300a0       ??$rowFuncSourceGray@EE$0A@$00@ImageSource@cinder@@IAEXV?$shared_ptr@VImageTarget@cinder@@@tr1@std@@HPBX@Z 004310a0 f i cinder:ImageIo.obj
 0001:00030180       ??$rowFuncSourceGray@EE$0A@$0A@@ImageSource@cinder@@IAEXV?$shared_ptr@VImageTarget@cinder@@@tr1@std@@HPBX@Z 00431180 f i cinder:ImageIo.obj
 0001:00030250       ??$rowFuncSourceRgb@EE$00$00@ImageSource@cinder@@IAEXV?$shared_ptr@VImageTarget@cinder@@@tr1@std@@HPBX@Z 00431250 f i cinder:ImageIo.obj
 0001:00030340       ??$rowFuncSourceRgb@EE$00$0A@@ImageSource@cinder@@IAEXV?$shared_ptr@VImageTarget@cinder@@@tr1@std@@HPBX@Z 00431340 f i cinder:ImageIo.obj
 0001:00030420       ??$rowFuncSourceGray@EE$00$00@ImageSource@cinder@@IAEXV?$shared_ptr@VImageTarget@cinder@@@tr1@std@@HPBX@Z 00431420 f i cinder:ImageIo.obj
 0001:000304e0       ??$rowFuncSourceGray@EE$00$0A@@ImageSource@cinder@@IAEXV?$shared_ptr@VImageTarget@cinder@@@tr1@std@@HPBX@Z 004314e0 f i cinder:ImageIo.obj
 0001:00030590       ??$rowFuncSourceRgb@EG$0A@$00@ImageSource@cinder@@IAEXV?$shared_ptr@VImageTarget@cinder@@@tr1@std@@HPBX@Z 00431590 f i cinder:ImageIo.obj
 0001:00030690       ??$rowFuncSourceRgb@EG$0A@$0A@@ImageSource@cinder@@IAEXV?$shared_ptr@VImageTarget@cinder@@@tr1@std@@HPBX@Z 00431690 f i cinder:ImageIo.obj
 0001:00030780       ??$rowFuncSourceGray@EG$0A@$00@ImageSource@cinder@@IAEXV?$shared_ptr@VImageTarget@cinder@@@tr1@std@@HPBX@Z 00431780 f i cinder:ImageIo.obj
 0001:00030870       ??$rowFuncSourceGray@EG$0A@$0A@@ImageSource@cinder@@IAEXV?$shared_ptr@VImageTarget@cinder@@@tr1@std@@HPBX@Z 00431870 f i cinder:ImageIo.obj
 0001:00030940       ??$rowFuncSourceRgb@EG$00$00@ImageSource@cinder@@IAEXV?$shared_ptr@VImageTarget@cinder@@@tr1@std@@HPBX@Z 00431940 f i cinder:ImageIo.obj
 0001:00030a40       ??$rowFuncSourceRgb@EG$00$0A@@ImageSource@cinder@@IAEXV?$shared_ptr@VImageTarget@cinder@@@tr1@std@@HPBX@Z 00431a40 f i cinder:ImageIo.obj
 0001:00030b30       ??$rowFuncSourceGray@EG$00$00@ImageSource@cinder@@IAEXV?$shared_ptr@VImageTarget@cinder@@@tr1@std@@HPBX@Z 00431b30 f i cinder:ImageIo.obj
 0001:00030c10       ??$rowFuncSourceGray@EG$00$0A@@ImageSource@cinder@@IAEXV?$shared_ptr@VImageTarget@cinder@@@tr1@std@@HPBX@Z 00431c10 f i cinder:ImageIo.obj
 0001:00030cd0       ??$rowFuncSourceRgb@EM$0A@$00@ImageSource@cinder@@IAEXV?$shared_ptr@VImageTarget@cinder@@@tr1@std@@HPBX@Z 00431cd0 f i cinder:ImageIo.obj
 0001:00031030       ??$rowFuncSourceRgb@EM$0A@$0A@@ImageSource@cinder@@IAEXV?$shared_ptr@VImageTarget@cinder@@@tr1@std@@HPBX@Z 00432030 f i cinder:ImageIo.obj
 0001:000312f0       ??$rowFuncSourceGray@EM$0A@$00@ImageSource@cinder@@IAEXV?$shared_ptr@VImageTarget@cinder@@@tr1@std@@HPBX@Z 004322f0 f i cinder:ImageIo.obj
 0001:00031560       ??$rowFuncSourceGray@EM$0A@$0A@@ImageSource@cinder@@IAEXV?$shared_ptr@VImageTarget@cinder@@@tr1@std@@HPBX@Z 00432560 f i cinder:ImageIo.obj
 0001:00031740       ??$rowFuncSourceRgb@EM$00$00@ImageSource@cinder@@IAEXV?$shared_ptr@VImageTarget@cinder@@@tr1@std@@HPBX@Z 00432740 f i cinder:ImageIo.obj
 0001:00031a30       ??$rowFuncSourceRgb@EM$00$0A@@ImageSource@cinder@@IAEXV?$shared_ptr@VImageTarget@cinder@@@tr1@std@@HPBX@Z 00432a30 f i cinder:ImageIo.obj
 0001:00031c90       ??$rowFuncSourceGray@EM$00$00@ImageSource@cinder@@IAEXV?$shared_ptr@VImageTarget@cinder@@@tr1@std@@HPBX@Z 00432c90 f i cinder:ImageIo.obj
 0001:00031e90       ??$rowFuncSourceGray@EM$00$0A@@ImageSource@cinder@@IAEXV?$shared_ptr@VImageTarget@cinder@@@tr1@std@@HPBX@Z 00432e90 f i cinder:ImageIo.obj
 0001:00032000       ??$rowFuncSourceRgb@GE$0A@$00@ImageSource@cinder@@IAEXV?$shared_ptr@VImageTarget@cinder@@@tr1@std@@HPBX@Z 00433000 f i cinder:ImageIo.obj
 0001:00032130       ??$rowFuncSourceRgb@GE$0A@$0A@@ImageSource@cinder@@IAEXV?$shared_ptr@VImageTarget@cinder@@@tr1@std@@HPBX@Z 00433130 f i cinder:ImageIo.obj
 0001:00032240       ??$rowFuncSourceGray@GE$0A@$00@ImageSource@cinder@@IAEXV?$shared_ptr@VImageTarget@cinder@@@tr1@std@@HPBX@Z 00433240 f i cinder:ImageIo.obj
 0001:00032340       ??$rowFuncSourceGray@GE$0A@$0A@@ImageSource@cinder@@IAEXV?$shared_ptr@VImageTarget@cinder@@@tr1@std@@HPBX@Z 00433340 f i cinder:ImageIo.obj
 0001:00032420       ??$rowFuncSourceRgb@GE$00$00@ImageSource@cinder@@IAEXV?$shared_ptr@VImageTarget@cinder@@@tr1@std@@HPBX@Z 00433420 f i cinder:ImageIo.obj
 0001:00032540       ??$rowFuncSourceRgb@GE$00$0A@@ImageSource@cinder@@IAEXV?$shared_ptr@VImageTarget@cinder@@@tr1@std@@HPBX@Z 00433540 f i cinder:ImageIo.obj
 0001:00032640       ??$rowFuncSourceGray@GE$00$00@ImageSource@cinder@@IAEXV?$shared_ptr@VImageTarget@cinder@@@tr1@std@@HPBX@Z 00433640 f i cinder:ImageIo.obj
 0001:00032730       ??$rowFuncSourceGray@GE$00$0A@@ImageSource@cinder@@IAEXV?$shared_ptr@VImageTarget@cinder@@@tr1@std@@HPBX@Z 00433730 f i cinder:ImageIo.obj
 0001:00032800       ??$rowFuncSourceRgb@GG$0A@$00@ImageSource@cinder@@IAEXV?$shared_ptr@VImageTarget@cinder@@@tr1@std@@HPBX@Z 00433800 f i cinder:ImageIo.obj
 0001:000328f0       ??$rowFuncSourceRgb@GG$0A@$0A@@ImageSource@cinder@@IAEXV?$shared_ptr@VImageTarget@cinder@@@tr1@std@@HPBX@Z 004338f0 f i cinder:ImageIo.obj
 0001:000329d0       ??$rowFuncSourceGray@GG$0A@$00@ImageSource@cinder@@IAEXV?$shared_ptr@VImageTarget@cinder@@@tr1@std@@HPBX@Z 004339d0 f i cinder:ImageIo.obj
 0001:00032ab0       ??$rowFuncSourceGray@GG$0A@$0A@@ImageSource@cinder@@IAEXV?$shared_ptr@VImageTarget@cinder@@@tr1@std@@HPBX@Z 00433ab0 f i cinder:ImageIo.obj
 0001:00032b80       ??$rowFuncSourceRgb@GG$00$00@ImageSource@cinder@@IAEXV?$shared_ptr@VImageTarget@cinder@@@tr1@std@@HPBX@Z 00433b80 f i cinder:ImageIo.obj
 0001:00032c80       ??$rowFuncSourceRgb@GG$00$0A@@ImageSource@cinder@@IAEXV?$shared_ptr@VImageTarget@cinder@@@tr1@std@@HPBX@Z 00433c80 f i cinder:ImageIo.obj
 0001:00032d70       ??$rowFuncSourceGray@GG$00$00@ImageSource@cinder@@IAEXV?$shared_ptr@VImageTarget@cinder@@@tr1@std@@HPBX@Z 00433d70 f i cinder:ImageIo.obj
 0001:00032e30       ??$rowFuncSourceGray@GG$00$0A@@ImageSource@cinder@@IAEXV?$shared_ptr@VImageTarget@cinder@@@tr1@std@@HPBX@Z 00433e30 f i cinder:ImageIo.obj
 0001:00032ee0       ??$rowFuncSourceRgb@GM$0A@$00@ImageSource@cinder@@IAEXV?$shared_ptr@VImageTarget@cinder@@@tr1@std@@HPBX@Z 00433ee0 f i cinder:ImageIo.obj
 0001:00033240       ??$rowFuncSourceRgb@GM$0A@$0A@@ImageSource@cinder@@IAEXV?$shared_ptr@VImageTarget@cinder@@@tr1@std@@HPBX@Z 00434240 f i cinder:ImageIo.obj
 0001:00033500       ??$rowFuncSourceGray@GM$0A@$00@ImageSource@cinder@@IAEXV?$shared_ptr@VImageTarget@cinder@@@tr1@std@@HPBX@Z 00434500 f i cinder:ImageIo.obj
 0001:00033780       ??$rowFuncSourceGray@GM$0A@$0A@@ImageSource@cinder@@IAEXV?$shared_ptr@VImageTarget@cinder@@@tr1@std@@HPBX@Z 00434780 f i cinder:ImageIo.obj
 0001:00033970       ??$rowFuncSourceRgb@GM$00$00@ImageSource@cinder@@IAEXV?$shared_ptr@VImageTarget@cinder@@@tr1@std@@HPBX@Z 00434970 f i cinder:ImageIo.obj
 0001:00033c80       ??$rowFuncSourceRgb@GM$00$0A@@ImageSource@cinder@@IAEXV?$shared_ptr@VImageTarget@cinder@@@tr1@std@@HPBX@Z 00434c80 f i cinder:ImageIo.obj
 0001:00033f00       ??$rowFuncSourceGray@GM$00$00@ImageSource@cinder@@IAEXV?$shared_ptr@VImageTarget@cinder@@@tr1@std@@HPBX@Z 00434f00 f i cinder:ImageIo.obj
 0001:00034110       ??$rowFuncSourceGray@GM$00$0A@@ImageSource@cinder@@IAEXV?$shared_ptr@VImageTarget@cinder@@@tr1@std@@HPBX@Z 00435110 f i cinder:ImageIo.obj
 0001:00034280       ??$rowFuncSourceRgb@ME$0A@$00@ImageSource@cinder@@IAEXV?$shared_ptr@VImageTarget@cinder@@@tr1@std@@HPBX@Z 00435280 f i cinder:ImageIo.obj
 0001:000343f0       ??$rowFuncSourceRgb@ME$0A@$0A@@ImageSource@cinder@@IAEXV?$shared_ptr@VImageTarget@cinder@@@tr1@std@@HPBX@Z 004353f0 f i cinder:ImageIo.obj
 0001:00034530       ??$rowFuncSourceGray@ME$0A@$00@ImageSource@cinder@@IAEXV?$shared_ptr@VImageTarget@cinder@@@tr1@std@@HPBX@Z 00435530 f i cinder:ImageIo.obj
 0001:00034640       ??$rowFuncSourceGray@ME$0A@$0A@@ImageSource@cinder@@IAEXV?$shared_ptr@VImageTarget@cinder@@@tr1@std@@HPBX@Z 00435640 f i cinder:ImageIo.obj
 0001:00034730       ??$rowFuncSourceRgb@ME$00$00@ImageSource@cinder@@IAEXV?$shared_ptr@VImageTarget@cinder@@@tr1@std@@HPBX@Z 00435730 f i cinder:ImageIo.obj
 0001:00034880       ??$rowFuncSourceRgb@ME$00$0A@@ImageSource@cinder@@IAEXV?$shared_ptr@VImageTarget@cinder@@@tr1@std@@HPBX@Z 00435880 f i cinder:ImageIo.obj
 0001:00034990       ??$rowFuncSourceGray@ME$00$00@ImageSource@cinder@@IAEXV?$shared_ptr@VImageTarget@cinder@@@tr1@std@@HPBX@Z 00435990 f i cinder:ImageIo.obj
 0001:00034a90       ??$rowFuncSourceGray@ME$00$0A@@ImageSource@cinder@@IAEXV?$shared_ptr@VImageTarget@cinder@@@tr1@std@@HPBX@Z 00435a90 f i cinder:ImageIo.obj
 0001:00034b70       ??$rowFuncSourceRgb@MG$0A@$00@ImageSource@cinder@@IAEXV?$shared_ptr@VImageTarget@cinder@@@tr1@std@@HPBX@Z 00435b70 f i cinder:ImageIo.obj
 0001:00034ce0       ??$rowFuncSourceRgb@MG$0A@$0A@@ImageSource@cinder@@IAEXV?$shared_ptr@VImageTarget@cinder@@@tr1@std@@HPBX@Z 00435ce0 f i cinder:ImageIo.obj
 0001:00034e20       ??$rowFuncSourceGray@MG$0A@$00@ImageSource@cinder@@IAEXV?$shared_ptr@VImageTarget@cinder@@@tr1@std@@HPBX@Z 00435e20 f i cinder:ImageIo.obj
 0001:00034f40       ??$rowFuncSourceGray@MG$0A@$0A@@ImageSource@cinder@@IAEXV?$shared_ptr@VImageTarget@cinder@@@tr1@std@@HPBX@Z 00435f40 f i cinder:ImageIo.obj
 0001:00035030       ??$rowFuncSourceRgb@MG$00$00@ImageSource@cinder@@IAEXV?$shared_ptr@VImageTarget@cinder@@@tr1@std@@HPBX@Z 00436030 f i cinder:ImageIo.obj
 0001:00035180       ??$rowFuncSourceRgb@MG$00$0A@@ImageSource@cinder@@IAEXV?$shared_ptr@VImageTarget@cinder@@@tr1@std@@HPBX@Z 00436180 f i cinder:ImageIo.obj
 0001:000352a0       ??$rowFuncSourceGray@MG$00$00@ImageSource@cinder@@IAEXV?$shared_ptr@VImageTarget@cinder@@@tr1@std@@HPBX@Z 004362a0 f i cinder:ImageIo.obj
 0001:000353b0       ??$rowFuncSourceGray@MG$00$0A@@ImageSource@cinder@@IAEXV?$shared_ptr@VImageTarget@cinder@@@tr1@std@@HPBX@Z 004363b0 f i cinder:ImageIo.obj
 0001:00035490       ??$rowFuncSourceRgb@MM$0A@$00@ImageSource@cinder@@IAEXV?$shared_ptr@VImageTarget@cinder@@@tr1@std@@HPBX@Z 00436490 f i cinder:ImageIo.obj
 0001:000356f0       ??$rowFuncSourceRgb@MM$0A@$0A@@ImageSource@cinder@@IAEXV?$shared_ptr@VImageTarget@cinder@@@tr1@std@@HPBX@Z 004366f0 f i cinder:ImageIo.obj
 0001:000358f0       ??$rowFuncSourceGray@MM$0A@$00@ImageSource@cinder@@IAEXV?$shared_ptr@VImageTarget@cinder@@@tr1@std@@HPBX@Z 004368f0 f i cinder:ImageIo.obj
 0001:00035b00       ??$rowFuncSourceGray@MM$0A@$0A@@ImageSource@cinder@@IAEXV?$shared_ptr@VImageTarget@cinder@@@tr1@std@@HPBX@Z 00436b00 f i cinder:ImageIo.obj
 0001:00035cb0       ??$rowFuncSourceRgb@MM$00$00@ImageSource@cinder@@IAEXV?$shared_ptr@VImageTarget@cinder@@@tr1@std@@HPBX@Z 00436cb0 f i cinder:ImageIo.obj
 0001:00035f00       ??$rowFuncSourceRgb@MM$00$0A@@ImageSource@cinder@@IAEXV?$shared_ptr@VImageTarget@cinder@@@tr1@std@@HPBX@Z 00436f00 f i cinder:ImageIo.obj
 0001:00036100       ??$rowFuncSourceGray@MM$00$00@ImageSource@cinder@@IAEXV?$shared_ptr@VImageTarget@cinder@@@tr1@std@@HPBX@Z 00437100 f i cinder:ImageIo.obj
 0001:000362c0       ??$rowFuncSourceGray@MM$00$0A@@ImageSource@cinder@@IAEXV?$shared_ptr@VImageTarget@cinder@@@tr1@std@@HPBX@Z 004372c0 f i cinder:ImageIo.obj
 0001:00036420       ?setupRowFuncRgbSource@ImageSource@cinder@@IAEXV?$shared_ptr@VImageTarget@cinder@@@tr1@std@@@Z 00437420 f   cinder:ImageIo.obj
 0001:00036530       ?setupRowFuncGraySource@ImageSource@cinder@@IAEXV?$shared_ptr@VImageTarget@cinder@@@tr1@std@@@Z 00437530 f   cinder:ImageIo.obj
 0001:00036650       ?_Lbound@?$_Tree@V?$_Tmap_traits@V?$basic_string@DU?$char_traits@D@std@@V?$allocator@D@2@@std@@V?$multimap@HU?$pair@P6A?AV?$shared_ptr@VImageTarget@cinder@@@tr1@std@@V?$shared_ptr@VDataTarget@cinder@@@23@V?$shared_ptr@VImageSource@cinder@@@23@VOptions@ImageTarget@cinder@@ABV?$basic_string@DU?$char_traits@D@std@@V?$allocator@D@2@@3@@ZV93@@std@@U?$less@H@2@V?$allocator@U?$pair@$$CBHU?$pair@P6A?AV?$shared_ptr@VImageTarget@cinder@@@tr1@std@@V?$shared_ptr@VDataTarget@cinder@@@23@V?$shared_ptr@VImageSource@cinder@@@23@VOptions@ImageTarget@cinder@@ABV?$basic_string@DU?$char_traits@D@std@@V?$allocator@D@2@@3@@ZV93@@std@@@std@@@2@@2@U?$less@V?$basic_string@DU?$char_traits@D@std@@V?$allocator@D@2@@std@@@2@V?$allocator@U?$pair@$$CBV?$basic_string@DU?$char_traits@D@std@@V?$allocator@D@2@@std@@V?$multimap@HU?$pair@P6A?AV?$shared_ptr@VImageTarget@cinder@@@tr1@std@@V?$shared_ptr@VDataTarget@cinder@@@23@V?$shared_ptr@VImageSource@cinder@@@23@VOptions@ImageTarget@cinder@@ABV?$basic_string@DU?$char_traits@D@std@@V?$allocator@D@2@@3@@ZV93@@std@@U?$less@H@2@V?$allocator@U?$pair@$$CBHU?$pair@P6A?AV?$shared_ptr@VImageTarget@cinder@@@tr1@std@@V?$shared_ptr@VDataTarget@cinder@@@23@V?$shared_ptr@VImageSource@cinder@@@23@VOptions@ImageTarget@cinder@@ABV?$basic_string@DU?$char_traits@D@std@@V?$allocator@D@2@@3@@ZV93@@std@@@std@@@2@@2@@std@@@2@$0A@@std@@@std@@IAEPAU_Node@?$_Tree_nod@V?$_Tmap_traits@V?$basic_string@DU?$char_traits@D@std@@V?$allocator@D@2@@std@@V?$multimap@HU?$pair@P6A?AV?$shared_ptr@VImageTarget@cinder@@@tr1@std@@V?$shared_ptr@VDataTarget@cinder@@@23@V?$shared_ptr@VImageSource@cinder@@@23@VOptions@ImageTarget@cinder@@ABV?$basic_string@DU?$char_traits@D@std@@V?$allocator@D@2@@3@@ZV93@@std@@U?$less@H@2@V?$allocator@U?$pair@$$CBHU?$pair@P6A?AV?$shared_ptr@VImageTarget@cinder@@@tr1@std@@V?$shared_ptr@VDataTarget@cinder@@@23@V?$shared_ptr@VImageSource@cinder@@@23@VOptions@ImageTarget@cinder@@ABV?$basic_string@DU?$char_traits@D@std@@V?$allocator@D@2@@3@@ZV93@@std@@@std@@@2@@2@U?$less@V?$basic_string@DU?$char_traits@D@std@@V?$allocator@D@2@@std@@@2@V?$allocator@U?$pair@$$CBV?$basic_string@DU?$char_traits@D@std@@V?$allocator@D@2@@std@@V?$multimap@HU?$pair@P6A?AV?$shared_ptr@VImageTarget@cinder@@@tr1@std@@V?$shared_ptr@VDataTarget@cinder@@@23@V?$shared_ptr@VImageSource@cinder@@@23@VOptions@ImageTarget@cinder@@ABV?$basic_string@DU?$char_traits@D@std@@V?$allocator@D@2@@3@@ZV93@@std@@U?$less@H@2@V?$allocator@U?$pair@$$CBHU?$pair@P6A?AV?$shared_ptr@VImageTarget@cinder@@@tr1@std@@V?$shared_ptr@VDataTarget@cinder@@@23@V?$shared_ptr@VImageSource@cinder@@@23@VOptions@ImageTarget@cinder@@ABV?$basic_string@DU?$char_traits@D@std@@V?$allocator@D@2@@3@@ZV93@@std@@@std@@@2@@2@@std@@@2@$0A@@std@@@2@ABV?$basic_string@DU?$char_traits@D@std@@V?$allocator@D@2@@2@@Z 00437650 f i cinder:ImageIo.obj
 0001:000366e0       ?erase@?$_Tree@V?$_Tmap_traits@HP6A?AV?$shared_ptr@VImageSource@cinder@@@tr1@std@@V?$shared_ptr@VDataSource@cinder@@@23@VOptions@ImageSource@cinder@@@ZU?$less@H@3@V?$allocator@U?$pair@$$CBHP6A?AV?$shared_ptr@VImageSource@cinder@@@tr1@std@@V?$shared_ptr@VDataSource@cinder@@@23@VOptions@ImageSource@cinder@@@Z@std@@@3@$00@std@@@std@@QAE?AV?$_Tree_iterator@V?$_Tree_val@V?$_Tmap_traits@HP6A?AV?$shared_ptr@VImageSource@cinder@@@tr1@std@@V?$shared_ptr@VDataSource@cinder@@@23@VOptions@ImageSource@cinder@@@ZU?$less@H@3@V?$allocator@U?$pair@$$CBHP6A?AV?$shared_ptr@VImageSource@cinder@@@tr1@std@@V?$shared_ptr@VDataSource@cinder@@@23@VOptions@ImageSource@cinder@@@Z@std@@@3@$00@std@@@std@@@2@V?$_Tree_const_iterator@V?$_Tree_val@V?$_Tmap_traits@HP6A?AV?$shared_ptr@VImageSource@cinder@@@tr1@std@@V?$shared_ptr@VDataSource@cinder@@@23@VOptions@ImageSource@cinder@@@ZU?$less@H@3@V?$allocator@U?$pair@$$CBHP6A?AV?$shared_ptr@VImageSource@cinder@@@tr1@std@@V?$shared_ptr@VDataSource@cinder@@@23@VOptions@ImageSource@cinder@@@Z@std@@@3@$00@std@@@std@@@2@@Z 004376e0 f i cinder:ImageIo.obj
 0001:000366e0       ?erase@?$_Tree@V?$_Tmap_traits@HP6A?AV?$shared_ptr@VImageSource@cinder@@@tr1@std@@V?$shared_ptr@VDataSource@cinder@@@23@VOptions@ImageSource@cinder@@@ZU?$less@H@3@V?$allocator@U?$pair@$$CBHP6A?AV?$shared_ptr@VImageSource@cinder@@@tr1@std@@V?$shared_ptr@VDataSource@cinder@@@23@VOptions@ImageSource@cinder@@@Z@std@@@3@$0A@@std@@@std@@QAE?AV?$_Tree_iterator@V?$_Tree_val@V?$_Tmap_traits@HP6A?AV?$shared_ptr@VImageSource@cinder@@@tr1@std@@V?$shared_ptr@VDataSource@cinder@@@23@VOptions@ImageSource@cinder@@@ZU?$less@H@3@V?$allocator@U?$pair@$$CBHP6A?AV?$shared_ptr@VImageSource@cinder@@@tr1@std@@V?$shared_ptr@VDataSource@cinder@@@23@VOptions@ImageSource@cinder@@@Z@std@@@3@$0A@@std@@@std@@@2@V?$_Tree_const_iterator@V?$_Tree_val@V?$_Tmap_traits@HP6A?AV?$shared_ptr@VImageSource@cinder@@@tr1@std@@V?$shared_ptr@VDataSource@cinder@@@23@VOptions@ImageSource@cinder@@@ZU?$less@H@3@V?$allocator@U?$pair@$$CBHP6A?AV?$shared_ptr@VImageSource@cinder@@@tr1@std@@V?$shared_ptr@VDataSource@cinder@@@23@VOptions@ImageSource@cinder@@@Z@std@@@3@$0A@@std@@@std@@@2@@Z 004376e0 f i cinder:ImageIo.obj
 0001:00036930       ?_Erase@?$_Tree@V?$_Tmap_traits@HP6A?AV?$shared_ptr@VImageSource@cinder@@@tr1@std@@V?$shared_ptr@VDataSource@cinder@@@23@VOptions@ImageSource@cinder@@@ZU?$less@H@3@V?$allocator@U?$pair@$$CBHP6A?AV?$shared_ptr@VImageSource@cinder@@@tr1@std@@V?$shared_ptr@VDataSource@cinder@@@23@VOptions@ImageSource@cinder@@@Z@std@@@3@$0A@@std@@@std@@IAEXPAU_Node@?$_Tree_nod@V?$_Tmap_traits@HP6A?AV?$shared_ptr@VImageSource@cinder@@@tr1@std@@V?$shared_ptr@VDataSource@cinder@@@23@VOptions@ImageSource@cinder@@@ZU?$less@H@3@V?$allocator@U?$pair@$$CBHP6A?AV?$shared_ptr@VImageSource@cinder@@@tr1@std@@V?$shared_ptr@VDataSource@cinder@@@23@VOptions@ImageSource@cinder@@@Z@std@@@3@$0A@@std@@@2@@Z 00437930 f i cinder:ImageIo.obj
 0001:00036930       ?_Erase@?$_Tree@V?$_Tmap_traits@HP6A?AV?$shared_ptr@VImageSource@cinder@@@tr1@std@@V?$shared_ptr@VDataSource@cinder@@@23@VOptions@ImageSource@cinder@@@ZU?$less@H@3@V?$allocator@U?$pair@$$CBHP6A?AV?$shared_ptr@VImageSource@cinder@@@tr1@std@@V?$shared_ptr@VDataSource@cinder@@@23@VOptions@ImageSource@cinder@@@Z@std@@@3@$00@std@@@std@@IAEXPAU_Node@?$_Tree_nod@V?$_Tmap_traits@HP6A?AV?$shared_ptr@VImageSource@cinder@@@tr1@std@@V?$shared_ptr@VDataSource@cinder@@@23@VOptions@ImageSource@cinder@@@ZU?$less@H@3@V?$allocator@U?$pair@$$CBHP6A?AV?$shared_ptr@VImageSource@cinder@@@tr1@std@@V?$shared_ptr@VDataSource@cinder@@@23@VOptions@ImageSource@cinder@@@Z@std@@@3@$00@std@@@2@@Z 00437930 f i cinder:ImageIo.obj
 0001:00036970       ?_Linsert@?$_Tree@V?$_Tmap_traits@HP6A?AV?$shared_ptr@VImageSource@cinder@@@tr1@std@@V?$shared_ptr@VDataSource@cinder@@@23@VOptions@ImageSource@cinder@@@ZU?$less@H@3@V?$allocator@U?$pair@$$CBHP6A?AV?$shared_ptr@VImageSource@cinder@@@tr1@std@@V?$shared_ptr@VDataSource@cinder@@@23@VOptions@ImageSource@cinder@@@Z@std@@@3@$0A@@std@@@std@@QAE?AU?$pair@V?$_Tree_iterator@V?$_Tree_val@V?$_Tmap_traits@HP6A?AV?$shared_ptr@VImageSource@cinder@@@tr1@std@@V?$shared_ptr@VDataSource@cinder@@@23@VOptions@ImageSource@cinder@@@ZU?$less@H@3@V?$allocator@U?$pair@$$CBHP6A?AV?$shared_ptr@VImageSource@cinder@@@tr1@std@@V?$shared_ptr@VDataSource@cinder@@@23@VOptions@ImageSource@cinder@@@Z@std@@@3@$0A@@std@@@std@@@std@@_N@2@PAU_Node@?$_Tree_nod@V?$_Tmap_traits@HP6A?AV?$shared_ptr@VImageSource@cinder@@@tr1@std@@V?$shared_ptr@VDataSource@cinder@@@23@VOptions@ImageSource@cinder@@@ZU?$less@H@3@V?$allocator@U?$pair@$$CBHP6A?AV?$shared_ptr@VImageSource@cinder@@@tr1@std@@V?$shared_ptr@VDataSource@cinder@@@23@VOptions@ImageSource@cinder@@@Z@std@@@3@$0A@@std@@@2@_N@Z 00437970 f i cinder:ImageIo.obj
 0001:00036a50       ??1?$pair@P6A?AV?$shared_ptr@VImageTarget@cinder@@@tr1@std@@V?$shared_ptr@VDataTarget@cinder@@@23@V?$shared_ptr@VImageSource@cinder@@@23@VOptions@ImageTarget@cinder@@ABV?$basic_string@DU?$char_traits@D@std@@V?$allocator@D@2@@3@@ZV93@@std@@QAE@XZ 00437a50 f i cinder:ImageIo.obj
 0001:00036a80       ?clear@?$_Tree@V?$_Tmap_traits@HP6A?AV?$shared_ptr@VImageSource@cinder@@@tr1@std@@V?$shared_ptr@VDataSource@cinder@@@23@VOptions@ImageSource@cinder@@@ZU?$less@H@3@V?$allocator@U?$pair@$$CBHP6A?AV?$shared_ptr@VImageSource@cinder@@@tr1@std@@V?$shared_ptr@VDataSource@cinder@@@23@VOptions@ImageSource@cinder@@@Z@std@@@3@$0A@@std@@@std@@QAEXXZ 00437a80 f i cinder:ImageIo.obj
 0001:00036a80       ?clear@?$_Tree@V?$_Tmap_traits@HP6A?AV?$shared_ptr@VImageSource@cinder@@@tr1@std@@V?$shared_ptr@VDataSource@cinder@@@23@VOptions@ImageSource@cinder@@@ZU?$less@H@3@V?$allocator@U?$pair@$$CBHP6A?AV?$shared_ptr@VImageSource@cinder@@@tr1@std@@V?$shared_ptr@VDataSource@cinder@@@23@VOptions@ImageSource@cinder@@@Z@std@@@3@$00@std@@@std@@QAEXXZ 00437a80 f i cinder:ImageIo.obj
 0001:00036ad0       ??$_Buynode@U?$pair@HP6A?AV?$shared_ptr@VImageSource@cinder@@@tr1@std@@V?$shared_ptr@VDataSource@cinder@@@23@VOptions@ImageSource@cinder@@@Z@std@@@?$_Tree_val@V?$_Tmap_traits@HP6A?AV?$shared_ptr@VImageSource@cinder@@@tr1@std@@V?$shared_ptr@VDataSource@cinder@@@23@VOptions@ImageSource@cinder@@@ZU?$less@H@3@V?$allocator@U?$pair@$$CBHP6A?AV?$shared_ptr@VImageSource@cinder@@@tr1@std@@V?$shared_ptr@VDataSource@cinder@@@23@VOptions@ImageSource@cinder@@@Z@std@@@3@$0A@@std@@@std@@QAEPAU_Node@?$_Tree_nod@V?$_Tmap_traits@HP6A?AV?$shared_ptr@VImageSource@cinder@@@tr1@std@@V?$shared_ptr@VDataSource@cinder@@@23@VOptions@ImageSource@cinder@@@ZU?$less@H@3@V?$allocator@U?$pair@$$CBHP6A?AV?$shared_ptr@VImageSource@cinder@@@tr1@std@@V?$shared_ptr@VDataSource@cinder@@@23@VOptions@ImageSource@cinder@@@Z@std@@@3@$0A@@std@@@1@$$QAU?$pair@HP6A?AV?$shared_ptr@VImageSource@cinder@@@tr1@std@@V?$shared_ptr@VDataSource@cinder@@@23@VOptions@ImageSource@cinder@@@Z@1@@Z 00437ad0 f i cinder:ImageIo.obj
 0001:00036b40       ??$setupRowFuncForTypesAndTargetColorModel@EE$0A@@ImageSource@cinder@@IAEP801@AEXV?$shared_ptr@VImageTarget@cinder@@@tr1@std@@HPBX@Z0@Z 00437b40 f i cinder:ImageIo.obj
 0001:00036d20       ??$setupRowFuncForTypesAndTargetColorModel@EE$00@ImageSource@cinder@@IAEP801@AEXV?$shared_ptr@VImageTarget@cinder@@@tr1@std@@HPBX@Z0@Z 00437d20 f i cinder:ImageIo.obj
 0001:00036f00       ??$setupRowFuncForTypesAndTargetColorModel@EG$0A@@ImageSource@cinder@@IAEP801@AEXV?$shared_ptr@VImageTarget@cinder@@@tr1@std@@HPBX@Z0@Z 00437f00 f i cinder:ImageIo.obj
 0001:000370e0       ??$setupRowFuncForTypesAndTargetColorModel@EG$00@ImageSource@cinder@@IAEP801@AEXV?$shared_ptr@VImageTarget@cinder@@@tr1@std@@HPBX@Z0@Z 004380e0 f i cinder:ImageIo.obj
 0001:000372c0       ??$setupRowFuncForTypesAndTargetColorModel@EM$0A@@ImageSource@cinder@@IAEP801@AEXV?$shared_ptr@VImageTarget@cinder@@@tr1@std@@HPBX@Z0@Z 004382c0 f i cinder:ImageIo.obj
 0001:000374a0       ??$setupRowFuncForTypesAndTargetColorModel@EM$00@ImageSource@cinder@@IAEP801@AEXV?$shared_ptr@VImageTarget@cinder@@@tr1@std@@HPBX@Z0@Z 004384a0 f i cinder:ImageIo.obj
 0001:00037680       ??$setupRowFuncForTypesAndTargetColorModel@GE$0A@@ImageSource@cinder@@IAEP801@AEXV?$shared_ptr@VImageTarget@cinder@@@tr1@std@@HPBX@Z0@Z 00438680 f i cinder:ImageIo.obj
 0001:00037860       ??$setupRowFuncForTypesAndTargetColorModel@GE$00@ImageSource@cinder@@IAEP801@AEXV?$shared_ptr@VImageTarget@cinder@@@tr1@std@@HPBX@Z0@Z 00438860 f i cinder:ImageIo.obj
 0001:00037a40       ??$setupRowFuncForTypesAndTargetColorModel@GG$0A@@ImageSource@cinder@@IAEP801@AEXV?$shared_ptr@VImageTarget@cinder@@@tr1@std@@HPBX@Z0@Z 00438a40 f i cinder:ImageIo.obj
 0001:00037c20       ??$setupRowFuncForTypesAndTargetColorModel@GG$00@ImageSource@cinder@@IAEP801@AEXV?$shared_ptr@VImageTarget@cinder@@@tr1@std@@HPBX@Z0@Z 00438c20 f i cinder:ImageIo.obj
 0001:00037e00       ??$setupRowFuncForTypesAndTargetColorModel@GM$0A@@ImageSource@cinder@@IAEP801@AEXV?$shared_ptr@VImageTarget@cinder@@@tr1@std@@HPBX@Z0@Z 00438e00 f i cinder:ImageIo.obj
 0001:00037fe0       ??$setupRowFuncForTypesAndTargetColorModel@GM$00@ImageSource@cinder@@IAEP801@AEXV?$shared_ptr@VImageTarget@cinder@@@tr1@std@@HPBX@Z0@Z 00438fe0 f i cinder:ImageIo.obj
 0001:000381c0       ??$setupRowFuncForTypesAndTargetColorModel@ME$0A@@ImageSource@cinder@@IAEP801@AEXV?$shared_ptr@VImageTarget@cinder@@@tr1@std@@HPBX@Z0@Z 004391c0 f i cinder:ImageIo.obj
 0001:000383a0       ??$setupRowFuncForTypesAndTargetColorModel@ME$00@ImageSource@cinder@@IAEP801@AEXV?$shared_ptr@VImageTarget@cinder@@@tr1@std@@HPBX@Z0@Z 004393a0 f i cinder:ImageIo.obj
 0001:00038580       ??$setupRowFuncForTypesAndTargetColorModel@MG$0A@@ImageSource@cinder@@IAEP801@AEXV?$shared_ptr@VImageTarget@cinder@@@tr1@std@@HPBX@Z0@Z 00439580 f i cinder:ImageIo.obj
 0001:00038760       ??$setupRowFuncForTypesAndTargetColorModel@MG$00@ImageSource@cinder@@IAEP801@AEXV?$shared_ptr@VImageTarget@cinder@@@tr1@std@@HPBX@Z0@Z 00439760 f i cinder:ImageIo.obj
 0001:00038940       ??$setupRowFuncForTypesAndTargetColorModel@MM$0A@@ImageSource@cinder@@IAEP801@AEXV?$shared_ptr@VImageTarget@cinder@@@tr1@std@@HPBX@Z0@Z 00439940 f i cinder:ImageIo.obj
 0001:00038b20       ??$setupRowFuncForTypesAndTargetColorModel@MM$00@ImageSource@cinder@@IAEP801@AEXV?$shared_ptr@VImageTarget@cinder@@@tr1@std@@HPBX@Z0@Z 00439b20 f i cinder:ImageIo.obj
 0001:00038d00       ?writeImage@cinder@@YAXV?$shared_ptr@VImageTarget@cinder@@@tr1@std@@ABV?$shared_ptr@VImageSource@cinder@@@34@@Z 00439d00 f   cinder:ImageIo.obj
 0001:00038db0       ??1?$pair@HU?$pair@P6A?AV?$shared_ptr@VImageTarget@cinder@@@tr1@std@@V?$shared_ptr@VDataTarget@cinder@@@23@V?$shared_ptr@VImageSource@cinder@@@23@VOptions@ImageTarget@cinder@@ABV?$basic_string@DU?$char_traits@D@std@@V?$allocator@D@2@@3@@ZV93@@std@@@std@@QAE@XZ 00439db0 f i cinder:ImageIo.obj
 0001:00038de0       ?erase@?$_Tree@V?$_Tmap_traits@HP6A?AV?$shared_ptr@VImageSource@cinder@@@tr1@std@@V?$shared_ptr@VDataSource@cinder@@@23@VOptions@ImageSource@cinder@@@ZU?$less@H@3@V?$allocator@U?$pair@$$CBHP6A?AV?$shared_ptr@VImageSource@cinder@@@tr1@std@@V?$shared_ptr@VDataSource@cinder@@@23@VOptions@ImageSource@cinder@@@Z@std@@@3@$0A@@std@@@std@@QAE?AV?$_Tree_iterator@V?$_Tree_val@V?$_Tmap_traits@HP6A?AV?$shared_ptr@VImageSource@cinder@@@tr1@std@@V?$shared_ptr@VDataSource@cinder@@@23@VOptions@ImageSource@cinder@@@ZU?$less@H@3@V?$allocator@U?$pair@$$CBHP6A?AV?$shared_ptr@VImageSource@cinder@@@tr1@std@@V?$shared_ptr@VDataSource@cinder@@@23@VOptions@ImageSource@cinder@@@Z@std@@@3@$0A@@std@@@std@@@2@V?$_Tree_const_iterator@V?$_Tree_val@V?$_Tmap_traits@HP6A?AV?$shared_ptr@VImageSource@cinder@@@tr1@std@@V?$shared_ptr@VDataSource@cinder@@@23@VOptions@ImageSource@cinder@@@ZU?$less@H@3@V?$allocator@U?$pair@$$CBHP6A?AV?$shared_ptr@VImageSource@cinder@@@tr1@std@@V?$shared_ptr@VDataSource@cinder@@@23@VOptions@ImageSource@cinder@@@Z@std@@@3@$0A@@std@@@std@@@2@0@Z 00439de0 f i cinder:ImageIo.obj
 0001:00038de0       ?erase@?$_Tree@V?$_Tmap_traits@HP6A?AV?$shared_ptr@VImageSource@cinder@@@tr1@std@@V?$shared_ptr@VDataSource@cinder@@@23@VOptions@ImageSource@cinder@@@ZU?$less@H@3@V?$allocator@U?$pair@$$CBHP6A?AV?$shared_ptr@VImageSource@cinder@@@tr1@std@@V?$shared_ptr@VDataSource@cinder@@@23@VOptions@ImageSource@cinder@@@Z@std@@@3@$00@std@@@std@@QAE?AV?$_Tree_iterator@V?$_Tree_val@V?$_Tmap_traits@HP6A?AV?$shared_ptr@VImageSource@cinder@@@tr1@std@@V?$shared_ptr@VDataSource@cinder@@@23@VOptions@ImageSource@cinder@@@ZU?$less@H@3@V?$allocator@U?$pair@$$CBHP6A?AV?$shared_ptr@VImageSource@cinder@@@tr1@std@@V?$shared_ptr@VDataSource@cinder@@@23@VOptions@ImageSource@cinder@@@Z@std@@@3@$00@std@@@std@@@2@V?$_Tree_const_iterator@V?$_Tree_val@V?$_Tmap_traits@HP6A?AV?$shared_ptr@VImageSource@cinder@@@tr1@std@@V?$shared_ptr@VDataSource@cinder@@@23@VOptions@ImageSource@cinder@@@ZU?$less@H@3@V?$allocator@U?$pair@$$CBHP6A?AV?$shared_ptr@VImageSource@cinder@@@tr1@std@@V?$shared_ptr@VDataSource@cinder@@@23@VOptions@ImageSource@cinder@@@Z@std@@@3@$00@std@@@std@@@2@0@Z 00439de0 f i cinder:ImageIo.obj
 0001:00038e80       ??$setupRowFuncForTypes@EE@ImageSource@cinder@@IAEP801@AEXV?$shared_ptr@VImageTarget@cinder@@@tr1@std@@HPBX@Z0@Z 00439e80 f i cinder:ImageIo.obj
 0001:00038f80       ??$setupRowFuncForTypes@EG@ImageSource@cinder@@IAEP801@AEXV?$shared_ptr@VImageTarget@cinder@@@tr1@std@@HPBX@Z0@Z 00439f80 f i cinder:ImageIo.obj
 0001:00039080       ??$setupRowFuncForTypes@EM@ImageSource@cinder@@IAEP801@AEXV?$shared_ptr@VImageTarget@cinder@@@tr1@std@@HPBX@Z0@Z 0043a080 f i cinder:ImageIo.obj
 0001:00039180       ??$setupRowFuncForTypes@GE@ImageSource@cinder@@IAEP801@AEXV?$shared_ptr@VImageTarget@cinder@@@tr1@std@@HPBX@Z0@Z 0043a180 f i cinder:ImageIo.obj
 0001:00039280       ??$setupRowFuncForTypes@GG@ImageSource@cinder@@IAEP801@AEXV?$shared_ptr@VImageTarget@cinder@@@tr1@std@@HPBX@Z0@Z 0043a280 f i cinder:ImageIo.obj
 0001:00039380       ??$setupRowFuncForTypes@GM@ImageSource@cinder@@IAEP801@AEXV?$shared_ptr@VImageTarget@cinder@@@tr1@std@@HPBX@Z0@Z 0043a380 f i cinder:ImageIo.obj
 0001:00039480       ??$setupRowFuncForTypes@ME@ImageSource@cinder@@IAEP801@AEXV?$shared_ptr@VImageTarget@cinder@@@tr1@std@@HPBX@Z0@Z 0043a480 f i cinder:ImageIo.obj
 0001:00039580       ??$setupRowFuncForTypes@MG@ImageSource@cinder@@IAEP801@AEXV?$shared_ptr@VImageTarget@cinder@@@tr1@std@@HPBX@Z0@Z 0043a580 f i cinder:ImageIo.obj
 0001:00039680       ??$setupRowFuncForTypes@MM@ImageSource@cinder@@IAEP801@AEXV?$shared_ptr@VImageTarget@cinder@@@tr1@std@@HPBX@Z0@Z 0043a680 f i cinder:ImageIo.obj
 0001:00039780       ?createTarget@Inst@ImageIoRegistrar@cinder@@QAE?AV?$shared_ptr@VImageTarget@cinder@@@tr1@std@@V?$shared_ptr@VDataTarget@cinder@@@56@V?$shared_ptr@VImageSource@cinder@@@56@VOptions@ImageTarget@3@V?$basic_string@DU?$char_traits@D@std@@V?$allocator@D@2@@6@@Z 0043a780 f   cinder:ImageIo.obj
 0001:00039ad0       ??0ImageIoExceptionFailedLoad@cinder@@QAE@ABV01@@Z 0043aad0 f i cinder:ImageIo.obj
 0001:00039af0       ??$setupRowFuncForSourceType@E@ImageSource@cinder@@IAEP801@AEXV?$shared_ptr@VImageTarget@cinder@@@tr1@std@@HPBX@Z0@Z 0043aaf0 f i cinder:ImageIo.obj
 0001:00039c00       ??0ImageIoExceptionIllegalDataType@cinder@@QAE@ABV01@@Z 0043ac00 f i cinder:ImageIo.obj
 0001:00039c20       ??$setupRowFuncForSourceType@G@ImageSource@cinder@@IAEP801@AEXV?$shared_ptr@VImageTarget@cinder@@@tr1@std@@HPBX@Z0@Z 0043ac20 f i cinder:ImageIo.obj
 0001:00039d30       ??$setupRowFuncForSourceType@M@ImageSource@cinder@@IAEP801@AEXV?$shared_ptr@VImageTarget@cinder@@@tr1@std@@HPBX@Z0@Z 0043ad30 f i cinder:ImageIo.obj
 0001:00039e40       ?setupRowFunc@ImageSource@cinder@@IAEP812@AEXV?$shared_ptr@VImageTarget@cinder@@@tr1@std@@HPBX@Z0@Z 0043ae40 f   cinder:ImageIo.obj
 0001:00039f50       ??1?$map@HP6A?AV?$shared_ptr@VImageSource@cinder@@@tr1@std@@V?$shared_ptr@VDataSource@cinder@@@23@VOptions@ImageSource@cinder@@@ZU?$less@H@3@V?$allocator@U?$pair@$$CBHP6A?AV?$shared_ptr@VImageSource@cinder@@@tr1@std@@V?$shared_ptr@VDataSource@cinder@@@23@VOptions@ImageSource@cinder@@@Z@std@@@3@@std@@QAE@XZ 0043af50 f i cinder:ImageIo.obj
 0001:00039fb0       ??$make_pair@AAP6A?AV?$shared_ptr@VImageTarget@cinder@@@tr1@std@@V?$shared_ptr@VDataTarget@cinder@@@23@V?$shared_ptr@VImageSource@cinder@@@23@VOptions@ImageTarget@cinder@@ABV?$basic_string@DU?$char_traits@D@std@@V?$allocator@D@2@@3@@ZV93@@std@@YA?AU?$pair@P6A?AV?$shared_ptr@VImageTarget@cinder@@@tr1@std@@V?$shared_ptr@VDataTarget@cinder@@@23@V?$shared_ptr@VImageSource@cinder@@@23@VOptions@ImageTarget@cinder@@ABV?$basic_string@DU?$char_traits@D@std@@V?$allocator@D@2@@3@@ZV93@@0@AAP6A?AV?$shared_ptr@VImageTarget@cinder@@@tr1@0@V?$shared_ptr@VDataTarget@cinder@@@30@V?$shared_ptr@VImageSource@cinder@@@30@VOptions@ImageTarget@cinder@@ABV?$basic_string@DU?$char_traits@D@std@@V?$allocator@D@2@@0@@Z3@Z 0043afb0 f i cinder:ImageIo.obj
 0001:0003a050       ?_Insert@?$_Tree@V?$_Tmap_traits@HU?$pair@P6A?AV?$shared_ptr@VImageTarget@cinder@@@tr1@std@@V?$shared_ptr@VDataTarget@cinder@@@23@V?$shared_ptr@VImageSource@cinder@@@23@VOptions@ImageTarget@cinder@@ABV?$basic_string@DU?$char_traits@D@std@@V?$allocator@D@2@@3@@ZV93@@std@@U?$less@H@2@V?$allocator@U?$pair@$$CBHU?$pair@P6A?AV?$shared_ptr@VImageTarget@cinder@@@tr1@std@@V?$shared_ptr@VDataTarget@cinder@@@23@V?$shared_ptr@VImageSource@cinder@@@23@VOptions@ImageTarget@cinder@@ABV?$basic_string@DU?$char_traits@D@std@@V?$allocator@D@2@@3@@ZV93@@std@@@std@@@2@$00@std@@@std@@IAE?AV?$_Tree_iterator@V?$_Tree_val@V?$_Tmap_traits@HU?$pair@P6A?AV?$shared_ptr@VImageTarget@cinder@@@tr1@std@@V?$shared_ptr@VDataTarget@cinder@@@23@V?$shared_ptr@VImageSource@cinder@@@23@VOptions@ImageTarget@cinder@@ABV?$basic_string@DU?$char_traits@D@std@@V?$allocator@D@2@@3@@ZV93@@std@@U?$less@H@2@V?$allocator@U?$pair@$$CBHU?$pair@P6A?AV?$shared_ptr@VImageTarget@cinder@@@tr1@std@@V?$shared_ptr@VDataTarget@cinder@@@23@V?$shared_ptr@VImageSource@cinder@@@23@VOptions@ImageTarget@cinder@@ABV?$basic_string@DU?$char_traits@D@std@@V?$allocator@D@2@@3@@ZV93@@std@@@std@@@2@$00@std@@@std@@@2@_NPAU_Node@?$_Tree_nod@V?$_Tmap_traits@HU?$pair@P6A?AV?$shared_ptr@VImageTarget@cinder@@@tr1@std@@V?$shared_ptr@VDataTarget@cinder@@@23@V?$shared_ptr@VImageSource@cinder@@@23@VOptions@ImageTarget@cinder@@ABV?$basic_string@DU?$char_traits@D@std@@V?$allocator@D@2@@3@@ZV93@@std@@U?$less@H@2@V?$allocator@U?$pair@$$CBHU?$pair@P6A?AV?$shared_ptr@VImageTarget@cinder@@@tr1@std@@V?$shared_ptr@VDataTarget@cinder@@@23@V?$shared_ptr@VImageSource@cinder@@@23@VOptions@ImageTarget@cinder@@ABV?$basic_string@DU?$char_traits@D@std@@V?$allocator@D@2@@3@@ZV93@@std@@@std@@@2@$00@std@@@2@1@Z 0043b050 f i cinder:ImageIo.obj
 0001:0003a2a0       ?erase@?$_Tree@V?$_Tmap_traits@HU?$pair@P6A?AV?$shared_ptr@VImageTarget@cinder@@@tr1@std@@V?$shared_ptr@VDataTarget@cinder@@@23@V?$shared_ptr@VImageSource@cinder@@@23@VOptions@ImageTarget@cinder@@ABV?$basic_string@DU?$char_traits@D@std@@V?$allocator@D@2@@3@@ZV93@@std@@U?$less@H@2@V?$allocator@U?$pair@$$CBHU?$pair@P6A?AV?$shared_ptr@VImageTarget@cinder@@@tr1@std@@V?$shared_ptr@VDataTarget@cinder@@@23@V?$shared_ptr@VImageSource@cinder@@@23@VOptions@ImageTarget@cinder@@ABV?$basic_string@DU?$char_traits@D@std@@V?$allocator@D@2@@3@@ZV93@@std@@@std@@@2@$00@std@@@std@@QAE?AV?$_Tree_iterator@V?$_Tree_val@V?$_Tmap_traits@HU?$pair@P6A?AV?$shared_ptr@VImageTarget@cinder@@@tr1@std@@V?$shared_ptr@VDataTarget@cinder@@@23@V?$shared_ptr@VImageSource@cinder@@@23@VOptions@ImageTarget@cinder@@ABV?$basic_string@DU?$char_traits@D@std@@V?$allocator@D@2@@3@@ZV93@@std@@U?$less@H@2@V?$allocator@U?$pair@$$CBHU?$pair@P6A?AV?$shared_ptr@VImageTarget@cinder@@@tr1@std@@V?$shared_ptr@VDataTarget@cinder@@@23@V?$shared_ptr@VImageSource@cinder@@@23@VOptions@ImageTarget@cinder@@ABV?$basic_string@DU?$char_traits@D@std@@V?$allocator@D@2@@3@@ZV93@@std@@@std@@@2@$00@std@@@std@@@2@V?$_Tree_const_iterator@V?$_Tree_val@V?$_Tmap_traits@HU?$pair@P6A?AV?$shared_ptr@VImageTarget@cinder@@@tr1@std@@V?$shared_ptr@VDataTarget@cinder@@@23@V?$shared_ptr@VImageSource@cinder@@@23@VOptions@ImageTarget@cinder@@ABV?$basic_string@DU?$char_traits@D@std@@V?$allocator@D@2@@3@@ZV93@@std@@U?$less@H@2@V?$allocator@U?$pair@$$CBHU?$pair@P6A?AV?$shared_ptr@VImageTarget@cinder@@@tr1@std@@V?$shared_ptr@VDataTarget@cinder@@@23@V?$shared_ptr@VImageSource@cinder@@@23@VOptions@ImageTarget@cinder@@ABV?$basic_string@DU?$char_traits@D@std@@V?$allocator@D@2@@3@@ZV93@@std@@@std@@@2@$00@std@@@std@@@2@@Z 0043b2a0 f i cinder:ImageIo.obj
 0001:0003a520       ?_Erase@?$_Tree@V?$_Tmap_traits@HU?$pair@P6A?AV?$shared_ptr@VImageTarget@cinder@@@tr1@std@@V?$shared_ptr@VDataTarget@cinder@@@23@V?$shared_ptr@VImageSource@cinder@@@23@VOptions@ImageTarget@cinder@@ABV?$basic_string@DU?$char_traits@D@std@@V?$allocator@D@2@@3@@ZV93@@std@@U?$less@H@2@V?$allocator@U?$pair@$$CBHU?$pair@P6A?AV?$shared_ptr@VImageTarget@cinder@@@tr1@std@@V?$shared_ptr@VDataTarget@cinder@@@23@V?$shared_ptr@VImageSource@cinder@@@23@VOptions@ImageTarget@cinder@@ABV?$basic_string@DU?$char_traits@D@std@@V?$allocator@D@2@@3@@ZV93@@std@@@std@@@2@$00@std@@@std@@IAEXPAU_Node@?$_Tree_nod@V?$_Tmap_traits@HU?$pair@P6A?AV?$shared_ptr@VImageTarget@cinder@@@tr1@std@@V?$shared_ptr@VDataTarget@cinder@@@23@V?$shared_ptr@VImageSource@cinder@@@23@VOptions@ImageTarget@cinder@@ABV?$basic_string@DU?$char_traits@D@std@@V?$allocator@D@2@@3@@ZV93@@std@@U?$less@H@2@V?$allocator@U?$pair@$$CBHU?$pair@P6A?AV?$shared_ptr@VImageTarget@cinder@@@tr1@std@@V?$shared_ptr@VDataTarget@cinder@@@23@V?$shared_ptr@VImageSource@cinder@@@23@VOptions@ImageTarget@cinder@@ABV?$basic_string@DU?$char_traits@D@std@@V?$allocator@D@2@@3@@ZV93@@std@@@std@@@2@$00@std@@@2@@Z 0043b520 f i cinder:ImageIo.obj
 0001:0003a580       ??$make_pair@AAHU?$pair@P6A?AV?$shared_ptr@VImageTarget@cinder@@@tr1@std@@V?$shared_ptr@VDataTarget@cinder@@@23@V?$shared_ptr@VImageSource@cinder@@@23@VOptions@ImageTarget@cinder@@ABV?$basic_string@DU?$char_traits@D@std@@V?$allocator@D@2@@3@@ZV93@@std@@@std@@YA?AU?$pair@HU?$pair@P6A?AV?$shared_ptr@VImageTarget@cinder@@@tr1@std@@V?$shared_ptr@VDataTarget@cinder@@@23@V?$shared_ptr@VImageSource@cinder@@@23@VOptions@ImageTarget@cinder@@ABV?$basic_string@DU?$char_traits@D@std@@V?$allocator@D@2@@3@@ZV93@@std@@@0@AAH$$QAU?$pair@P6A?AV?$shared_ptr@VImageTarget@cinder@@@tr1@std@@V?$shared_ptr@VDataTarget@cinder@@@23@V?$shared_ptr@VImageSource@cinder@@@23@VOptions@ImageTarget@cinder@@ABV?$basic_string@DU?$char_traits@D@std@@V?$allocator@D@2@@3@@ZV93@@0@@Z 0043b580 f i cinder:ImageIo.obj
 0001:0003a5c0       ??$_Buynode@AAU?$pair@$$CBHU?$pair@P6A?AV?$shared_ptr@VImageTarget@cinder@@@tr1@std@@V?$shared_ptr@VDataTarget@cinder@@@23@V?$shared_ptr@VImageSource@cinder@@@23@VOptions@ImageTarget@cinder@@ABV?$basic_string@DU?$char_traits@D@std@@V?$allocator@D@2@@3@@ZV93@@std@@@std@@@?$_Tree_val@V?$_Tmap_traits@HU?$pair@P6A?AV?$shared_ptr@VImageTarget@cinder@@@tr1@std@@V?$shared_ptr@VDataTarget@cinder@@@23@V?$shared_ptr@VImageSource@cinder@@@23@VOptions@ImageTarget@cinder@@ABV?$basic_string@DU?$char_traits@D@std@@V?$allocator@D@2@@3@@ZV93@@std@@U?$less@H@2@V?$allocator@U?$pair@$$CBHU?$pair@P6A?AV?$shared_ptr@VImageTarget@cinder@@@tr1@std@@V?$shared_ptr@VDataTarget@cinder@@@23@V?$shared_ptr@VImageSource@cinder@@@23@VOptions@ImageTarget@cinder@@ABV?$basic_string@DU?$char_traits@D@std@@V?$allocator@D@2@@3@@ZV93@@std@@@std@@@2@$00@std@@@std@@QAEPAU_Node@?$_Tree_nod@V?$_Tmap_traits@HU?$pair@P6A?AV?$shared_ptr@VImageTarget@cinder@@@tr1@std@@V?$shared_ptr@VDataTarget@cinder@@@23@V?$shared_ptr@VImageSource@cinder@@@23@VOptions@ImageTarget@cinder@@ABV?$basic_string@DU?$char_traits@D@std@@V?$allocator@D@2@@3@@ZV93@@std@@U?$less@H@2@V?$allocator@U?$pair@$$CBHU?$pair@P6A?AV?$shared_ptr@VImageTarget@cinder@@@tr1@std@@V?$shared_ptr@VDataTarget@cinder@@@23@V?$shared_ptr@VImageSource@cinder@@@23@VOptions@ImageTarget@cinder@@ABV?$basic_string@DU?$char_traits@D@std@@V?$allocator@D@2@@3@@ZV93@@std@@@std@@@2@$00@std@@@1@AAU?$pair@$$CBHU?$pair@P6A?AV?$shared_ptr@VImageTarget@cinder@@@tr1@std@@V?$shared_ptr@VDataTarget@cinder@@@23@V?$shared_ptr@VImageSource@cinder@@@23@VOptions@ImageTarget@cinder@@ABV?$basic_string@DU?$char_traits@D@std@@V?$allocator@D@2@@3@@ZV93@@std@@@1@@Z 0043b5c0 f i cinder:ImageIo.obj
 0001:0003a6b0       ?erase@?$_Tree@V?$_Tmap_traits@HU?$pair@P6A?AV?$shared_ptr@VImageTarget@cinder@@@tr1@std@@V?$shared_ptr@VDataTarget@cinder@@@23@V?$shared_ptr@VImageSource@cinder@@@23@VOptions@ImageTarget@cinder@@ABV?$basic_string@DU?$char_traits@D@std@@V?$allocator@D@2@@3@@ZV93@@std@@U?$less@H@2@V?$allocator@U?$pair@$$CBHU?$pair@P6A?AV?$shared_ptr@VImageTarget@cinder@@@tr1@std@@V?$shared_ptr@VDataTarget@cinder@@@23@V?$shared_ptr@VImageSource@cinder@@@23@VOptions@ImageTarget@cinder@@ABV?$basic_string@DU?$char_traits@D@std@@V?$allocator@D@2@@3@@ZV93@@std@@@std@@@2@$00@std@@@std@@QAE?AV?$_Tree_iterator@V?$_Tree_val@V?$_Tmap_traits@HU?$pair@P6A?AV?$shared_ptr@VImageTarget@cinder@@@tr1@std@@V?$shared_ptr@VDataTarget@cinder@@@23@V?$shared_ptr@VImageSource@cinder@@@23@VOptions@ImageTarget@cinder@@ABV?$basic_string@DU?$char_traits@D@std@@V?$allocator@D@2@@3@@ZV93@@std@@U?$less@H@2@V?$allocator@U?$pair@$$CBHU?$pair@P6A?AV?$shared_ptr@VImageTarget@cinder@@@tr1@std@@V?$shared_ptr@VDataTarget@cinder@@@23@V?$shared_ptr@VImageSource@cinder@@@23@VOptions@ImageTarget@cinder@@ABV?$basic_string@DU?$char_traits@D@std@@V?$allocator@D@2@@3@@ZV93@@std@@@std@@@2@$00@std@@@std@@@2@V?$_Tree_const_iterator@V?$_Tree_val@V?$_Tmap_traits@HU?$pair@P6A?AV?$shared_ptr@VImageTarget@cinder@@@tr1@std@@V?$shared_ptr@VDataTarget@cinder@@@23@V?$shared_ptr@VImageSource@cinder@@@23@VOptions@ImageTarget@cinder@@ABV?$basic_string@DU?$char_traits@D@std@@V?$allocator@D@2@@3@@ZV93@@std@@U?$less@H@2@V?$allocator@U?$pair@$$CBHU?$pair@P6A?AV?$shared_ptr@VImageTarget@cinder@@@tr1@std@@V?$shared_ptr@VDataTarget@cinder@@@23@V?$shared_ptr@VImageSource@cinder@@@23@VOptions@ImageTarget@cinder@@ABV?$basic_string@DU?$char_traits@D@std@@V?$allocator@D@2@@3@@ZV93@@std@@@std@@@2@$00@std@@@std@@@2@0@Z 0043b6b0 f i cinder:ImageIo.obj
 0001:0003a770       ??$_Buynode@U?$pair@HU?$pair@P6A?AV?$shared_ptr@VImageTarget@cinder@@@tr1@std@@V?$shared_ptr@VDataTarget@cinder@@@23@V?$shared_ptr@VImageSource@cinder@@@23@VOptions@ImageTarget@cinder@@ABV?$basic_string@DU?$char_traits@D@std@@V?$allocator@D@2@@3@@ZV93@@std@@@std@@@?$_Tree_val@V?$_Tmap_traits@HU?$pair@P6A?AV?$shared_ptr@VImageTarget@cinder@@@tr1@std@@V?$shared_ptr@VDataTarget@cinder@@@23@V?$shared_ptr@VImageSource@cinder@@@23@VOptions@ImageTarget@cinder@@ABV?$basic_string@DU?$char_traits@D@std@@V?$allocator@D@2@@3@@ZV93@@std@@U?$less@H@2@V?$allocator@U?$pair@$$CBHU?$pair@P6A?AV?$shared_ptr@VImageTarget@cinder@@@tr1@std@@V?$shared_ptr@VDataTarget@cinder@@@23@V?$shared_ptr@VImageSource@cinder@@@23@VOptions@ImageTarget@cinder@@ABV?$basic_string@DU?$char_traits@D@std@@V?$allocator@D@2@@3@@ZV93@@std@@@std@@@2@$00@std@@@std@@QAEPAU_Node@?$_Tree_nod@V?$_Tmap_traits@HU?$pair@P6A?AV?$shared_ptr@VImageTarget@cinder@@@tr1@std@@V?$shared_ptr@VDataTarget@cinder@@@23@V?$shared_ptr@VImageSource@cinder@@@23@VOptions@ImageTarget@cinder@@ABV?$basic_string@DU?$char_traits@D@std@@V?$allocator@D@2@@3@@ZV93@@std@@U?$less@H@2@V?$allocator@U?$pair@$$CBHU?$pair@P6A?AV?$shared_ptr@VImageTarget@cinder@@@tr1@std@@V?$shared_ptr@VDataTarget@cinder@@@23@V?$shared_ptr@VImageSource@cinder@@@23@VOptions@ImageTarget@cinder@@ABV?$basic_string@DU?$char_traits@D@std@@V?$allocator@D@2@@3@@ZV93@@std@@@std@@@2@$00@std@@@1@$$QAU?$pair@HU?$pair@P6A?AV?$shared_ptr@VImageTarget@cinder@@@tr1@std@@V?$shared_ptr@VDataTarget@cinder@@@23@V?$shared_ptr@VImageSource@cinder@@@23@VOptions@ImageTarget@cinder@@ABV?$basic_string@DU?$char_traits@D@std@@V?$allocator@D@2@@3@@ZV93@@std@@@1@@Z 0043b770 f i cinder:ImageIo.obj
 0001:0003a850       ?_Copy@?$_Tree@V?$_Tmap_traits@HU?$pair@P6A?AV?$shared_ptr@VImageTarget@cinder@@@tr1@std@@V?$shared_ptr@VDataTarget@cinder@@@23@V?$shared_ptr@VImageSource@cinder@@@23@VOptions@ImageTarget@cinder@@ABV?$basic_string@DU?$char_traits@D@std@@V?$allocator@D@2@@3@@ZV93@@std@@U?$less@H@2@V?$allocator@U?$pair@$$CBHU?$pair@P6A?AV?$shared_ptr@VImageTarget@cinder@@@tr1@std@@V?$shared_ptr@VDataTarget@cinder@@@23@V?$shared_ptr@VImageSource@cinder@@@23@VOptions@ImageTarget@cinder@@ABV?$basic_string@DU?$char_traits@D@std@@V?$allocator@D@2@@3@@ZV93@@std@@@std@@@2@$00@std@@@std@@IAEPAU_Node@?$_Tree_nod@V?$_Tmap_traits@HU?$pair@P6A?AV?$shared_ptr@VImageTarget@cinder@@@tr1@std@@V?$shared_ptr@VDataTarget@cinder@@@23@V?$shared_ptr@VImageSource@cinder@@@23@VOptions@ImageTarget@cinder@@ABV?$basic_string@DU?$char_traits@D@std@@V?$allocator@D@2@@3@@ZV93@@std@@U?$less@H@2@V?$allocator@U?$pair@$$CBHU?$pair@P6A?AV?$shared_ptr@VImageTarget@cinder@@@tr1@std@@V?$shared_ptr@VDataTarget@cinder@@@23@V?$shared_ptr@VImageSource@cinder@@@23@VOptions@ImageTarget@cinder@@ABV?$basic_string@DU?$char_traits@D@std@@V?$allocator@D@2@@3@@ZV93@@std@@@std@@@2@$00@std@@@2@PAU342@0@Z 0043b850 f i cinder:ImageIo.obj
 0001:0003a910       ??0?$_Tree@V?$_Tmap_traits@HU?$pair@P6A?AV?$shared_ptr@VImageTarget@cinder@@@tr1@std@@V?$shared_ptr@VDataTarget@cinder@@@23@V?$shared_ptr@VImageSource@cinder@@@23@VOptions@ImageTarget@cinder@@ABV?$basic_string@DU?$char_traits@D@std@@V?$allocator@D@2@@3@@ZV93@@std@@U?$less@H@2@V?$allocator@U?$pair@$$CBHU?$pair@P6A?AV?$shared_ptr@VImageTarget@cinder@@@tr1@std@@V?$shared_ptr@VDataTarget@cinder@@@23@V?$shared_ptr@VImageSource@cinder@@@23@VOptions@ImageTarget@cinder@@ABV?$basic_string@DU?$char_traits@D@std@@V?$allocator@D@2@@3@@ZV93@@std@@@std@@@2@$00@std@@@std@@QAE@$$QAV01@@Z 0043b910 f i cinder:ImageIo.obj
 0001:0003a9f0       ??$insert@U?$pair@HU?$pair@P6A?AV?$shared_ptr@VImageTarget@cinder@@@tr1@std@@V?$shared_ptr@VDataTarget@cinder@@@23@V?$shared_ptr@VImageSource@cinder@@@23@VOptions@ImageTarget@cinder@@ABV?$basic_string@DU?$char_traits@D@std@@V?$allocator@D@2@@3@@ZV93@@std@@@std@@@?$_Tree@V?$_Tmap_traits@HU?$pair@P6A?AV?$shared_ptr@VImageTarget@cinder@@@tr1@std@@V?$shared_ptr@VDataTarget@cinder@@@23@V?$shared_ptr@VImageSource@cinder@@@23@VOptions@ImageTarget@cinder@@ABV?$basic_string@DU?$char_traits@D@std@@V?$allocator@D@2@@3@@ZV93@@std@@U?$less@H@2@V?$allocator@U?$pair@$$CBHU?$pair@P6A?AV?$shared_ptr@VImageTarget@cinder@@@tr1@std@@V?$shared_ptr@VDataTarget@cinder@@@23@V?$shared_ptr@VImageSource@cinder@@@23@VOptions@ImageTarget@cinder@@ABV?$basic_string@DU?$char_traits@D@std@@V?$allocator@D@2@@3@@ZV93@@std@@@std@@@2@$00@std@@@std@@QAE?AU?$pair@V?$_Tree_iterator@V?$_Tree_val@V?$_Tmap_traits@HU?$pair@P6A?AV?$shared_ptr@VImageTarget@cinder@@@tr1@std@@V?$shared_ptr@VDataTarget@cinder@@@23@V?$shared_ptr@VImageSource@cinder@@@23@VOptions@ImageTarget@cinder@@ABV?$basic_string@DU?$char_traits@D@std@@V?$allocator@D@2@@3@@ZV93@@std@@U?$less@H@2@V?$allocator@U?$pair@$$CBHU?$pair@P6A?AV?$shared_ptr@VImageTarget@cinder@@@tr1@std@@V?$shared_ptr@VDataTarget@cinder@@@23@V?$shared_ptr@VImageSource@cinder@@@23@VOptions@ImageTarget@cinder@@ABV?$basic_string@DU?$char_traits@D@std@@V?$allocator@D@2@@3@@ZV93@@std@@@std@@@2@$00@std@@@std@@@std@@_N@1@$$QAU?$pair@HU?$pair@P6A?AV?$shared_ptr@VImageTarget@cinder@@@tr1@std@@V?$shared_ptr@VDataTarget@cinder@@@23@V?$shared_ptr@VImageSource@cinder@@@23@VOptions@ImageTarget@cinder@@ABV?$basic_string@DU?$char_traits@D@std@@V?$allocator@D@2@@3@@ZV93@@std@@@1@@Z 0043b9f0 f i cinder:ImageIo.obj
 0001:0003aa60       ?_Copy@?$_Tree@V?$_Tmap_traits@HU?$pair@P6A?AV?$shared_ptr@VImageTarget@cinder@@@tr1@std@@V?$shared_ptr@VDataTarget@cinder@@@23@V?$shared_ptr@VImageSource@cinder@@@23@VOptions@ImageTarget@cinder@@ABV?$basic_string@DU?$char_traits@D@std@@V?$allocator@D@2@@3@@ZV93@@std@@U?$less@H@2@V?$allocator@U?$pair@$$CBHU?$pair@P6A?AV?$shared_ptr@VImageTarget@cinder@@@tr1@std@@V?$shared_ptr@VDataTarget@cinder@@@23@V?$shared_ptr@VImageSource@cinder@@@23@VOptions@ImageTarget@cinder@@ABV?$basic_string@DU?$char_traits@D@std@@V?$allocator@D@2@@3@@ZV93@@std@@@std@@@2@$00@std@@@std@@IAEXABV12@@Z 0043ba60 f i cinder:ImageIo.obj
 0001:0003aae0       ?erase@?$_Tree@V?$_Tmap_traits@V?$basic_string@DU?$char_traits@D@std@@V?$allocator@D@2@@std@@V?$multimap@HP6A?AV?$shared_ptr@VImageSource@cinder@@@tr1@std@@V?$shared_ptr@VDataSource@cinder@@@23@VOptions@ImageSource@cinder@@@ZU?$less@H@3@V?$allocator@U?$pair@$$CBHP6A?AV?$shared_ptr@VImageSource@cinder@@@tr1@std@@V?$shared_ptr@VDataSource@cinder@@@23@VOptions@ImageSource@cinder@@@Z@std@@@3@@2@U?$less@V?$basic_string@DU?$char_traits@D@std@@V?$allocator@D@2@@std@@@2@V?$allocator@U?$pair@$$CBV?$basic_string@DU?$char_traits@D@std@@V?$allocator@D@2@@std@@V?$multimap@HP6A?AV?$shared_ptr@VImageSource@cinder@@@tr1@std@@V?$shared_ptr@VDataSource@cinder@@@23@VOptions@ImageSource@cinder@@@ZU?$less@H@3@V?$allocator@U?$pair@$$CBHP6A?AV?$shared_ptr@VImageSource@cinder@@@tr1@std@@V?$shared_ptr@VDataSource@cinder@@@23@VOptions@ImageSource@cinder@@@Z@std@@@3@@2@@std@@@2@$0A@@std@@@std@@QAE?AV?$_Tree_iterator@V?$_Tree_val@V?$_Tmap_traits@V?$basic_string@DU?$char_traits@D@std@@V?$allocator@D@2@@std@@V?$multimap@HP6A?AV?$shared_ptr@VImageSource@cinder@@@tr1@std@@V?$shared_ptr@VDataSource@cinder@@@23@VOptions@ImageSource@cinder@@@ZU?$less@H@3@V?$allocator@U?$pair@$$CBHP6A?AV?$shared_ptr@VImageSource@cinder@@@tr1@std@@V?$shared_ptr@VDataSource@cinder@@@23@VOptions@ImageSource@cinder@@@Z@std@@@3@@2@U?$less@V?$basic_string@DU?$char_traits@D@std@@V?$allocator@D@2@@std@@@2@V?$allocator@U?$pair@$$CBV?$basic_string@DU?$char_traits@D@std@@V?$allocator@D@2@@std@@V?$multimap@HP6A?AV?$shared_ptr@VImageSource@cinder@@@tr1@std@@V?$shared_ptr@VDataSource@cinder@@@23@VOptions@ImageSource@cinder@@@ZU?$less@H@3@V?$allocator@U?$pair@$$CBHP6A?AV?$shared_ptr@VImageSource@cinder@@@tr1@std@@V?$shared_ptr@VDataSource@cinder@@@23@VOptions@ImageSource@cinder@@@Z@std@@@3@@2@@std@@@2@$0A@@std@@@std@@@2@V?$_Tree_const_iterator@V?$_Tree_val@V?$_Tmap_traits@V?$basic_string@DU?$char_traits@D@std@@V?$allocator@D@2@@std@@V?$multimap@HP6A?AV?$shared_ptr@VImageSource@cinder@@@tr1@std@@V?$shared_ptr@VDataSource@cinder@@@23@VOptions@ImageSource@cinder@@@ZU?$less@H@3@V?$allocator@U?$pair@$$CBHP6A?AV?$shared_ptr@VImageSource@cinder@@@tr1@std@@V?$shared_ptr@VDataSource@cinder@@@23@VOptions@ImageSource@cinder@@@Z@std@@@3@@2@U?$less@V?$basic_string@DU?$char_traits@D@std@@V?$allocator@D@2@@std@@@2@V?$allocator@U?$pair@$$CBV?$basic_string@DU?$char_traits@D@std@@V?$allocator@D@2@@std@@V?$multimap@HP6A?AV?$shared_ptr@VImageSource@cinder@@@tr1@std@@V?$shared_ptr@VDataSource@cinder@@@23@VOptions@ImageSource@cinder@@@ZU?$less@H@3@V?$allocator@U?$pair@$$CBHP6A?AV?$shared_ptr@VImageSource@cinder@@@tr1@std@@V?$shared_ptr@VDataSource@cinder@@@23@VOptions@ImageSource@cinder@@@Z@std@@@3@@2@@std@@@2@$0A@@std@@@std@@@2@@Z 0043bae0 f i cinder:ImageIo.obj
 0001:0003adb0       ?_Erase@?$_Tree@V?$_Tmap_traits@V?$basic_string@DU?$char_traits@D@std@@V?$allocator@D@2@@std@@V?$multimap@HP6A?AV?$shared_ptr@VImageSource@cinder@@@tr1@std@@V?$shared_ptr@VDataSource@cinder@@@23@VOptions@ImageSource@cinder@@@ZU?$less@H@3@V?$allocator@U?$pair@$$CBHP6A?AV?$shared_ptr@VImageSource@cinder@@@tr1@std@@V?$shared_ptr@VDataSource@cinder@@@23@VOptions@ImageSource@cinder@@@Z@std@@@3@@2@U?$less@V?$basic_string@DU?$char_traits@D@std@@V?$allocator@D@2@@std@@@2@V?$allocator@U?$pair@$$CBV?$basic_string@DU?$char_traits@D@std@@V?$allocator@D@2@@std@@V?$multimap@HP6A?AV?$shared_ptr@VImageSource@cinder@@@tr1@std@@V?$shared_ptr@VDataSource@cinder@@@23@VOptions@ImageSource@cinder@@@ZU?$less@H@3@V?$allocator@U?$pair@$$CBHP6A?AV?$shared_ptr@VImageSource@cinder@@@tr1@std@@V?$shared_ptr@VDataSource@cinder@@@23@VOptions@ImageSource@cinder@@@Z@std@@@3@@2@@std@@@2@$0A@@std@@@std@@IAEXPAU_Node@?$_Tree_nod@V?$_Tmap_traits@V?$basic_string@DU?$char_traits@D@std@@V?$allocator@D@2@@std@@V?$multimap@HP6A?AV?$shared_ptr@VImageSource@cinder@@@tr1@std@@V?$shared_ptr@VDataSource@cinder@@@23@VOptions@ImageSource@cinder@@@ZU?$less@H@3@V?$allocator@U?$pair@$$CBHP6A?AV?$shared_ptr@VImageSource@cinder@@@tr1@std@@V?$shared_ptr@VDataSource@cinder@@@23@VOptions@ImageSource@cinder@@@Z@std@@@3@@2@U?$less@V?$basic_string@DU?$char_traits@D@std@@V?$allocator@D@2@@std@@@2@V?$allocator@U?$pair@$$CBV?$basic_string@DU?$char_traits@D@std@@V?$allocator@D@2@@std@@V?$multimap@HP6A?AV?$shared_ptr@VImageSource@cinder@@@tr1@std@@V?$shared_ptr@VDataSource@cinder@@@23@VOptions@ImageSource@cinder@@@ZU?$less@H@3@V?$allocator@U?$pair@$$CBHP6A?AV?$shared_ptr@VImageSource@cinder@@@tr1@std@@V?$shared_ptr@VDataSource@cinder@@@23@VOptions@ImageSource@cinder@@@Z@std@@@3@@2@@std@@@2@$0A@@std@@@2@@Z 0043bdb0 f i cinder:ImageIo.obj
 0001:0003ae90       ??0?$_Tree@V?$_Tmap_traits@HU?$pair@P6A?AV?$shared_ptr@VImageTarget@cinder@@@tr1@std@@V?$shared_ptr@VDataTarget@cinder@@@23@V?$shared_ptr@VImageSource@cinder@@@23@VOptions@ImageTarget@cinder@@ABV?$basic_string@DU?$char_traits@D@std@@V?$allocator@D@2@@3@@ZV93@@std@@U?$less@H@2@V?$allocator@U?$pair@$$CBHU?$pair@P6A?AV?$shared_ptr@VImageTarget@cinder@@@tr1@std@@V?$shared_ptr@VDataTarget@cinder@@@23@V?$shared_ptr@VImageSource@cinder@@@23@VOptions@ImageTarget@cinder@@ABV?$basic_string@DU?$char_traits@D@std@@V?$allocator@D@2@@3@@ZV93@@std@@@std@@@2@$00@std@@@std@@QAE@ABV01@@Z 0043be90 f i cinder:ImageIo.obj
 0001:0003af60       ??1?$multimap@HU?$pair@P6A?AV?$shared_ptr@VImageTarget@cinder@@@tr1@std@@V?$shared_ptr@VDataTarget@cinder@@@23@V?$shared_ptr@VImageSource@cinder@@@23@VOptions@ImageTarget@cinder@@ABV?$basic_string@DU?$char_traits@D@std@@V?$allocator@D@2@@3@@ZV93@@std@@U?$less@H@2@V?$allocator@U?$pair@$$CBHU?$pair@P6A?AV?$shared_ptr@VImageTarget@cinder@@@tr1@std@@V?$shared_ptr@VDataTarget@cinder@@@23@V?$shared_ptr@VImageSource@cinder@@@23@VOptions@ImageTarget@cinder@@ABV?$basic_string@DU?$char_traits@D@std@@V?$allocator@D@2@@3@@ZV93@@std@@@std@@@2@@std@@QAE@XZ 0043bf60 f i cinder:ImageIo.obj
 0001:0003afc0       ??1?$pair@V?$basic_string@DU?$char_traits@D@std@@V?$allocator@D@2@@std@@V?$multimap@HU?$pair@P6A?AV?$shared_ptr@VImageTarget@cinder@@@tr1@std@@V?$shared_ptr@VDataTarget@cinder@@@23@V?$shared_ptr@VImageSource@cinder@@@23@VOptions@ImageTarget@cinder@@ABV?$basic_string@DU?$char_traits@D@std@@V?$allocator@D@2@@3@@ZV93@@std@@U?$less@H@2@V?$allocator@U?$pair@$$CBHU?$pair@P6A?AV?$shared_ptr@VImageTarget@cinder@@@tr1@std@@V?$shared_ptr@VDataTarget@cinder@@@23@V?$shared_ptr@VImageSource@cinder@@@23@VOptions@ImageTarget@cinder@@ABV?$basic_string@DU?$char_traits@D@std@@V?$allocator@D@2@@3@@ZV93@@std@@@std@@@2@@2@@std@@QAE@XZ 0043bfc0 f i cinder:ImageIo.obj
 0001:0003b050       ?erase@?$_Tree@V?$_Tmap_traits@V?$basic_string@DU?$char_traits@D@std@@V?$allocator@D@2@@std@@V?$multimap@HP6A?AV?$shared_ptr@VImageSource@cinder@@@tr1@std@@V?$shared_ptr@VDataSource@cinder@@@23@VOptions@ImageSource@cinder@@@ZU?$less@H@3@V?$allocator@U?$pair@$$CBHP6A?AV?$shared_ptr@VImageSource@cinder@@@tr1@std@@V?$shared_ptr@VDataSource@cinder@@@23@VOptions@ImageSource@cinder@@@Z@std@@@3@@2@U?$less@V?$basic_string@DU?$char_traits@D@std@@V?$allocator@D@2@@std@@@2@V?$allocator@U?$pair@$$CBV?$basic_string@DU?$char_traits@D@std@@V?$allocator@D@2@@std@@V?$multimap@HP6A?AV?$shared_ptr@VImageSource@cinder@@@tr1@std@@V?$shared_ptr@VDataSource@cinder@@@23@VOptions@ImageSource@cinder@@@ZU?$less@H@3@V?$allocator@U?$pair@$$CBHP6A?AV?$shared_ptr@VImageSource@cinder@@@tr1@std@@V?$shared_ptr@VDataSource@cinder@@@23@VOptions@ImageSource@cinder@@@Z@std@@@3@@2@@std@@@2@$0A@@std@@@std@@QAE?AV?$_Tree_iterator@V?$_Tree_val@V?$_Tmap_traits@V?$basic_string@DU?$char_traits@D@std@@V?$allocator@D@2@@std@@V?$multimap@HP6A?AV?$shared_ptr@VImageSource@cinder@@@tr1@std@@V?$shared_ptr@VDataSource@cinder@@@23@VOptions@ImageSource@cinder@@@ZU?$less@H@3@V?$allocator@U?$pair@$$CBHP6A?AV?$shared_ptr@VImageSource@cinder@@@tr1@std@@V?$shared_ptr@VDataSource@cinder@@@23@VOptions@ImageSource@cinder@@@Z@std@@@3@@2@U?$less@V?$basic_string@DU?$char_traits@D@std@@V?$allocator@D@2@@std@@@2@V?$allocator@U?$pair@$$CBV?$basic_string@DU?$char_traits@D@std@@V?$allocator@D@2@@std@@V?$multimap@HP6A?AV?$shared_ptr@VImageSource@cinder@@@tr1@std@@V?$shared_ptr@VDataSource@cinder@@@23@VOptions@ImageSource@cinder@@@ZU?$less@H@3@V?$allocator@U?$pair@$$CBHP6A?AV?$shared_ptr@VImageSource@cinder@@@tr1@std@@V?$shared_ptr@VDataSource@cinder@@@23@VOptions@ImageSource@cinder@@@Z@std@@@3@@2@@std@@@2@$0A@@std@@@std@@@2@V?$_Tree_const_iterator@V?$_Tree_val@V?$_Tmap_traits@V?$basic_string@DU?$char_traits@D@std@@V?$allocator@D@2@@std@@V?$multimap@HP6A?AV?$shared_ptr@VImageSource@cinder@@@tr1@std@@V?$shared_ptr@VDataSource@cinder@@@23@VOptions@ImageSource@cinder@@@ZU?$less@H@3@V?$allocator@U?$pair@$$CBHP6A?AV?$shared_ptr@VImageSource@cinder@@@tr1@std@@V?$shared_ptr@VDataSource@cinder@@@23@VOptions@ImageSource@cinder@@@Z@std@@@3@@2@U?$less@V?$basic_string@DU?$char_traits@D@std@@V?$allocator@D@2@@std@@@2@V?$allocator@U?$pair@$$CBV?$basic_string@DU?$char_traits@D@std@@V?$allocator@D@2@@std@@V?$multimap@HP6A?AV?$shared_ptr@VImageSource@cinder@@@tr1@std@@V?$shared_ptr@VDataSource@cinder@@@23@VOptions@ImageSource@cinder@@@ZU?$less@H@3@V?$allocator@U?$pair@$$CBHP6A?AV?$shared_ptr@VImageSource@cinder@@@tr1@std@@V?$shared_ptr@VDataSource@cinder@@@23@VOptions@ImageSource@cinder@@@Z@std@@@3@@2@@std@@@2@$0A@@std@@@std@@@2@0@Z 0043c050 f i cinder:ImageIo.obj
 0001:0003b110       ??$make_pair@AAV?$basic_string@DU?$char_traits@D@std@@V?$allocator@D@2@@std@@AAV?$multimap@HU?$pair@P6A?AV?$shared_ptr@VImageTarget@cinder@@@tr1@std@@V?$shared_ptr@VDataTarget@cinder@@@23@V?$shared_ptr@VImageSource@cinder@@@23@VOptions@ImageTarget@cinder@@ABV?$basic_string@DU?$char_traits@D@std@@V?$allocator@D@2@@3@@ZV93@@std@@U?$less@H@2@V?$allocator@U?$pair@$$CBHU?$pair@P6A?AV?$shared_ptr@VImageTarget@cinder@@@tr1@std@@V?$shared_ptr@VDataTarget@cinder@@@23@V?$shared_ptr@VImageSource@cinder@@@23@VOptions@ImageTarget@cinder@@ABV?$basic_string@DU?$char_traits@D@std@@V?$allocator@D@2@@3@@ZV93@@std@@@std@@@2@@2@@std@@YA?AU?$pair@V?$basic_string@DU?$char_traits@D@std@@V?$allocator@D@2@@std@@V?$multimap@HU?$pair@P6A?AV?$shared_ptr@VImageTarget@cinder@@@tr1@std@@V?$shared_ptr@VDataTarget@cinder@@@23@V?$shared_ptr@VImageSource@cinder@@@23@VOptions@ImageTarget@cinder@@ABV?$basic_string@DU?$char_traits@D@std@@V?$allocator@D@2@@3@@ZV93@@std@@U?$less@H@2@V?$allocator@U?$pair@$$CBHU?$pair@P6A?AV?$shared_ptr@VImageTarget@cinder@@@tr1@std@@V?$shared_ptr@VDataTarget@cinder@@@23@V?$shared_ptr@VImageSource@cinder@@@23@VOptions@ImageTarget@cinder@@ABV?$basic_string@DU?$char_traits@D@std@@V?$allocator@D@2@@3@@ZV93@@std@@@std@@@2@@2@@0@AAV?$basic_string@DU?$char_traits@D@std@@V?$allocator@D@2@@0@AAV?$multimap@HU?$pair@P6A?AV?$shared_ptr@VImageTarget@cinder@@@tr1@std@@V?$shared_ptr@VDataTarget@cinder@@@23@V?$shared_ptr@VImageSource@cinder@@@23@VOptions@ImageTarget@cinder@@ABV?$basic_string@DU?$char_traits@D@std@@V?$allocator@D@2@@3@@ZV93@@std@@U?$less@H@2@V?$allocator@U?$pair@$$CBHU?$pair@P6A?AV?$shared_ptr@VImageTarget@cinder@@@tr1@std@@V?$shared_ptr@VDataTarget@cinder@@@23@V?$shared_ptr@VImageSource@cinder@@@23@VOptions@ImageTarget@cinder@@ABV?$basic_string@DU?$char_traits@D@std@@V?$allocator@D@2@@3@@ZV93@@std@@@std@@@2@@0@@Z 0043c110 f i cinder:ImageIo.obj
 0001:0003b190       ??$_Destroy@U?$pair@$$CBV?$basic_string@DU?$char_traits@D@std@@V?$allocator@D@2@@std@@V?$multimap@HU?$pair@P6A?AV?$shared_ptr@VImageTarget@cinder@@@tr1@std@@V?$shared_ptr@VDataTarget@cinder@@@23@V?$shared_ptr@VImageSource@cinder@@@23@VOptions@ImageTarget@cinder@@ABV?$basic_string@DU?$char_traits@D@std@@V?$allocator@D@2@@3@@ZV93@@std@@U?$less@H@2@V?$allocator@U?$pair@$$CBHU?$pair@P6A?AV?$shared_ptr@VImageTarget@cinder@@@tr1@std@@V?$shared_ptr@VDataTarget@cinder@@@23@V?$shared_ptr@VImageSource@cinder@@@23@VOptions@ImageTarget@cinder@@ABV?$basic_string@DU?$char_traits@D@std@@V?$allocator@D@2@@3@@ZV93@@std@@@std@@@2@@2@@std@@@std@@YAXPAU?$pair@$$CBV?$basic_string@DU?$char_traits@D@std@@V?$allocator@D@2@@std@@V?$multimap@HU?$pair@P6A?AV?$shared_ptr@VImageTarget@cinder@@@tr1@std@@V?$shared_ptr@VDataTarget@cinder@@@23@V?$shared_ptr@VImageSource@cinder@@@23@VOptions@ImageTarget@cinder@@ABV?$basic_string@DU?$char_traits@D@std@@V?$allocator@D@2@@3@@ZV93@@std@@U?$less@H@2@V?$allocator@U?$pair@$$CBHU?$pair@P6A?AV?$shared_ptr@VImageTarget@cinder@@@tr1@std@@V?$shared_ptr@VDataTarget@cinder@@@23@V?$shared_ptr@VImageSource@cinder@@@23@VOptions@ImageTarget@cinder@@ABV?$basic_string@DU?$char_traits@D@std@@V?$allocator@D@2@@3@@ZV93@@std@@@std@@@2@@2@@0@@Z 0043c190 f i cinder:ImageIo.obj
 0001:0003b220       ??1?$map@V?$basic_string@DU?$char_traits@D@std@@V?$allocator@D@2@@std@@V?$multimap@HP6A?AV?$shared_ptr@VImageSource@cinder@@@tr1@std@@V?$shared_ptr@VDataSource@cinder@@@23@VOptions@ImageSource@cinder@@@ZU?$less@H@3@V?$allocator@U?$pair@$$CBHP6A?AV?$shared_ptr@VImageSource@cinder@@@tr1@std@@V?$shared_ptr@VDataSource@cinder@@@23@VOptions@ImageSource@cinder@@@Z@std@@@3@@2@U?$less@V?$basic_string@DU?$char_traits@D@std@@V?$allocator@D@2@@std@@@2@V?$allocator@U?$pair@$$CBV?$basic_string@DU?$char_traits@D@std@@V?$allocator@D@2@@std@@V?$multimap@HP6A?AV?$shared_ptr@VImageSource@cinder@@@tr1@std@@V?$shared_ptr@VDataSource@cinder@@@23@VOptions@ImageSource@cinder@@@ZU?$less@H@3@V?$allocator@U?$pair@$$CBHP6A?AV?$shared_ptr@VImageSource@cinder@@@tr1@std@@V?$shared_ptr@VDataSource@cinder@@@23@VOptions@ImageSource@cinder@@@Z@std@@@3@@2@@std@@@2@@std@@QAE@XZ 0043c220 f i cinder:ImageIo.obj
 0001:0003b280       ??$_Buynode@U?$pair@V?$basic_string@DU?$char_traits@D@std@@V?$allocator@D@2@@std@@V?$multimap@HU?$pair@P6A?AV?$shared_ptr@VImageTarget@cinder@@@tr1@std@@V?$shared_ptr@VDataTarget@cinder@@@23@V?$shared_ptr@VImageSource@cinder@@@23@VOptions@ImageTarget@cinder@@ABV?$basic_string@DU?$char_traits@D@std@@V?$allocator@D@2@@3@@ZV93@@std@@U?$less@H@2@V?$allocator@U?$pair@$$CBHU?$pair@P6A?AV?$shared_ptr@VImageTarget@cinder@@@tr1@std@@V?$shared_ptr@VDataTarget@cinder@@@23@V?$shared_ptr@VImageSource@cinder@@@23@VOptions@ImageTarget@cinder@@ABV?$basic_string@DU?$char_traits@D@std@@V?$allocator@D@2@@3@@ZV93@@std@@@std@@@2@@2@@std@@@?$_Tree_val@V?$_Tmap_traits@V?$basic_string@DU?$char_traits@D@std@@V?$allocator@D@2@@std@@V?$multimap@HU?$pair@P6A?AV?$shared_ptr@VImageTarget@cinder@@@tr1@std@@V?$shared_ptr@VDataTarget@cinder@@@23@V?$shared_ptr@VImageSource@cinder@@@23@VOptions@ImageTarget@cinder@@ABV?$basic_string@DU?$char_traits@D@std@@V?$allocator@D@2@@3@@ZV93@@std@@U?$less@H@2@V?$allocator@U?$pair@$$CBHU?$pair@P6A?AV?$shared_ptr@VImageTarget@cinder@@@tr1@std@@V?$shared_ptr@VDataTarget@cinder@@@23@V?$shared_ptr@VImageSource@cinder@@@23@VOptions@ImageTarget@cinder@@ABV?$basic_string@DU?$char_traits@D@std@@V?$allocator@D@2@@3@@ZV93@@std@@@std@@@2@@2@U?$less@V?$basic_string@DU?$char_traits@D@std@@V?$allocator@D@2@@std@@@2@V?$allocator@U?$pair@$$CBV?$basic_string@DU?$char_traits@D@std@@V?$allocator@D@2@@std@@V?$multimap@HU?$pair@P6A?AV?$shared_ptr@VImageTarget@cinder@@@tr1@std@@V?$shared_ptr@VDataTarget@cinder@@@23@V?$shared_ptr@VImageSource@cinder@@@23@VOptions@ImageTarget@cinder@@ABV?$basic_string@DU?$char_traits@D@std@@V?$allocator@D@2@@3@@ZV93@@std@@U?$less@H@2@V?$allocator@U?$pair@$$CBHU?$pair@P6A?AV?$shared_ptr@VImageTarget@cinder@@@tr1@std@@V?$shared_ptr@VDataTarget@cinder@@@23@V?$shared_ptr@VImageSource@cinder@@@23@VOptions@ImageTarget@cinder@@ABV?$basic_string@DU?$char_traits@D@std@@V?$allocator@D@2@@3@@ZV93@@std@@@std@@@2@@2@@std@@@2@$0A@@std@@@std@@QAEPAU_Node@?$_Tree_nod@V?$_Tmap_traits@V?$basic_string@DU?$char_traits@D@std@@V?$allocator@D@2@@std@@V?$multimap@HU?$pair@P6A?AV?$shared_ptr@VImageTarget@cinder@@@tr1@std@@V?$shared_ptr@VDataTarget@cinder@@@23@V?$shared_ptr@VImageSource@cinder@@@23@VOptions@ImageTarget@cinder@@ABV?$basic_string@DU?$char_traits@D@std@@V?$allocator@D@2@@3@@ZV93@@std@@U?$less@H@2@V?$allocator@U?$pair@$$CBHU?$pair@P6A?AV?$shared_ptr@VImageTarget@cinder@@@tr1@std@@V?$shared_ptr@VDataTarget@cinder@@@23@V?$shared_ptr@VImageSource@cinder@@@23@VOptions@ImageTarget@cinder@@ABV?$basic_string@DU?$char_traits@D@std@@V?$allocator@D@2@@3@@ZV93@@std@@@std@@@2@@2@U?$less@V?$basic_string@DU?$char_traits@D@std@@V?$allocator@D@2@@std@@@2@V?$allocator@U?$pair@$$CBV?$basic_string@DU?$char_traits@D@std@@V?$allocator@D@2@@std@@V?$multimap@HU?$pair@P6A?AV?$shared_ptr@VImageTarget@cinder@@@tr1@std@@V?$shared_ptr@VDataTarget@cinder@@@23@V?$shared_ptr@VImageSource@cinder@@@23@VOptions@ImageTarget@cinder@@ABV?$basic_string@DU?$char_traits@D@std@@V?$allocator@D@2@@3@@ZV93@@std@@U?$less@H@2@V?$allocator@U?$pair@$$CBHU?$pair@P6A?AV?$shared_ptr@VImageTarget@cinder@@@tr1@std@@V?$shared_ptr@VDataTarget@cinder@@@23@V?$shared_ptr@VImageSource@cinder@@@23@VOptions@ImageTarget@cinder@@ABV?$basic_string@DU?$char_traits@D@std@@V?$allocator@D@2@@3@@ZV93@@std@@@std@@@2@@2@@std@@@2@$0A@@std@@@1@$$QAU?$pair@V?$basic_string@DU?$char_traits@D@std@@V?$allocator@D@2@@std@@V?$multimap@HU?$pair@P6A?AV?$shared_ptr@VImageTarget@cinder@@@tr1@std@@V?$shared_ptr@VDataTarget@cinder@@@23@V?$shared_ptr@VImageSource@cinder@@@23@VOptions@ImageTarget@cinder@@ABV?$basic_string@DU?$char_traits@D@std@@V?$allocator@D@2@@3@@ZV93@@std@@U?$less@H@2@V?$allocator@U?$pair@$$CBHU?$pair@P6A?AV?$shared_ptr@VImageTarget@cinder@@@tr1@std@@V?$shared_ptr@VDataTarget@cinder@@@23@V?$shared_ptr@VImageSource@cinder@@@23@VOptions@ImageTarget@cinder@@ABV?$basic_string@DU?$char_traits@D@std@@V?$allocator@D@2@@3@@ZV93@@std@@@std@@@2@@2@@1@@Z 0043c280 f i cinder:ImageIo.obj
 0001:0003b370       ?_Insert@?$_Tree@V?$_Tmap_traits@V?$basic_string@DU?$char_traits@D@std@@V?$allocator@D@2@@std@@V?$multimap@HU?$pair@P6A?AV?$shared_ptr@VImageTarget@cinder@@@tr1@std@@V?$shared_ptr@VDataTarget@cinder@@@23@V?$shared_ptr@VImageSource@cinder@@@23@VOptions@ImageTarget@cinder@@ABV?$basic_string@DU?$char_traits@D@std@@V?$allocator@D@2@@3@@ZV93@@std@@U?$less@H@2@V?$allocator@U?$pair@$$CBHU?$pair@P6A?AV?$shared_ptr@VImageTarget@cinder@@@tr1@std@@V?$shared_ptr@VDataTarget@cinder@@@23@V?$shared_ptr@VImageSource@cinder@@@23@VOptions@ImageTarget@cinder@@ABV?$basic_string@DU?$char_traits@D@std@@V?$allocator@D@2@@3@@ZV93@@std@@@std@@@2@@2@U?$less@V?$basic_string@DU?$char_traits@D@std@@V?$allocator@D@2@@std@@@2@V?$allocator@U?$pair@$$CBV?$basic_string@DU?$char_traits@D@std@@V?$allocator@D@2@@std@@V?$multimap@HU?$pair@P6A?AV?$shared_ptr@VImageTarget@cinder@@@tr1@std@@V?$shared_ptr@VDataTarget@cinder@@@23@V?$shared_ptr@VImageSource@cinder@@@23@VOptions@ImageTarget@cinder@@ABV?$basic_string@DU?$char_traits@D@std@@V?$allocator@D@2@@3@@ZV93@@std@@U?$less@H@2@V?$allocator@U?$pair@$$CBHU?$pair@P6A?AV?$shared_ptr@VImageTarget@cinder@@@tr1@std@@V?$shared_ptr@VDataTarget@cinder@@@23@V?$shared_ptr@VImageSource@cinder@@@23@VOptions@ImageTarget@cinder@@ABV?$basic_string@DU?$char_traits@D@std@@V?$allocator@D@2@@3@@ZV93@@std@@@std@@@2@@2@@std@@@2@$0A@@std@@@std@@IAE?AV?$_Tree_iterator@V?$_Tree_val@V?$_Tmap_traits@V?$basic_string@DU?$char_traits@D@std@@V?$allocator@D@2@@std@@V?$multimap@HU?$pair@P6A?AV?$shared_ptr@VImageTarget@cinder@@@tr1@std@@V?$shared_ptr@VDataTarget@cinder@@@23@V?$shared_ptr@VImageSource@cinder@@@23@VOptions@ImageTarget@cinder@@ABV?$basic_string@DU?$char_traits@D@std@@V?$allocator@D@2@@3@@ZV93@@std@@U?$less@H@2@V?$allocator@U?$pair@$$CBHU?$pair@P6A?AV?$shared_ptr@VImageTarget@cinder@@@tr1@std@@V?$shared_ptr@VDataTarget@cinder@@@23@V?$shared_ptr@VImageSource@cinder@@@23@VOptions@ImageTarget@cinder@@ABV?$basic_string@DU?$char_traits@D@std@@V?$allocator@D@2@@3@@ZV93@@std@@@std@@@2@@2@U?$less@V?$basic_string@DU?$char_traits@D@std@@V?$allocator@D@2@@std@@@2@V?$allocator@U?$pair@$$CBV?$basic_string@DU?$char_traits@D@std@@V?$allocator@D@2@@std@@V?$multimap@HU?$pair@P6A?AV?$shared_ptr@VImageTarget@cinder@@@tr1@std@@V?$shared_ptr@VDataTarget@cinder@@@23@V?$shared_ptr@VImageSource@cinder@@@23@VOptions@ImageTarget@cinder@@ABV?$basic_string@DU?$char_traits@D@std@@V?$allocator@D@2@@3@@ZV93@@std@@U?$less@H@2@V?$allocator@U?$pair@$$CBHU?$pair@P6A?AV?$shared_ptr@VImageTarget@cinder@@@tr1@std@@V?$shared_ptr@VDataTarget@cinder@@@23@V?$shared_ptr@VImageSource@cinder@@@23@VOptions@ImageTarget@cinder@@ABV?$basic_string@DU?$char_traits@D@std@@V?$allocator@D@2@@3@@ZV93@@std@@@std@@@2@@2@@std@@@2@$0A@@std@@@std@@@2@_NPAU_Node@?$_Tree_nod@V?$_Tmap_traits@V?$basic_string@DU?$char_traits@D@std@@V?$allocator@D@2@@std@@V?$multimap@HU?$pair@P6A?AV?$shared_ptr@VImageTarget@cinder@@@tr1@std@@V?$shared_ptr@VDataTarget@cinder@@@23@V?$shared_ptr@VImageSource@cinder@@@23@VOptions@ImageTarget@cinder@@ABV?$basic_string@DU?$char_traits@D@std@@V?$allocator@D@2@@3@@ZV93@@std@@U?$less@H@2@V?$allocator@U?$pair@$$CBHU?$pair@P6A?AV?$shared_ptr@VImageTarget@cinder@@@tr1@std@@V?$shared_ptr@VDataTarget@cinder@@@23@V?$shared_ptr@VImageSource@cinder@@@23@VOptions@ImageTarget@cinder@@ABV?$basic_string@DU?$char_traits@D@std@@V?$allocator@D@2@@3@@ZV93@@std@@@std@@@2@@2@U?$less@V?$basic_string@DU?$char_traits@D@std@@V?$allocator@D@2@@std@@@2@V?$allocator@U?$pair@$$CBV?$basic_string@DU?$char_traits@D@std@@V?$allocator@D@2@@std@@V?$multimap@HU?$pair@P6A?AV?$shared_ptr@VImageTarget@cinder@@@tr1@std@@V?$shared_ptr@VDataTarget@cinder@@@23@V?$shared_ptr@VImageSource@cinder@@@23@VOptions@ImageTarget@cinder@@ABV?$basic_string@DU?$char_traits@D@std@@V?$allocator@D@2@@3@@ZV93@@std@@U?$less@H@2@V?$allocator@U?$pair@$$CBHU?$pair@P6A?AV?$shared_ptr@VImageTarget@cinder@@@tr1@std@@V?$shared_ptr@VDataTarget@cinder@@@23@V?$shared_ptr@VImageSource@cinder@@@23@VOptions@ImageTarget@cinder@@ABV?$basic_string@DU?$char_traits@D@std@@V?$allocator@D@2@@3@@ZV93@@std@@@std@@@2@@2@@std@@@2@$0A@@std@@@2@1@Z 0043c370 f i cinder:ImageIo.obj
 0001:0003b5a0       ?erase@?$_Tree@V?$_Tmap_traits@V?$basic_string@DU?$char_traits@D@std@@V?$allocator@D@2@@std@@V?$multimap@HU?$pair@P6A?AV?$shared_ptr@VImageTarget@cinder@@@tr1@std@@V?$shared_ptr@VDataTarget@cinder@@@23@V?$shared_ptr@VImageS8de6e224d2e6bfd61b9b6814a738cec7 0043c5a0 f i cinder:ImageIo.obj
 0001:0003b870       ?_Erase@?$_Tree@V?$_Tmap_traits@V?$basic_string@DU?$char_traits@D@std@@V?$allocator@D@2@@std@@V?$multimap@HU?$pair@P6A?AV?$shared_ptr@VImageTarget@cinder@@@tr1@std@@V?$shared_ptr@VDataTarget@cinder@@@23@V?$shared_ptr@VImageSource@cinder@@@23@VOptions@ImageTarget@cinder@@ABV?$basic_string@DU?$char_traits@D@std@@V?$allocator@D@2@@3@@ZV93@@std@@U?$less@H@2@V?$allocator@U?$pair@$$CBHU?$pair@P6A?AV?$shared_ptr@VImageTarget@cinder@@@tr1@std@@V?$shared_ptr@VDataTarget@cinder@@@23@V?$shared_ptr@VImageSource@cinder@@@23@VOptions@ImageTarget@cinder@@ABV?$basic_string@DU?$char_traits@D@std@@V?$allocator@D@2@@3@@ZV93@@std@@@std@@@2@@2@U?$less@V?$basic_string@DU?$char_traits@D@std@@V?$allocator@D@2@@std@@@2@V?$allocator@U?$pair@$$CBV?$basic_string@DU?$char_traits@D@std@@V?$allocator@D@2@@std@@V?$multimap@HU?$pair@P6A?AV?$shared_ptr@VImageTarget@cinder@@@tr1@std@@V?$shared_ptr@VDataTarget@cinder@@@23@V?$shared_ptr@VImageSource@cinder@@@23@VOptions@ImageTarget@cinder@@ABV?$basic_string@DU?$char_traits@D@std@@V?$allocator@D@2@@3@@ZV93@@std@@U?$less@H@2@V?$allocator@U?$pair@$$CBHU?$pair@P6A?AV?$shared_ptr@VImageTarget@cinder@@@tr1@std@@V?$shared_ptr@VDataTarget@cinder@@@23@V?$shared_ptr@VImageSource@cinder@@@23@VOptions@ImageTarget@cinder@@ABV?$basic_string@DU?$char_traits@D@std@@V?$allocator@D@2@@3@@ZV93@@std@@@std@@@2@@2@@std@@@2@$0A@@std@@@std@@IAEXPAU_Node@?$_Tree_nod@V?$_Tmap_traits@V?$basic_string@DU?$char_traits@D@std@@V?$allocator@D@2@@std@@V?$multimap@HU?$pair@P6A?AV?$shared_ptr@VImageTarget@cinder@@@tr1@std@@V?$shared_ptr@VDataTarget@cinder@@@23@V?$shared_ptr@VImageSource@cinder@@@23@VOptions@ImageTarget@cinder@@ABV?$basic_string@DU?$char_traits@D@std@@V?$allocator@D@2@@3@@ZV93@@std@@U?$less@H@2@V?$allocator@U?$pair@$$CBHU?$pair@P6A?AV?$shared_ptr@VImageTarget@cinder@@@tr1@std@@V?$shared_ptr@VDataTarget@cinder@@@23@V?$shared_ptr@VImageSource@cinder@@@23@VOptions@ImageTarget@cinder@@ABV?$basic_string@DU?$char_traits@D@std@@V?$allocator@D@2@@3@@ZV93@@std@@@std@@@2@@2@U?$less@V?$basic_string@DU?$char_traits@D@std@@V?$allocator@D@2@@std@@@2@V?$allocator@U?$pair@$$CBV?$basic_string@DU?$char_traits@D@std@@V?$allocator@D@2@@std@@V?$multimap@HU?$pair@P6A?AV?$shared_ptr@VImageTarget@cinder@@@tr1@std@@V?$shared_ptr@VDataTarget@cinder@@@23@V?$shared_ptr@VImageSource@cinder@@@23@VOptions@ImageTarget@cinder@@ABV?$basic_string@DU?$char_traits@D@std@@V?$allocator@D@2@@3@@ZV93@@std@@U?$less@H@2@V?$allocator@U?$pair@$$CBHU?$pair@P6A?AV?$shared_ptr@VImageTarget@cinder@@@tr1@std@@V?$shared_ptr@VDataTarget@cinder@@@23@V?$shared_ptr@VImageSource@cinder@@@23@VOptions@ImageTarget@cinder@@ABV?$basic_string@DU?$char_traits@D@std@@V?$allocator@D@2@@3@@ZV93@@std@@@std@@@2@@2@@std@@@2@$0A@@std@@@2@@Z 0043c870 f i cinder:ImageIo.obj
 0001:0003b950       ?_Linsert@?$_Tree@V?$_Tmap_traits@V?$basic_string@DU?$char_traits@D@std@@V?$allocator@D@2@@std@@V?$multimap@HU?$pair@P6A?AV?$shared_ptr@VImageTarget@cinder@@@tr1@std@@V?$shared_ptr@VDataTarget@cinder@@@23@V?$shared_ptr@VIma35db66e00551a5ac0eb0b1d003874bcc 0043c950 f i cinder:ImageIo.obj
 0001:0003bb00       ?registerTargetType@Inst@ImageIoRegistrar@cinder@@QAEXV?$basic_string@DU?$char_traits@D@std@@V?$allocator@D@2@@std@@P6A?AV?$shared_ptr@VImageTarget@cinder@@@tr1@5@V?$shared_ptr@VDataTarget@cinder@@@75@V?$shared_ptr@VImageSource@cinder@@@75@VOptions@ImageTarget@3@ABV45@@ZH4@Z 0043cb00 f   cinder:ImageIo.obj
 0001:0003be20       ?erase@?$_Tree@V?$_Tmap_traits@V?$basic_string@DU?$char_traits@D@std@@V?$allocator@D@2@@std@@V?$multimap@HU?$pair@P6A?AV?$shared_ptr@VImageTarget@cinder@@@tr1@std@@V?$shared_ptr@VDataTarget@cinder@@@23@V?$shared_ptr@VImageSda3424650875b2c85800043577b5cf4c 0043ce20 f i cinder:ImageIo.obj
 0001:0003bee0       ??1Inst@ImageIoRegistrar@cinder@@QAE@XZ 0043cee0 f i cinder:ImageIo.obj
 0001:0003bfa0       ??0Inst@ImageIoRegistrar@cinder@@QAE@XZ 0043cfa0 f i cinder:ImageIo.obj
 0001:0003c0f0       ?_Destroy@?$_Ref_count@UInst@ImageIoRegistrar@cinder@@@tr1@std@@EAEXXZ 0043d0f0 f i cinder:ImageIo.obj
 0001:0003c110       ??$_Resetp@UInst@ImageIoRegistrar@cinder@@@?$shared_ptr@UInst@ImageIoRegistrar@cinder@@@tr1@std@@AAEXPAUInst@ImageIoRegistrar@cinder@@@Z 0043d110 f i cinder:ImageIo.obj
 0001:0003c1b0       ?instance@ImageIoRegistrar@cinder@@CAPAUInst@12@XZ 0043d1b0 f   cinder:ImageIo.obj
 0001:0003c2a0       ?createTarget@ImageIoRegistrar@cinder@@SA?AV?$shared_ptr@VImageTarget@cinder@@@tr1@std@@V?$shared_ptr@VDataTarget@cinder@@@45@V?$shared_ptr@VImageSource@cinder@@@45@VOptions@ImageTarget@2@V?$basic_string@DU?$char_traits@D@std@@V?$allocator@D@2@@5@@Z 0043d2a0 f   cinder:ImageIo.obj
 0001:0003c3f0       ?registerTargetType@ImageIoRegistrar@cinder@@SAXV?$basic_string@DU?$char_traits@D@std@@V?$allocator@D@2@@std@@P6A?AV?$shared_ptr@VImageTarget@cinder@@@tr1@4@V?$shared_ptr@VDataTarget@cinder@@@64@V?$shared_ptr@VImageSource@cinder@@@64@VOptions@ImageTarget@2@ABV34@@ZH4@Z 0043d3f0 f   cinder:ImageIo.obj
 0001:0003c490       ?registerSourceGeneric@ImageIoRegistrar@cinder@@SAXP6A?AV?$shared_ptr@VImageSource@cinder@@@tr1@std@@V?$shared_ptr@VDataSource@cinder@@@45@VOptions@ImageSource@2@@ZH@Z 0043d490 f   cinder:ImageIo.obj
 0001:0003c4d0       ?writeImage@cinder@@YAXV?$shared_ptr@VDataTarget@cinder@@@tr1@std@@ABV?$shared_ptr@VImageSource@cinder@@@34@VOptions@ImageTarget@1@V?$basic_string@DU?$char_traits@D@std@@V?$allocator@D@2@@4@@Z 0043d4d0 f   cinder:ImageIo.obj
 0001:0003c6a0       ??0ImageIoExceptionUnknownExtension@cinder@@QAE@ABV01@@Z 0043d6a0 f i cinder:ImageIo.obj
 0001:0003c6c0       ?writeImage@cinder@@YAXABV?$basic_string@DU?$char_traits@D@std@@V?$allocator@D@2@@std@@ABV?$shared_ptr@VImageSource@cinder@@@tr1@3@VOptions@ImageTarget@1@V23@@Z 0043d6c0 f   cinder:ImageIo.obj
 0001:0003c7c0       ?_Reset0@?$_Ptr_base@VImageTarget@cinder@@@tr1@std@@QAEXPAVImageTarget@cinder@@PAV_Ref_count_base@23@@Z 0043d7c0 f i cinder:Surface.obj
 0001:0003c7c0       ?_Reset0@?$_Ptr_base@VOStream@cinder@@@tr1@std@@QAEXPAVOStream@cinder@@PAV_Ref_count_base@23@@Z 0043d7c0 f i cinder:ImageTargetFileWic.obj
 0001:0003c7c0       ?_Reset0@?$_Ptr_base@UObj@Buffer@cinder@@@tr1@std@@QAEXPAUObj@Buffer@cinder@@PAV_Ref_count_base@23@@Z 0043d7c0 f i cinder:Xml.obj
 0001:0003c7c0       ?_Reset0@?$_Ptr_base@UObj@Texture@gl@cinder@@@tr1@std@@QAEXPAUObj@Texture@gl@cinder@@PAV_Ref_count_base@23@@Z 0043d7c0 f i ThreeDeeApp.obj
 0001:0003c7c0       ?_Reset0@?$_Ptr_base@VRenderer@app@cinder@@@tr1@std@@QAEXPAVRenderer@app@cinder@@PAV_Ref_count_base@23@@Z 0043d7c0 f i cinder:App.obj
 0001:0003c7c0       ?_Reset0@?$_Ptr_base@UObj@GlslProg@gl@cinder@@@tr1@std@@QAEXPAUObj@GlslProg@gl@cinder@@PAV_Ref_count_base@23@@Z 0043d7c0 f i ThreeDeeApp.obj
 0001:0003c7c0       ?_Reset0@?$_Ptr_base@VDataSourcePath@cinder@@@tr1@std@@QAEXPAVDataSourcePath@cinder@@PAV_Ref_count_base@23@@Z 0043d7c0 f i cinder:DataSource.obj
 0001:0003c7c0       ?_Reset0@?$_Ptr_base@UIWICImagingFactory@@@tr1@std@@QAEXPAUIWICImagingFactory@@PAV_Ref_count_base@23@@Z 0043d7c0 f i cinder:ImageSourceFileWic.obj
 0001:0003c7c0       ?_Reset0@?$_Ptr_base@VDataSource@cinder@@@tr1@std@@QAEXPAVDataSource@cinder@@PAV_Ref_count_base@23@@Z 0043d7c0 f i ThreeDeeApp.obj
 0001:0003c7c0       ?_Reset0@?$_Ptr_base@UIWICBitmapFrameDecode@@@tr1@std@@QAEXPAUIWICBitmapFrameDecode@@PAV_Ref_count_base@23@@Z 0043d7c0 f i cinder:ImageSourceFileWic.obj
 0001:0003c7c0       ?_Reset0@?$_Ptr_base@UIWICBitmapEncoder@@@tr1@std@@QAEXPAUIWICBitmapEncoder@@PAV_Ref_count_base@23@@Z 0043d7c0 f i cinder:ImageTargetFileWic.obj
 0001:0003c7c0       ?_Reset0@?$_Ptr_base@D@tr1@std@@QAEXPADPAV_Ref_count_base@23@@Z 0043d7c0 f i cinder:Xml.obj
 0001:0003c7c0       ?_Reset0@?$_Ptr_base@UIWICStream@@@tr1@std@@QAEXPAUIWICStream@@PAV_Ref_count_base@23@@Z 0043d7c0 f i cinder:ImageSourceFileWic.obj
 0001:0003c7c0       ?_Reset0@?$_Ptr_base@VOStreamFile@cinder@@@tr1@std@@QAEXPAVOStreamFile@cinder@@PAV_Ref_count_base@23@@Z 0043d7c0 f i cinder:Stream.obj
 0001:0003c7c0       ?_Reset0@?$_Ptr_base@UObj@?$ChannelT@E@cinder@@@tr1@std@@QAEXPAUObj@?$ChannelT@E@cinder@@PAV_Ref_count_base@23@@Z 0043d7c0 f i cinder:Surface.obj
 0001:0003c7c0       ?_Reset0@?$_Ptr_base@VIStreamFile@cinder@@@tr1@std@@QAEXPAVIStreamFile@cinder@@PAV_Ref_count_base@23@@Z 0043d7c0 f i cinder:Stream.obj
 0001:0003c7c0       ?_Reset0@?$_Ptr_base@UObj@Fbo@gl@cinder@@@tr1@std@@QAEXPAUObj@Fbo@gl@cinder@@PAV_Ref_count_base@23@@Z 0043d7c0 f i ThreeDeeApp.obj
 0001:0003c7c0       ?_Reset0@?$_Ptr_base@UIWICBitmapFrameEncode@@@tr1@std@@QAEXPAUIWICBitmapFrameEncode@@PAV_Ref_count_base@23@@Z 0043d7c0 f i cinder:ImageTargetFileWic.obj
 0001:0003c7c0       ?_Reset0@?$_Ptr_base@UInst@ImageIoRegistrar@cinder@@@tr1@std@@QAEXPAUInst@ImageIoRegistrar@cinder@@PAV_Ref_count_base@23@@Z 0043d7c0 f i cinder:ImageIo.obj
 0001:0003c7c0       ?_Reset0@?$_Ptr_base@V?$map@V?$basic_string@DU?$char_traits@D@std@@V?$allocator@D@2@@std@@PBU_GUID@@U?$less@V?$basic_string@DU?$char_traits@D@std@@V?$allocator@D@2@@std@@@2@V?$allocator@U?$pair@$$CBV?$basic_string@DU?$char_traits@D@std@@V?$allocator@D@2@@std@@PBU_GUID@@@std@@@2@@std@@@tr1@std@@QAEXPAV?$map@V?$basic_string@DU?$char_traits@D@std@@V?$allocator@D@2@@std@@PBU_GUID@@U?$less@V?$basic_string@DU?$char_traits@D@std@@V?$allocator@D@2@@std@@@2@V?$allocator@U?$pair@$$CBV?$basic_string@DU?$char_traits@D@std@@V?$allocator@D@2@@std@@PBU_GUID@@@std@@@2@@3@PAV_Ref_count_base@23@@Z 0043d7c0 f i cinder:ImageTargetFileWic.obj
 0001:0003c7c0       ?_Reset0@?$_Ptr_base@E@tr1@std@@QAEXPAEPAV_Ref_count_base@23@@Z 0043d7c0 f i cinder:Texture.obj
 0001:0003c7c0       ?_Reset0@?$_Ptr_base@VDataTarget@cinder@@@tr1@std@@QAEXPAVDataTarget@cinder@@PAV_Ref_count_base@23@@Z 0043d7c0 f i cinder:ImageIo.obj
 0001:0003c7c0       ?_Reset0@?$_Ptr_base@UObj@?$SurfaceT@E@cinder@@@tr1@std@@QAEXPAUObj@?$SurfaceT@E@cinder@@PAV_Ref_count_base@23@@Z 0043d7c0 f i cinder:Renderer.obj
 0001:0003c7c0       ?_Reset0@?$_Ptr_base@UIWICFormatConverter@@@tr1@std@@QAEXPAUIWICFormatConverter@@PAV_Ref_count_base@23@@Z 0043d7c0 f i cinder:ImageSourceFileWic.obj
 0001:0003c7c0       ?_Reset0@?$_Ptr_base@UIWICBitmapDecoder@@@tr1@std@@QAEXPAUIWICBitmapDecoder@@PAV_Ref_count_base@23@@Z 0043d7c0 f i cinder:ImageSourceFileWic.obj
 0001:0003c7c0       ?_Reset0@?$_Ptr_base@VImageSourceFileWic@cinder@@@tr1@std@@QAEXPAVImageSourceFileWic@cinder@@PAV_Ref_count_base@23@@Z 0043d7c0 f i cinder:ImageSourceFileWic.obj
 0001:0003c7c0       ?_Reset0@?$_Ptr_base@VImageSource@cinder@@@tr1@std@@QAEXPAVImageSource@cinder@@PAV_Ref_count_base@23@@Z 0043d7c0 f i cinder:Surface.obj
 0001:0003c7c0       ?_Reset0@?$_Ptr_base@VIStream@cinder@@@tr1@std@@QAEXPAVIStream@cinder@@PAV_Ref_count_base@23@@Z 0043d7c0 f i cinder:DataSource.obj
 0001:0003c7c0       ?_Reset0@?$_Ptr_base@UObj@Renderbuffer@gl@cinder@@@tr1@std@@QAEXPAUObj@Renderbuffer@gl@cinder@@PAV_Ref_count_base@23@@Z 0043d7c0 f i cinder:Fbo.obj
 0001:0003c7c0       ?_Reset0@?$_Ptr_base@VComOStream@msw@cinder@@@tr1@std@@QAEXPAVComOStream@msw@cinder@@PAV_Ref_count_base@23@@Z 0043d7c0 f i cinder:ImageTargetFileWic.obj
 0001:0003c7c0       ?_Reset0@?$_Ptr_base@UtagTOUCHINPUT@@@tr1@std@@QAEXPAUtagTOUCHINPUT@@PAV_Ref_count_base@23@@Z 0043d7c0 f i cinder:AppImplMswBasic.obj
 0001:0003c7c0       ?_Reset0@?$_Ptr_base@VDataTargetPath@cinder@@@tr1@std@@QAEXPAVDataTargetPath@cinder@@PAV_Ref_count_base@23@@Z 0043d7c0 f i cinder:DataTarget.obj
 0001:0003c7c0       ?_Reset0@?$_Ptr_base@VDisplay@cinder@@@tr1@std@@QAEXPAVDisplay@cinder@@PAV_Ref_count_base@23@@Z 0043d7c0 f i cinder:Display.obj
 0001:0003c830       ?getBuffer@DataSource@cinder@@QAEAAVBuffer@2@XZ 0043d830 f   cinder:DataSource.obj
 0001:0003c850       ??1Texture@gl@cinder@@QAE@XZ 0043d850 f i ThreeDeeApp.obj
 0001:0003c850       ??1?$shared_ptr@VComOStream@msw@cinder@@@tr1@std@@QAE@XZ 0043d850 f i cinder:ImageTargetFileWic.obj
 0001:0003c850       ??1?$shared_ptr@VDataTargetPath@cinder@@@tr1@std@@QAE@XZ 0043d850 f i cinder:ImageIo.obj
 0001:0003c850       ??1?$shared_ptr@UIWICFormatConverter@@@tr1@std@@QAE@XZ 0043d850 f i cinder:ImageSourceFileWic.obj
 0001:0003c850       ??1Renderbuffer@gl@cinder@@QAE@XZ 0043d850 f i cinder:Fbo.obj
 0001:0003c850       ??1?$shared_ptr@UObj@Texture@gl@cinder@@@tr1@std@@QAE@XZ 0043d850 f i ThreeDeeApp.obj
 0001:0003c850       ??1?$shared_ptr@UObj@?$SurfaceT@E@cinder@@@tr1@std@@QAE@XZ 0043d850 f i ThreeDeeApp.obj
 0001:0003c850       ??1?$shared_ptr@VDataSourcePath@cinder@@@tr1@std@@QAE@XZ 0043d850 f i ThreeDeeApp.obj
 0001:0003c850       ??1?$shared_ptr@V?$basic_dostream@DU?$char_traits@D@std@@@msw@cinder@@@tr1@std@@QAE@XZ 0043d850 f i cinder:App.obj
 0001:0003c850       ??1?$shared_ptr@UIWICBitmapEncoder@@@tr1@std@@QAE@XZ 0043d850 f i cinder:ImageTargetFileWic.obj
 0001:0003c850       ??1?$shared_ptr@VDataSource@cinder@@@tr1@std@@QAE@XZ 0043d850 f i ThreeDeeApp.obj
 0001:0003c850       ??1?$shared_ptr@VOStream@cinder@@@tr1@std@@QAE@XZ 0043d850 f i cinder:Xml.obj
 0001:0003c850       ??1?$shared_ptr@UIWICImagingFactory@@@tr1@std@@QAE@XZ 0043d850 f i cinder:ImageSourceFileWic.obj
 0001:0003c850       ??1?$SurfaceT@G@cinder@@QAE@XZ 0043d850 f i cinder:Surface.obj
 0001:0003c850       ??1?$shared_ptr@VImageSourceFileWic@cinder@@@tr1@std@@QAE@XZ 0043d850 f i cinder:ImageSourceFileWic.obj
 0001:0003c850       ??1?$shared_ptr@UObj@Fbo@gl@cinder@@@tr1@std@@QAE@XZ 0043d850 f i ThreeDeeApp.obj
 0001:0003c850       ??1?$shared_ptr@E@tr1@std@@QAE@XZ 0043d850 f i cinder:Texture.obj
 0001:0003c850       ??1?$shared_ptr@VImageTarget@cinder@@@tr1@std@@QAE@XZ 0043d850 f i cinder:Surface.obj
 0001:0003c850       ??1?$shared_ptr@UIWICBitmapFrameDecode@@@tr1@std@@QAE@XZ 0043d850 f i cinder:ImageSourceFileWic.obj
 0001:0003c850       ??1?$shared_ptr@UInst@ImageIoRegistrar@cinder@@@tr1@std@@QAE@XZ 0043d850 f i cinder:ImageIo.obj
 0001:0003c850       ??1?$shared_ptr@UObj@GlslProg@gl@cinder@@@tr1@std@@QAE@XZ 0043d850 f i ThreeDeeApp.obj
 0001:0003c850       ??1?$shared_ptr@VImageSource@cinder@@@tr1@std@@QAE@XZ 0043d850 f i ThreeDeeApp.obj
 0001:0003c850       ??1Fbo@gl@cinder@@QAE@XZ   0043d850 f i ThreeDeeApp.obj
 0001:0003c850       ??1?$shared_ptr@VRenderer@app@cinder@@@tr1@std@@QAE@XZ 0043d850 f i cinder:App.obj
 0001:0003c850       ??1?$shared_ptr@D@tr1@std@@QAE@XZ 0043d850 f i cinder:Xml.obj
 0001:0003c850       ??1?$shared_ptr@UtagTOUCHINPUT@@@tr1@std@@QAE@XZ 0043d850 f i cinder:AppImplMswBasic.obj
 0001:0003c850       ??1?$shared_ptr@VDisplay@cinder@@@tr1@std@@QAE@XZ 0043d850 f i cinder:AppBasic.obj
 0001:0003c850       ??1?$shared_ptr@VOStreamFile@cinder@@@tr1@std@@QAE@XZ 0043d850 f i cinder:Stream.obj
 0001:0003c850       ??1?$shared_ptr@UIWICBitmapDecoder@@@tr1@std@@QAE@XZ 0043d850 f i cinder:ImageSourceFileWic.obj
 0001:0003c850       ??1?$shared_ptr@VIStreamFile@cinder@@@tr1@std@@QAE@XZ 0043d850 f i cinder:DataSource.obj
 0001:0003c850       ??1?$SurfaceT@E@cinder@@QAE@XZ 0043d850 f i ThreeDeeApp.obj
 0001:0003c850       ??1?$shared_ptr@V?$map@V?$basic_string@DU?$char_traits@D@std@@V?$allocator@D@2@@std@@PBU_GUID@@U?$less@V?$basic_string@DU?$char_traits@D@std@@V?$allocator@D@2@@std@@@2@V?$allocator@U?$pair@$$CBV?$basic_string@DU?$char_traits@D@std@@V?$allocator@D@2@@std@@PBU_GUID@@@std@@@2@@std@@@tr1@std@@QAE@XZ 0043d850 f i cinder:ImageTargetFileWic.obj
 0001:0003c850       ??1?$shared_ptr@UIWICStream@@@tr1@std@@QAE@XZ 0043d850 f i cinder:ImageSourceFileWic.obj
 0001:0003c850       ??1?$SurfaceT@M@cinder@@QAE@XZ 0043d850 f i cinder:Surface.obj
 0001:0003c850       ??1?$shared_ptr@VDataTarget@cinder@@@tr1@std@@QAE@XZ 0043d850 f i cinder:Xml.obj
 0001:0003c850       ??1?$ChannelT@E@cinder@@QAE@XZ 0043d850 f i cinder:Surface.obj
 0001:0003c850       ??1?$shared_ptr@UIWICBitmapFrameEncode@@@tr1@std@@QAE@XZ 0043d850 f i cinder:ImageTargetFileWic.obj
 0001:0003c850       ??1Buffer@cinder@@QAE@XZ   0043d850 f i cinder:Xml.obj
 0001:0003c850       ??1?$shared_ptr@VIStream@cinder@@@tr1@std@@QAE@XZ 0043d850 f i cinder:Texture.obj
 0001:0003c890       ?createStream@DataSourcePath@cinder@@UAE?AV?$shared_ptr@VIStream@cinder@@@tr1@std@@XZ 0043d890 f   cinder:DataSource.obj
 0001:0003c940       ??$_Resetp@VDataSourcePath@cinder@@@?$shared_ptr@VDataSourcePath@cinder@@@tr1@std@@AAEXPAVDataSourcePath@cinder@@@Z 0043d940 f i cinder:DataSource.obj
 0001:0003c9e0       ??1DataSource@cinder@@MAE@XZ 0043d9e0 f i cinder:DataSource.obj
 0001:0003ca80       ??_EDataSource@cinder@@MAEPAXI@Z 0043da80 f i cinder:DataSource.obj
 0001:0003ca80       ??_GDataSource@cinder@@MAEPAXI@Z 0043da80 f i cinder:DataSource.obj
 0001:0003cab0       ?createBuffer@DataSourcePath@cinder@@MAEXXZ 0043dab0 f   cinder:DataSource.obj
 0001:0003cbd0       ??0StreamExc@cinder@@QAE@ABV01@@Z 0043dbd0 f i cinder:DataSource.obj
 0001:0003cbf0       ??0DataSource@cinder@@IAE@ABV?$basic_string@DU?$char_traits@D@std@@V?$allocator@D@2@@std@@ABVUrl@1@@Z 0043dbf0 f i cinder:DataSource.obj
 0001:0003cc90       ??0DataSourcePath@cinder@@IAE@ABV?$basic_string@DU?$char_traits@D@std@@V?$allocator@D@2@@std@@@Z 0043dc90 f   cinder:DataSource.obj
 0001:0003cd30       ??_EDataSourcePath@cinder@@UAEPAXI@Z 0043dd30 f i cinder:DataSource.obj
 0001:0003cd30       ??_GDataSourcePath@cinder@@UAEPAXI@Z 0043dd30 f i cinder:DataSource.obj
 0001:0003cdd0       ?createRef@DataSourcePath@cinder@@SA?AV?$shared_ptr@VDataSourcePath@cinder@@@tr1@std@@ABV?$basic_string@DU?$char_traits@D@std@@V?$allocator@D@2@@5@@Z 0043ddd0 f   cinder:DataSource.obj
 0001:0003ce60       ?loadFile@cinder@@YA?AV?$shared_ptr@VDataSourcePath@cinder@@@tr1@std@@ABV?$basic_string@DU?$char_traits@D@std@@V?$allocator@D@2@@4@@Z 0043de60 f   cinder:DataSource.obj
 0001:0003ce90       ??0Exception@cinder@@QAE@XZ 0043de90 f   cinder:Exception.obj
 0001:0003ceb0       ??1OStream@cinder@@UAE@XZ  0043deb0 f i cinder:Stream.obj
 0001:0003ced0       ??1IStream@cinder@@UAE@XZ  0043ded0 f i cinder:Stream.obj
 0001:0003cef0       ?writeData@OStream@cinder@@QAEXPBXI@Z 0043def0 f   cinder:Stream.obj
 0001:0003cf00       ?readDataAvailable@IStreamFile@cinder@@UAEIPAXI@Z 0043df00 f   cinder:Stream.obj
 0001:0003cf40       ?seekRelative@IStreamFile@cinder@@UAEXJ@Z 0043df40 f   cinder:Stream.obj
 0001:0003cfa0       ?tell@IStreamFile@cinder@@UBEJXZ 0043dfa0 f   cinder:Stream.obj
 0001:0003cfb0       ?size@IStreamFile@cinder@@UBEJXZ 0043dfb0 f   cinder:Stream.obj
 0001:0003d000       ?isEof@IStreamFile@cinder@@UBE_NXZ 0043e000 f   cinder:Stream.obj
 0001:0003d030       ?tell@OStreamFile@cinder@@UBEJXZ 0043e030 f   cinder:Stream.obj
 0001:0003d040       ?seekAbsolute@OStreamFile@cinder@@UAEXJ@Z 0043e040 f   cinder:Stream.obj
 0001:0003d090       ?seekRelative@OStreamFile@cinder@@UAEXJ@Z 0043e090 f   cinder:Stream.obj
 0001:0003d0b0       ?IOWrite@OStreamFile@cinder@@MAEXPBXI@Z 0043e0b0 f   cinder:Stream.obj
 0001:0003d100       ?_Destroy@?$_Ref_count@VOStreamFile@cinder@@@tr1@std@@EAEXXZ 0043e100 f i cinder:Stream.obj
 0001:0003d100       ?_Destroy@?$_Ref_count@VIStreamFile@cinder@@@tr1@std@@EAEXXZ 0043e100 f i cinder:Stream.obj
 0001:0003d120       ?seekAbsolute@IStreamFile@cinder@@UAEXJ@Z 0043e120 f   cinder:Stream.obj
 0001:0003d180       ??1OStreamFile@cinder@@UAE@XZ 0043e180 f   cinder:Stream.obj
 0001:0003d230       ?seekAbsolute@OStreamFile@cinder@@$4PPPPPPPM@A@AEXJ@Z 0043e230 f i cinder:Stream.obj
 0001:0003d240       ?tell@OStreamFile@cinder@@$4PPPPPPPM@A@BEJXZ 0043e240 f i cinder:Stream.obj
 0001:0003d250       ??_EOStreamFile@cinder@@$4PPPPPPPM@A@AEPAXI@Z 0043e250 f i cinder:Stream.obj
 0001:0003d260       ?seekRelative@OStreamFile@cinder@@$4PPPPPPPM@A@AEXJ@Z 0043e260 f i cinder:Stream.obj
 0001:0003d270       ?IORead@IStreamFile@cinder@@MAEXPAXI@Z 0043e270 f   cinder:Stream.obj
 0001:0003d3b0       ??1IStreamFile@cinder@@UAE@XZ 0043e3b0 f   cinder:Stream.obj
 0001:0003d490       ?tell@IStreamFile@cinder@@$4PPPPPPPM@A@BEJXZ 0043e490 f i cinder:Stream.obj
 0001:0003d4a0       ??_EIStreamFile@cinder@@$4PPPPPPPM@A@AEPAXI@Z 0043e4a0 f i cinder:Stream.obj
 0001:0003d4b0       ?seekRelative@IStreamFile@cinder@@$4PPPPPPPM@A@AEXJ@Z 0043e4b0 f i cinder:Stream.obj
 0001:0003d4c0       ?seekAbsolute@IStreamFile@cinder@@$4PPPPPPPM@A@AEXJ@Z 0043e4c0 f i cinder:Stream.obj
 0001:0003d4d0       ??$_Resetp@VIStreamFile@cinder@@@?$shared_ptr@VIStreamFile@cinder@@@tr1@std@@AAEXPAVIStreamFile@cinder@@@Z 0043e4d0 f i cinder:Stream.obj
 0001:0003d570       ??$_Resetp@VOStreamFile@cinder@@@?$shared_ptr@VOStreamFile@cinder@@@tr1@std@@AAEXPAVOStreamFile@cinder@@@Z 0043e570 f i cinder:Stream.obj
 0001:0003d610       ??1StreamBase@cinder@@UAE@XZ 0043e610 f i cinder:Stream.obj
 0001:0003d640       ??_GStreamBase@cinder@@UAEPAXI@Z 0043e640 f i cinder:Stream.obj
 0001:0003d640       ??_EStreamBase@cinder@@UAEPAXI@Z 0043e640 f i cinder:Stream.obj
 0001:0003d690       ??_GOStream@cinder@@UAEPAXI@Z 0043e690 f i cinder:Stream.obj
 0001:0003d690       ??_EOStream@cinder@@UAEPAXI@Z 0043e690 f i cinder:Stream.obj
 0001:0003d6f0       ??_EIStream@cinder@@UAEPAXI@Z 0043e6f0 f i cinder:Stream.obj
 0001:0003d6f0       ??_GIStream@cinder@@UAEPAXI@Z 0043e6f0 f i cinder:Stream.obj
 0001:0003d750       ??_EIStreamFile@cinder@@UAEPAXI@Z 0043e750 f i cinder:Stream.obj
 0001:0003d750       ??_GIStreamFile@cinder@@UAEPAXI@Z 0043e750 f i cinder:Stream.obj
 0001:0003d7a0       ?createRef@OStreamFile@cinder@@SA?AV?$shared_ptr@VOStreamFile@cinder@@@tr1@std@@PAU_iobuf@@_N@Z 0043e7a0 f   cinder:Stream.obj
 0001:0003d840       ??_GOStreamFile@cinder@@UAEPAXI@Z 0043e840 f i cinder:Stream.obj
 0001:0003d840       ??_EOStreamFile@cinder@@UAEPAXI@Z 0043e840 f i cinder:Stream.obj
 0001:0003d890       ??0IStreamFile@cinder@@IAE@PAU_iobuf@@_NH@Z 0043e890 f   cinder:Stream.obj
 0001:0003d9d0       ??0StreamExcOutOfMemory@cinder@@QAE@ABV01@@Z 0043e9d0 f i cinder:Stream.obj
 0001:0003d9f0       ?loadStreamBuffer@cinder@@YA?AVBuffer@1@V?$shared_ptr@VIStream@cinder@@@tr1@std@@@Z 0043e9f0 f   cinder:Stream.obj
 0001:0003dc60       ?createRef@IStreamFile@cinder@@SA?AV?$shared_ptr@VIStreamFile@cinder@@@tr1@std@@PAU_iobuf@@_NH@Z 0043ec60 f   cinder:Stream.obj
 0001:0003dcf0       ?loadFileStream@cinder@@YA?AV?$shared_ptr@VIStreamFile@cinder@@@tr1@std@@ABV?$basic_string@DU?$char_traits@D@std@@V?$allocator@D@2@@4@@Z 0043ecf0 f   cinder:Stream.obj
 0001:0003ddf0       ?writeFileStream@cinder@@YA?AV?$shared_ptr@VOStreamFile@cinder@@@tr1@std@@ABV?$basic_string@DU?$char_traits@D@std@@V?$allocator@D@2@@4@_N@Z 0043edf0 f   cinder:Stream.obj
 0001:0003df60       ??0AppImplMswRendererGl@app@cinder@@QAE@PAVApp@12@PAVRendererGl@12@@Z 0043ef60 f   cinder:AppImplMswRendererGl.obj
 0001:0003df90       ?prepareToggleFullScreen@AppImplMswRendererGl@app@cinder@@UAEXXZ 0043ef90 f   cinder:AppImplMswRendererGl.obj
 0001:0003dfa0       ?finishToggleFullScreen@AppImplMswRendererGl@app@cinder@@UAEXXZ 0043efa0 f   cinder:AppImplMswRendererGl.obj
 0001:0003dfb0       ?swapBuffers@AppImplMswRendererGl@app@cinder@@UBEXXZ 0043efb0 f   cinder:AppImplMswRendererGl.obj
 0001:0003dfc0       ?makeCurrentContext@AppImplMswRendererGl@app@cinder@@UAEXXZ 0043efc0 f   cinder:AppImplMswRendererGl.obj
 0001:0003dfd0       ?createDummyWindow@app@cinder@@YAPAUHWND__@@PAH0_N@Z 0043efd0 f   cinder:AppImplMswRendererGl.obj
 0001:0003e160       ?initMultisample@AppImplMswRendererGl@app@cinder@@IAEHUtagPIXELFORMATDESCRIPTOR@@HPAUHDC__@@@Z 0043f160 f   cinder:AppImplMswRendererGl.obj
 0001:0003e290       ?kill@AppImplMswRendererGl@app@cinder@@UAEXXZ 0043f290 f   cinder:AppImplMswRendererGl.obj
 0001:0003e2c0       ?defaultResize@AppImplMswRendererGl@app@cinder@@UBEXXZ 0043f2c0 f   cinder:AppImplMswRendererGl.obj
 0001:0003e3d0       ?initializeInternal@AppImplMswRendererGl@app@cinder@@IAE_NPAUHWND__@@PAUHDC__@@@Z 0043f3d0 f   cinder:AppImplMswRendererGl.obj
 0001:0003e4d0       ?initialize@AppImplMswRendererGl@app@cinder@@UAE_NPAUHWND__@@PAUHDC__@@@Z 0043f4d0 f   cinder:AppImplMswRendererGl.obj
 0001:0003e590       ??$flipVertical@E@ip@cinder@@YAXPAV?$SurfaceT@E@1@@Z 0043f590 f i cinder:Flip.obj
 0001:0003e630       ?getSeconds@Timer@cinder@@QBENXZ 0043f630 f   cinder:Timer.obj
 0001:0003e670       ??0Timer@cinder@@QAE@_N@Z  0043f670 f   cinder:Timer.obj
 0001:0003e6d0       ??1AppImplMsw@app@cinder@@UAE@XZ 0043f6d0 f   cinder:AppImplMsw.obj
 0001:0003e6e0       ?storeXML@CustomFn@gizmo@zugster@@UBEXAAV?$basic_ostream@DU?$char_traits@D@std@@@std@@@Z 0043f6e0 f i ThreeDeeApp.obj
 0001:0003e6e0       ?setFilled@CommandBase@gizmo@zugster@@UAEX_N@Z 0043f6e0 f i ThreeDeeApp.obj
 0001:0003e6e0       ?setOutline@CommandBase@gizmo@zugster@@UAEX_N@Z 0043f6e0 f i ThreeDeeApp.obj
 0001:0003e6e0       ?setDisplayState@CommandBase@gizmo@zugster@@UAEXW4DisplayState@IPart@23@@Z 0043f6e0 f i ThreeDeeApp.obj
 0001:0003e6e0       ?setWindowHeight@AppImplMsw@app@cinder@@UAEXH@Z 0043f6e0 f i cinder:AppImplMsw.obj
 0001:0003e6e0       ?prepareSettings@AppBasic@app@cinder@@UAEXPAVSettings@123@@Z 0043f6e0 f i cinder:AppBasic.obj
 0001:0003e6e0       ?renderGizmo@PartBase@gizmo@zugster@@UAEXAAVGizmoContext@23@@Z 0043f6e0 f i ThreeDeeApp.obj
 0001:0003e6e0       ?imbue@?$basic_streambuf@DU?$char_traits@D@std@@@std@@MAEXABVlocale@2@@Z 0043f6e0 f i ThreeDeeApp.obj
 0001:0003e6e0       ?setWindowWidth@AppImplMsw@app@cinder@@UAEXH@Z 0043f6e0 f i cinder:AppImplMsw.obj
 0001:0003e6f0       ?rotate@CommandBase@gizmo@zugster@@UAEXN@Z 0043f6f0 f i ThreeDeeApp.obj
 0001:0003e6f0       ?setRotationSpeed@CommandBase@gizmo@zugster@@UAEXN@Z 0043f6f0 f i ThreeDeeApp.obj
 0001:0003e6f0       ?onSizeChanged@PositionableBase@cinderpane@zugster@@MAEXABV?$Vec2@M@cinder@@0@Z 0043f6f0 f i ThreeDeeApp.obj
 0001:0003e6f0       ?setWindowSize@AppImplMsw@app@cinder@@UAEXHH@Z 0043f6f0 f i cinder:AppImplMsw.obj
 0001:0003e6f0       ?setRotation@CommandBase@gizmo@zugster@@UAEXN@Z 0043f6f0 f i ThreeDeeApp.obj
 0001:0003e6f0       ?loadXML@CustomFn@gizmo@zugster@@UAEXABVXmlTree@cinder@@ABV?$shared_ptr@UIPartFactory@gizmo@zugster@@@boost@@@Z 0043f6f0 f i ThreeDeeApp.obj
 0001:0003e6f0       ?loadXML@ContextSave@gizmo@zugster@@UAEXABVXmlTree@cinder@@ABV?$shared_ptr@UIPartFactory@gizmo@zugster@@@boost@@@Z 0043f6f0 f i ThreeDeeApp.obj
 0001:0003e6f0       ?loadXML@RegularPolygonPart@gizmo@zugster@@UAEXABVXmlTree@cinder@@ABV?$shared_ptr@UIPartFactory@gizmo@zugster@@@boost@@@Z 0043f6f0 f i ThreeDeeApp.obj
 0001:0003e6f0       ?onPositionChanged@PositionableBase@cinderpane@zugster@@MAEXABV?$Vec2@M@cinder@@0@Z 0043f6f0 f i ThreeDeeApp.obj
 0001:0003e6f0       ?loadXML@ContextRestore@gizmo@zugster@@UAEXABVXmlTree@cinder@@ABV?$shared_ptr@UIPartFactory@gizmo@zugster@@@boost@@@Z 0043f6f0 f i ThreeDeeApp.obj
 0001:0003e6f0       ?onSizeChanged@PartBase@gizmo@zugster@@MAEXABV?$Vec2@M@cinder@@0@Z 0043f6f0 f i ThreeDeeApp.obj
 0001:0003e6f0       ?onPositionChanged@PartBase@gizmo@zugster@@MAEXABV?$Vec2@M@cinder@@0@Z 0043f6f0 f i ThreeDeeApp.obj
 0001:0003e700       ?setFrameRate@AppImplMsw@app@cinder@@UAEMM@Z 0043f700 f i cinder:AppImplMsw.obj
 0001:0003e710       ?privateSetWindowOffset__@AppImplMsw@app@cinder@@UAEXABV?$Vec2@H@3@@Z 0043f710 f i cinder:AppImplMsw.obj
 0001:0003e730       ??0AppImplMsw@app@cinder@@QAE@PAVApp@12@@Z 0043f730 f   cinder:AppImplMsw.obj
 0001:0003e780       ??_EAppImplMsw@app@cinder@@UAEPAXI@Z 0043f780 f i cinder:AppImplMsw.obj
 0001:0003e780       ??_GAppImplMsw@app@cinder@@UAEPAXI@Z 0043f780 f i cinder:AppImplMsw.obj
 0001:0003e7b0       ?mouseLocation@AppImplMsw@app@cinder@@UAE?AV?$Vec2@H@3@XZ 0043f7b0 f   cinder:AppImplMsw.obj
 0001:0003e7e0       ?getAppPath@AppImplMsw@app@cinder@@SA?AV?$basic_string@DU?$char_traits@D@std@@V?$allocator@D@2@@std@@XZ 0043f7e0 f   cinder:AppImplMsw.obj
 0001:0003e890       ?_Destroy@?$_Ref_count@VDisplay@cinder@@@tr1@std@@EAEXXZ 0043f890 f i cinder:Display.obj
 0001:0003e8a0       ?allocate@?$allocator@V?$shared_ptr@VDisplay@cinder@@@tr1@std@@@std@@QAEPAV?$shared_ptr@VDisplay@cinder@@@tr1@2@I@Z 0043f8a0 f i cinder:Display.obj
 0001:0003e8a0       ?allocate@?$allocator@VTexture@gl@cinder@@@std@@QAEPAVTexture@gl@cinder@@I@Z 0043f8a0 f i cinder:Fbo.obj
 0001:0003e8a0       ?allocate@?$allocator@VRenderbuffer@gl@cinder@@@std@@QAEPAVRenderbuffer@gl@cinder@@I@Z 0043f8a0 f i cinder:Fbo.obj
 0001:0003e900       ??$_Resetp@VDisplay@cinder@@@?$shared_ptr@VDisplay@cinder@@@tr1@std@@AAEXPAVDisplay@cinder@@@Z 0043f900 f i cinder:Display.obj
 0001:0003e9a0       ??$_Uninit_move@PAV?$shared_ptr@VDisplay@cinder@@@tr1@std@@PAV123@V?$allocator@V?$shared_ptr@VDisplay@cinder@@@tr1@std@@@3@V123@@std@@YAPAV?$shared_ptr@VDisplay@cinder@@@tr1@0@PAV120@00AAV?$allocator@V?$shared_ptr@VDisplay@cinder@@@tr1@std@@@0@0U_Nonscalar_ptr_iterator_tag@0@@Z 0043f9a0 f i cinder:Display.obj
 0001:0003e9f0       ?reserve@?$vector@V?$shared_ptr@VDisplay@cinder@@@tr1@std@@V?$allocator@V?$shared_ptr@VDisplay@cinder@@@tr1@std@@@3@@std@@QAEXI@Z 0043f9f0 f i cinder:Display.obj
 0001:0003eae0       ?_Reserve@?$vector@V?$shared_ptr@VDisplay@cinder@@@tr1@std@@V?$allocator@V?$shared_ptr@VDisplay@cinder@@@tr1@std@@@3@@std@@IAEXI@Z 0043fae0 f i cinder:Display.obj
 0001:0003eb40       ?push_back@?$vector@V?$shared_ptr@VDisplay@cinder@@@tr1@std@@V?$allocator@V?$shared_ptr@VDisplay@cinder@@@tr1@std@@@3@@std@@QAEXABV?$shared_ptr@VDisplay@cinder@@@tr1@2@@Z 0043fb40 f i cinder:Display.obj
 0001:0003ebf0       ?enumMonitorProc@Display@cinder@@SGHPAUHMONITOR__@@PAUHDC__@@PAUtagRECT@@J@Z 0043fbf0 f   cinder:Display.obj
 0001:0003ed50       ?enumerateDisplays@Display@cinder@@CAXXZ 0043fd50 f   cinder:Display.obj
 0001:0003edd0       ?getMainDisplay@Display@cinder@@SA?AV?$shared_ptr@VDisplay@cinder@@@tr1@std@@XZ 0043fdd0 f   cinder:Display.obj
 0001:0003ee10       ?enableMultiTouch@AppImplMswBasic@app@cinder@@IAEXXZ 0043fe10 f   cinder:AppImplMswBasic.obj
 0001:0003ee50       ?setFrameRate@AppImplMswBasic@app@cinder@@UAEMM@Z 0043fe50 f   cinder:AppImplMswBasic.obj
 0001:0003ee60       ?prepMouseEventModifiers@app@cinder@@YAII@Z 0043fe60 f   cinder:AppImplMswBasic.obj
 0001:0003eec0       ?prepNativeKeyCode@app@cinder@@YAHI@Z 0043fec0 f   cinder:AppImplMswBasic.obj
 0001:0003ef30       ?mapVirtualKey@app@cinder@@YADI@Z 0043ff30 f   cinder:AppImplMswBasic.obj
 0001:0003efa0       ?prepKeyEventModifiers@app@cinder@@YAIXZ 0043ffa0 f   cinder:AppImplMswBasic.obj
 0001:0003f010       ?_Max@?$_Tree_val@V?$_Tmap_traits@KV?$Vec2@M@cinder@@U?$less@K@std@@V?$allocator@U?$pair@$$CBKV?$Vec2@M@cinder@@@std@@@4@$0A@@std@@@std@@SAPAU_Node@?$_Tree_nod@V?$_Tmap_traits@KV?$Vec2@M@cinder@@U?$less@K@std@@V?$allocator@U?$pair@$$CBKV?$Vec2@M@cinder@@@std@@@4@$0A@@std@@@2@PAU342@@Z 00440010 f i cinder:AppImplMswBasic.obj
 0001:0003f030       ?_Min@?$_Tree_val@V?$_Tmap_traits@KV?$Vec2@M@cinder@@U?$less@K@std@@V?$allocator@U?$pair@$$CBKV?$Vec2@M@cinder@@@std@@@4@$0A@@std@@@std@@SAPAU_Node@?$_Tree_nod@V?$_Tmap_traits@KV?$Vec2@M@cinder@@U?$less@K@std@@V?$allocator@U?$pair@$$CBKV?$Vec2@M@cinder@@@std@@@4@$0A@@std@@@2@PAU342@@Z 00440030 f i cinder:AppImplMswBasic.obj
 0001:0003f050       ??E?$_Tree_unchecked_const_iterator@V?$_Tree_val@V?$_Tmap_traits@KV?$Vec2@M@cinder@@U?$less@K@std@@V?$allocator@U?$pair@$$CBKV?$Vec2@M@cinder@@@std@@@4@$0A@@std@@@std@@U_Iterator_base0@2@@std@@QAEAAV01@XZ 00440050 f i cinder:AppImplMswBasic.obj
 0001:0003f0a0       ??F?$_Tree_unchecked_const_iterator@V?$_Tree_val@V?$_Tmap_traits@KV?$Vec2@M@cinder@@U?$less@K@std@@V?$allocator@U?$pair@$$CBKV?$Vec2@M@cinder@@@std@@@4@$0A@@std@@@std@@U_Iterator_base0@2@@std@@QAEAAV01@XZ 004400a0 f i cinder:AppImplMswBasic.obj
 0001:0003f100       ?_Get_deleter@?$_Ref_count_del@UtagTOUCHINPUT@@U?$checked_array_deleter@UtagTOUCHINPUT@@@boost@@@tr1@std@@UBEPAXABVtype_info@@@Z 00440100 f i cinder:AppImplMswBasic.obj
 0001:0003f130       ?setWindowWidth@AppImplMswBasic@app@cinder@@UAEXH@Z 00440130 f   cinder:AppImplMswBasic.obj
 0001:0003f1b0       ?setWindowHeight@AppImplMswBasic@app@cinder@@UAEXH@Z 004401b0 f   cinder:AppImplMswBasic.obj
 0001:0003f230       ?setWindowSize@AppImplMswBasic@app@cinder@@UAEXHH@Z 00440230 f   cinder:AppImplMswBasic.obj
 0001:0003f2b0       ?_Rrotate@?$_Tree@V?$_Tmap_traits@KV?$Vec2@M@cinder@@U?$less@K@std@@V?$allocator@U?$pair@$$CBKV?$Vec2@M@cinder@@@std@@@4@$0A@@std@@@std@@IAEXPAU_Node@?$_Tree_nod@V?$_Tmap_traits@KV?$Vec2@M@cinder@@U?$less@K@std@@V?$allocator@U?$pair@$$CBKV?$Vec2@M@cinder@@@std@@@4@$0A@@std@@@2@@Z 004402b0 f i cinder:AppImplMswBasic.obj
 0001:0003f310       ??$_Copy_impl@PAVTouch@TouchEvent@app@cinder@@PAV1234@@std@@YAPAVTouch@TouchEvent@app@cinder@@PAV1234@00U_Nonscalar_ptr_iterator_tag@0@@Z 00440310 f i cinder:AppImplMswBasic.obj
 0001:0003f310       ??$_Move@PAVTouch@TouchEvent@app@cinder@@PAV1234@@std@@YAPAVTouch@TouchEvent@app@cinder@@PAV1234@00U_Nonscalar_ptr_iterator_tag@0@@Z 00440310 f i cinder:AppImplMswBasic.obj
 0001:0003f370       ?_Destroy@?$_Ref_count_del@UtagTOUCHINPUT@@U?$checked_array_deleter@UtagTOUCHINPUT@@@boost@@@tr1@std@@EAEXXZ 00440370 f i cinder:AppImplMswBasic.obj
 0001:0003f370       ?_Destroy@?$_Ref_count_del@DU?$checked_array_deleter@D@boost@@@tr1@std@@EAEXXZ 00440370 f i cinder:Xml.obj
 0001:0003f370       ?_Destroy@?$_Ref_count_del@EU?$checked_array_deleter@E@boost@@@tr1@std@@EAEXXZ 00440370 f i cinder:Texture.obj
 0001:0003f380       ?killWindow@AppImplMswBasic@app@cinder@@IAEX_N@Z 00440380 f   cinder:AppImplMswBasic.obj
 0001:0003f410       ?_Lrotate@?$_Tree@V?$_Tmap_traits@KV?$Vec2@M@cinder@@U?$less@K@std@@V?$allocator@U?$pair@$$CBKV?$Vec2@M@cinder@@@std@@@4@$0A@@std@@@std@@IAEXPAU_Node@?$_Tree_nod@V?$_Tmap_traits@KV?$Vec2@M@cinder@@U?$less@K@std@@V?$allocator@U?$pair@$$CBKV?$Vec2@M@cinder@@@std@@@4@$0A@@std@@@2@@Z 00440410 f i cinder:AppImplMswBasic.obj
 0001:0003f470       ?_Insert@?$_Tree@V?$_Tmap_traits@KV?$Vec2@M@cinder@@U?$less@K@std@@V?$allocator@U?$pair@$$CBKV?$Vec2@M@cinder@@@std@@@4@$0A@@std@@@std@@IAE?AV?$_Tree_iterator@V?$_Tree_val@V?$_Tmap_traits@KV?$Vec2@M@cinder@@U?$less@K@std@@V?$allocator@U?$pair@$$CBKV?$Vec2@M@cinder@@@std@@@4@$0A@@std@@@std@@@2@_NPAU_Node@?$_Tree_nod@V?$_Tmap_traits@KV?$Vec2@M@cinder@@U?$less@K@std@@V?$allocator@U?$pair@$$CBKV?$Vec2@M@cinder@@@std@@@4@$0A@@std@@@2@1@Z 00440470 f i cinder:AppImplMswBasic.obj
 0001:0003f6a0       ??$_Uninit_move@PAVTouch@TouchEvent@app@cinder@@PAV1234@V?$allocator@VTouch@TouchEvent@app@cinder@@@std@@V1234@@std@@YAPAVTouch@TouchEvent@app@cinder@@PAV1234@00AAV?$allocator@VTouch@TouchEvent@app@cinder@@@0@0U_Nonscalar_ptr_iterator_tag@0@@Z 004406a0 f i cinder:AppImplMswBasic.obj
 0001:0003f6a0       ??$_Uninit_copy@PAVTouch@TouchEvent@app@cinder@@PAV1234@V?$allocator@VTouch@TouchEvent@app@cinder@@@std@@@std@@YAPAVTouch@TouchEvent@app@cinder@@PAV1234@00AAV?$allocator@VTouch@TouchEvent@app@cinder@@@0@U_Nonscalar_ptr_iterator_tag@0@@Z 004406a0 f i cinder:AppImplMswBasic.obj
 0001:0003f700       ?erase@?$_Tree@V?$_Tmap_traits@KV?$Vec2@M@cinder@@U?$less@K@std@@V?$allocator@U?$pair@$$CBKV?$Vec2@M@cinder@@@std@@@4@$0A@@std@@@std@@QAE?AV?$_Tree_iterator@V?$_Tree_val@V?$_Tmap_traits@KV?$Vec2@M@cinder@@U?$less@K@std@@V?$allocator@U?$pair@$$CBKV?$Vec2@M@cinder@@@std@@@4@$0A@@std@@@std@@@2@V?$_Tree_const_iterator@V?$_Tree_val@V?$_Tmap_traits@KV?$Vec2@M@cinder@@U?$less@K@std@@V?$allocator@U?$pair@$$CBKV?$Vec2@M@cinder@@@std@@@4@$0A@@std@@@std@@@2@@Z 00440700 f i cinder:AppImplMswBasic.obj
 0001:0003f950       ?_Eqrange@?$_Tree@V?$_Tmap_traits@KV?$Vec2@M@cinder@@U?$less@K@std@@V?$allocator@U?$pair@$$CBKV?$Vec2@M@cinder@@@std@@@4@$0A@@std@@@std@@IAE?AU?$pair@V?$_Tree_iterator@V?$_Tree_val@V?$_Tmap_traits@KV?$Vec2@M@cinder@@U?$less@K@std@@V?$allocator@U?$pair@$$CBKV?$Vec2@M@cinder@@@std@@@4@$0A@@std@@@std@@@std@@V12@@2@ABK@Z 00440950 f i cinder:AppImplMswBasic.obj
 0001:0003f9e0       ?_Erase@?$_Tree@V?$_Tmap_traits@KV?$Vec2@M@cinder@@U?$less@K@std@@V?$allocator@U?$pair@$$CBKV?$Vec2@M@cinder@@@std@@@4@$0A@@std@@@std@@IAEXPAU_Node@?$_Tree_nod@V?$_Tmap_traits@KV?$Vec2@M@cinder@@U?$less@K@std@@V?$allocator@U?$pair@$$CBKV?$Vec2@M@cinder@@@std@@@4@$0A@@std@@@2@@Z 004409e0 f i cinder:AppImplMswBasic.obj
 0001:0003fa20       ?_Linsert@?$_Tree@V?$_Tmap_traits@KV?$Vec2@M@cinder@@U?$less@K@std@@V?$allocator@U?$pair@$$CBKV?$Vec2@M@cinder@@@std@@@4@$0A@@std@@@std@@QAE?AU?$pair@V?$_Tree_iterator@V?$_Tree_val@V?$_Tmap_traits@KV?$Vec2@M@cinder@@U?$less@K@std@@V?$allocator@U?$pair@$$CBKV?$Vec2@M@cinder@@@std@@@4@$0A@@std@@@std@@@std@@_N@2@PAU_Node@?$_Tree_nod@V?$_Tmap_traits@KV?$Vec2@M@cinder@@U?$less@K@std@@V?$allocator@U?$pair@$$CBKV?$Vec2@M@cinder@@@std@@@4@$0A@@std@@@2@_N@Z 00440a20 f i cinder:AppImplMswBasic.obj
 0001:0003fb00       ??$_Resetp@UtagTOUCHINPUT@@U?$checked_array_deleter@UtagTOUCHINPUT@@@boost@@@?$shared_ptr@UtagTOUCHINPUT@@@tr1@std@@AAEXPAUtagTOUCHINPUT@@U?$checked_array_deleter@UtagTOUCHINPUT@@@boost@@@Z 00440b00 f i cinder:AppImplMswBasic.obj
 0001:0003fba0       ?clear@?$_Tree@V?$_Tmap_traits@KV?$Vec2@M@cinder@@U?$less@K@std@@V?$allocator@U?$pair@$$CBKV?$Vec2@M@cinder@@@std@@@4@$0A@@std@@@std@@QAEXXZ 00440ba0 f i cinder:AppImplMswBasic.obj
 0001:0003fbf0       ?_Insert@?$_Tree@V?$_Tmap_traits@KV?$Vec2@M@cinder@@U?$less@K@std@@V?$allocator@U?$pair@$$CBKV?$Vec2@M@cinder@@@std@@@4@$0A@@std@@@std@@QAE?AV?$_Tree_iterator@V?$_Tree_val@V?$_Tmap_traits@KV?$Vec2@M@cinder@@U?$less@K@std@@V?$allocator@U?$pair@$$CBKV?$Vec2@M@cinder@@@std@@@4@$0A@@std@@@std@@@2@V?$_Tree_const_iterator@V?$_Tree_val@V?$_Tmap_traits@KV?$Vec2@M@cinder@@U?$less@K@std@@V?$allocator@U?$pair@$$CBKV?$Vec2@M@cinder@@@std@@@4@$0A@@std@@@std@@@2@PAU_Node@?$_Tree_nod@V?$_Tmap_traits@KV?$Vec2@M@cinder@@U?$less@K@std@@V?$allocator@U?$pair@$$CBKV?$Vec2@M@cinder@@@std@@@4@$0A@@std@@@2@@Z 00440bf0 f i cinder:AppImplMswBasic.obj
 0001:0003fd50       ?erase@?$_Tree@V?$_Tmap_traits@KV?$Vec2@M@cinder@@U?$less@K@std@@V?$allocator@U?$pair@$$CBKV?$Vec2@M@cinder@@@std@@@4@$0A@@std@@@std@@QAE?AV?$_Tree_iterator@V?$_Tree_val@V?$_Tmap_traits@KV?$Vec2@M@cinder@@U?$less@K@std@@V?$allocator@U?$pair@$$CBKV?$Vec2@M@cinder@@@std@@@4@$0A@@std@@@std@@@2@V?$_Tree_const_iterator@V?$_Tree_val@V?$_Tmap_traits@KV?$Vec2@M@cinder@@U?$less@K@std@@V?$allocator@U?$pair@$$CBKV?$Vec2@M@cinder@@@std@@@4@$0A@@std@@@std@@@2@0@Z 00440d50 f i cinder:AppImplMswBasic.obj
 0001:0003fdf0       ?reserve@?$vector@VTouch@TouchEvent@app@cinder@@V?$allocator@VTouch@TouchEvent@app@cinder@@@std@@@std@@QAEXI@Z 00440df0 f i cinder:AppImplMswBasic.obj
 0001:0003fef0       ??$_Ucopy@PAVTouch@TouchEvent@app@cinder@@@?$vector@VTouch@TouchEvent@app@cinder@@V?$allocator@VTouch@TouchEvent@app@cinder@@@std@@@std@@IAEPAVTouch@TouchEvent@app@cinder@@PAV2345@00@Z 00440ef0 f i cinder:AppImplMswBasic.obj
 0001:0003ff20       ??$_Buynode@U?$pair@$$CBKV?$Vec2@M@cinder@@@std@@@?$_Tree_val@V?$_Tmap_traits@KV?$Vec2@M@cinder@@U?$less@K@std@@V?$allocator@U?$pair@$$CBKV?$Vec2@M@cinder@@@std@@@4@$0A@@std@@@std@@QAEPAU_Node@?$_Tree_nod@V?$_Tmap_traits@KV?$Vec2@M@cinder@@U?$less@K@std@@V?$allocator@U?$pair@$$CBKV?$Vec2@M@cinder@@@std@@@4@$0A@@std@@@1@$$QAU?$pair@$$CBKV?$Vec2@M@cinder@@@1@@Z 00440f20 f i cinder:AppImplMswBasic.obj
 0001:0003ffa0       ?_Reserve@?$vector@VTouch@TouchEvent@app@cinder@@V?$allocator@VTouch@TouchEvent@app@cinder@@@std@@@std@@IAEXI@Z 00440fa0 f i cinder:AppImplMswBasic.obj
 0001:00040020       ??A?$map@KV?$Vec2@M@cinder@@U?$less@K@std@@V?$allocator@U?$pair@$$CBKV?$Vec2@M@cinder@@@std@@@4@@std@@QAEAAV?$Vec2@M@cinder@@ABK@Z 00441020 f i cinder:AppImplMswBasic.obj
 0001:000400b0       ??4?$vector@VTouch@TouchEvent@app@cinder@@V?$allocator@VTouch@TouchEvent@app@cinder@@@std@@@std@@QAEAAV01@ABV01@@Z 004410b0 f i cinder:AppImplMswBasic.obj
 0001:00040200       ?push_back@?$vector@VTouch@TouchEvent@app@cinder@@V?$allocator@VTouch@TouchEvent@app@cinder@@@std@@@std@@QAEX$$QAVTouch@TouchEvent@app@cinder@@@Z 00441200 f i cinder:AppImplMswBasic.obj
 0001:00040200       ?push_back@?$vector@VTouch@TouchEvent@app@cinder@@V?$allocator@VTouch@TouchEvent@app@cinder@@@std@@@std@@QAEXABVTouch@TouchEvent@app@cinder@@@Z 00441200 f i cinder:AppImplMswBasic.obj
 0001:000402c0       ??0AppImplMswBasic@app@cinder@@QAE@PAVAppBasic@12@@Z 004412c0 f   cinder:AppImplMswBasic.obj
 0001:00040380       ?quit@AppImplMswBasic@app@cinder@@UAEXXZ 00441380 f i cinder:AppImplMswBasic.obj
 0001:00040390       ??_EAppImplMswBasic@app@cinder@@UAEPAXI@Z 00441390 f i cinder:AppImplMswBasic.obj
 0001:00040390       ??_GAppImplMswBasic@app@cinder@@UAEPAXI@Z 00441390 f i cinder:AppImplMswBasic.obj
 0001:00040420       ?onTouch@AppImplMswBasic@app@cinder@@IAEXPAUHWND__@@IJ@Z 00441420 f   cinder:AppImplMswBasic.obj
 0001:00040930       _WndProc@16                00441930 f   cinder:AppImplMswBasic.obj
 0001:00041240       ?createWindow@AppImplMswBasic@app@cinder@@IAE_NPAH0@Z 00442240 f   cinder:AppImplMswBasic.obj
 0001:00041570       ?toggleFullScreen@AppImplMswBasic@app@cinder@@UAEXXZ 00442570 f   cinder:AppImplMswBasic.obj
 0001:00041720       ?run@AppImplMswBasic@app@cinder@@QAEXXZ 00442720 f   cinder:AppImplMswBasic.obj
 0001:00041970       ?_Destroy@?$_Ref_count@UObj@?$ChannelT@E@cinder@@@tr1@std@@EAEXXZ 00442970 f i cinder:Channel.obj
 0001:000419b0       ??$_Resetp@UObj@?$ChannelT@E@cinder@@@?$shared_ptr@UObj@?$ChannelT@E@cinder@@@tr1@std@@AAEXPAUObj@?$ChannelT@E@cinder@@@Z 004429b0 f i cinder:Channel.obj
 0001:00041a70       ??0?$ChannelT@E@cinder@@QAE@HHHEPAE@Z 00442a70 f i cinder:Channel.obj
 0001:00041ae0       ___GLeeGetProcAddress      00442ae0 f   cinder:GLee.obj
 0001:00041af0       ___GLeeLink_GL_VERSION_1_2 00442af0 f   cinder:GLee.obj
 0001:00042080       ___GLeeLink_GL_VERSION_1_3 00443080 f   cinder:GLee.obj
 0001:00042730       ___GLeeLink_GL_VERSION_1_4 00443730 f   cinder:GLee.obj
 0001:00042db0       ___GLeeLink_GL_VERSION_1_5 00443db0 f   cinder:GLee.obj
 0001:00043090       ___GLeeLink_GL_VERSION_2_0 00444090 f   cinder:GLee.obj
 0001:00043dd0       ___GLeeLink_GL_VERSION_2_1 00444dd0 f   cinder:GLee.obj
 0001:00043ee0       ___GLeeLink_GL_VERSION_3_0 00444ee0 f   cinder:GLee.obj
 0001:00044740       ___GLeeLink_GL_ARB_multitexture 00445740 f   cinder:GLee.obj
 0001:00044c40       ___GLeeLink_GL_ARB_transpose_matrix 00445c40 f   cinder:GLee.obj
 0001:00044d00       ___GLeeLink_GL_ARB_multisample 00445d00 f   cinder:GLee.obj
 0001:00044d50       ___GLeeLink_GL_ARB_texture_compression 00445d50 f   cinder:GLee.obj
 0001:00044e80       ___GLeeLink_GL_ARB_point_parameters 00445e80 f   cinder:GLee.obj
 0001:00044f00       ___GLeeLink_GL_ARB_vertex_blend 00445f00 f   cinder:GLee.obj
 0001:000450a0       ___GLeeLink_GL_ARB_matrix_palette 004460a0 f   cinder:GLee.obj
 0001:00045180       ___GLeeLink_GL_ARB_window_pos 00446180 f   cinder:GLee.obj
 0001:000453f0       ___GLeeLink_GL_ARB_vertex_program 004463f0 f   cinder:GLee.obj
 0001:00045ce0       ___GLeeLink_GL_ARB_vertex_buffer_object 00446ce0 f   cinder:GLee.obj
 0001:00045ea0       ___GLeeLink_GL_ARB_occlusion_query 00446ea0 f   cinder:GLee.obj
 0001:00045ff0       ___GLeeLink_GL_ARB_shader_objects 00446ff0 f   cinder:GLee.obj
 0001:000465a0       ___GLeeLink_GL_ARB_vertex_shader 004475a0 f   cinder:GLee.obj
 0001:00046640       ___GLeeLink_GL_ARB_draw_buffers 00447640 f   cinder:GLee.obj
 0001:00046690       ___GLeeLink_GL_ARB_color_buffer_float 00447690 f   cinder:GLee.obj
 0001:000466e0       ___GLeeLink_GL_ARB_draw_instanced 004476e0 f   cinder:GLee.obj
 0001:00046760       ___GLeeLink_GL_ARB_framebuffer_object 00447760 f   cinder:GLee.obj
 0001:00046a60       ___GLeeLink_GL_ARB_geometry_shader4 00447a60 f   cinder:GLee.obj
 0001:00046b20       ___GLeeLink_GL_ARB_instanced_arrays 00447b20 f   cinder:GLee.obj
 0001:00046b70       ___GLeeLink_GL_ARB_map_buffer_range 00447b70 f   cinder:GLee.obj
 0001:00046bf0       ___GLeeLink_GL_ARB_texture_buffer_object 00447bf0 f   cinder:GLee.obj
 0001:00046c40       ___GLeeLink_GL_ARB_vertex_array_object 00447c40 f   cinder:GLee.obj
 0001:00046d00       ___GLeeLink_GL_EXT_blend_color 00447d00 f   cinder:GLee.obj
 0001:00046d50       ___GLeeLink_GL_EXT_polygon_offset 00447d50 f   cinder:GLee.obj
 0001:00046da0       ___GLeeLink_GL_EXT_texture3D 00447da0 f   cinder:GLee.obj
 0001:00046e20       ___GLeeLink_GL_SGIS_texture_filter4 00447e20 f   cinder:GLee.obj
 0001:00046ea0       ___GLeeLink_GL_EXT_subtexture 00447ea0 f   cinder:GLee.obj
 0001:00046f20       ___GLeeLink_GL_EXT_copy_texture 00447f20 f   cinder:GLee.obj
 0001:00047000       ___GLeeLink_GL_EXT_histogram 00448000 f   cinder:GLee.obj
 0001:000471a0       ___GLeeLink_GL_EXT_convolution 004481a0 f   cinder:GLee.obj
 0001:000473a0       ___GLeeLink_GL_SGI_color_table 004483a0 f   cinder:GLee.obj
 0001:000474d0       ___GLeeLink_GL_SGIS_pixel_texture 004484d0 f   cinder:GLee.obj
 0001:000475e0       ___GLeeLink_GL_SGIX_pixel_texture 004485e0 f   cinder:GLee.obj
 0001:00047630       ___GLeeLink_GL_SGIS_texture4D 00448630 f   cinder:GLee.obj
 0001:000476b0       ___GLeeLink_GL_EXT_texture_object 004486b0 f   cinder:GLee.obj
 0001:000477c0       ___GLeeLink_GL_SGIS_detail_texture 004487c0 f   cinder:GLee.obj
 0001:00047840       ___GLeeLink_GL_SGIS_sharpen_texture 00448840 f   cinder:GLee.obj
 0001:000478c0       ___GLeeLink_GL_SGIS_multisample 004488c0 f   cinder:GLee.obj
 0001:00047940       ___GLeeLink_GL_EXT_vertex_array 00448940 f   cinder:GLee.obj
 0001:00047970       ___GLeeLink_GL_EXT_blend_minmax 00448970 f   cinder:GLee.obj
 0001:000479c0       ___GLeeLink_GL_SGIX_sprite 004489c0 f   cinder:GLee.obj
 0001:00047a80       ___GLeeLink_GL_EXT_point_parameters 00448a80 f   cinder:GLee.obj
 0001:00047b00       ___GLeeLink_GL_SGIS_point_parameters 00448b00 f   cinder:GLee.obj
 0001:00047b80       ___GLeeLink_GL_SGIX_instruments 00448b80 f   cinder:GLee.obj
 0001:00047c90       ___GLeeLink_GL_SGIX_framezoom 00448c90 f   cinder:GLee.obj
 0001:00047ce0       ___GLeeLink_GL_SGIX_tag_sample_buffer 00448ce0 f   cinder:GLee.obj
 0001:00047d30       ___GLeeLink_GL_SGIX_polynomial_ffd 00448d30 f   cinder:GLee.obj
 0001:00047df0       ___GLeeLink_GL_SGIX_reference_plane 00448df0 f   cinder:GLee.obj
 0001:00047e40       ___GLeeLink_GL_SGIX_flush_raster 00448e40 f   cinder:GLee.obj
 0001:00047e90       ___GLeeLink_GL_SGIS_fog_function 00448e90 f   cinder:GLee.obj
 0001:00047f10       ___GLeeLink_GL_HP_image_transform 00448f10 f   cinder:GLee.obj
 0001:00048020       ___GLeeLink_GL_EXT_color_subtable 00449020 f   cinder:GLee.obj
 0001:000480a0       ___GLeeLink_GL_PGI_misc_hints 004490a0 f   cinder:GLee.obj
 0001:000480f0       ___GLeeLink_GL_EXT_paletted_texture 004490f0 f   cinder:GLee.obj
 0001:00048120       ___GLeeLink_GL_SGIX_list_priority 00449120 f   cinder:GLee.obj
 0001:00048230       ___GLeeLink_GL_EXT_index_material 00449230 f   cinder:GLee.obj
 0001:00048280       ___GLeeLink_GL_EXT_index_func 00449280 f   cinder:GLee.obj
 0001:000482d0       ___GLeeLink_GL_EXT_compiled_vertex_array 004492d0 f   cinder:GLee.obj
 0001:00048350       ___GLeeLink_GL_EXT_cull_vertex 00449350 f   cinder:GLee.obj
 0001:000483d0       ___GLeeLink_GL_SGIX_fragment_lighting 004493d0 f   cinder:GLee.obj
 0001:00048690       ___GLeeLink_GL_EXT_draw_range_elements 00449690 f   cinder:GLee.obj
 0001:000486e0       ___GLeeLink_GL_EXT_light_texture 004496e0 f   cinder:GLee.obj
 0001:00048780       ___GLeeLink_GL_SGIX_async  00449780 f   cinder:GLee.obj
 0001:00048890       ___GLeeLink_GL_INTEL_parallel_arrays 00449890 f   cinder:GLee.obj
 0001:00048950       ___GLeeLink_GL_EXT_pixel_transform 00449950 f   cinder:GLee.obj
 0001:00048a10       ___GLeeLink_GL_EXT_secondary_color 00449a10 f   cinder:GLee.obj
 0001:00048ca0       ___GLeeLink_GL_EXT_texture_perturb_normal 00449ca0 f   cinder:GLee.obj
 0001:00048cf0       ___GLeeLink_GL_EXT_multi_draw_arrays 00449cf0 f   cinder:GLee.obj
 0001:00048d70       ___GLeeLink_GL_EXT_fog_coord 00449d70 f   cinder:GLee.obj
 0001:00048e50       ___GLeeLink_GL_EXT_coordinate_frame 00449e50 f   cinder:GLee.obj
 0001:000491a0       ___GLeeLink_GL_SUNX_constant_data 0044a1a0 f   cinder:GLee.obj
 0001:000491f0       ___GLeeLink_GL_SUN_global_alpha 0044a1f0 f   cinder:GLee.obj
 0001:00049340       ___GLeeLink_GL_SUN_triangle_list 0044a340 f   cinder:GLee.obj
 0001:00049470       ___GLeeLink_GL_SUN_vertex  0044a470 f   cinder:GLee.obj
 0001:00049a40       ___GLeeLink_GL_EXT_blend_func_separate 0044aa40 f   cinder:GLee.obj
 0001:00049a90       ___GLeeLink_GL_EXT_vertex_weighting 0044aa90 f   cinder:GLee.obj
 0001:00049b30       ___GLeeLink_GL_NV_vertex_array_range 0044ab30 f   cinder:GLee.obj
 0001:00049bb0       ___GLeeLink_GL_NV_register_combiners 0044abb0 f   cinder:GLee.obj
 0001:00049db0       ___GLeeLink_GL_MESA_resize_buffers 0044adb0 f   cinder:GLee.obj
 0001:00049e00       ___GLeeLink_GL_MESA_window_pos 0044ae00 f   cinder:GLee.obj
 0001:0004a190       ___GLeeLink_GL_IBM_multimode_draw_arrays 0044b190 f   cinder:GLee.obj
 0001:0004a210       ___GLeeLink_GL_IBM_vertex_array_lists 0044b210 f   cinder:GLee.obj
 0001:0004a360       ___GLeeLink_GL_3DFX_tbuffer 0044b360 f   cinder:GLee.obj
 0001:0004a3b0       ___GLeeLink_GL_EXT_multisample 0044b3b0 f   cinder:GLee.obj
 0001:0004a430       ___GLeeLink_GL_SGIS_texture_color_mask 0044b430 f   cinder:GLee.obj
 0001:0004a480       ___GLeeLink_GL_NV_fence    0044b480 f   cinder:GLee.obj
 0001:0004a5b0       ___GLeeLink_GL_NV_evaluators 0044b5b0 f   cinder:GLee.obj
 0001:0004a720       ___GLeeLink_GL_NV_register_combiners2 0044b720 f   cinder:GLee.obj
 0001:0004a7a0       ___GLeeLink_GL_NV_vertex_program 0044b7a0 f   cinder:GLee.obj
 0001:0004b0d0       ___GLeeLink_GL_INGR_interlace_read 0044c0d0 f   cinder:GLee.obj
 0001:0004b0d0       ___GLeeLink_GL_APPLE_ycbcr_422 0044c0d0 f   cinder:GLee.obj
 0001:0004b0d0       ___GLeeLink_GL_ARB_fragment_program_shadow 0044c0d0 f   cinder:GLee.obj
 0001:0004b0d0       ___GLeeLink_GL_EXT_texture_swizzle 0044c0d0 f   cinder:GLee.obj
 0001:0004b0d0       ___GLeeLink_GL_MESAX_texture_stack 0044c0d0 f   cinder:GLee.obj
 0001:0004b0d0       ___GLeeLink_GL_EXT_blend_logic_op 0044c0d0 f   cinder:GLee.obj
 0001:0004b0d0       ___GLeeLink_GL_ATI_text_fragment_shader 0044c0d0 f   cinder:GLee.obj
 0001:0004b0d0       ___GLeeLink_GL_SGIX_convolution_accuracy 0044c0d0 f   cinder:GLee.obj
 0001:0004b0d0       ___GLeeLink_GL_NV_vertex_program2_option 0044c0d0 f   cinder:GLee.obj
 0001:0004b0d0       ___GLeeLink_GL_SGI_depth_pass_instrument 0044c0d0 f   cinder:GLee.obj
 0001:0004b0d0       ___GLeeLink_GL_SGIX_ycrcba 0044c0d0 f   cinder:GLee.obj
 0001:0004b0d0       ___GLeeLink_GL_OES_byte_coordinates 0044c0d0 f   cinder:GLee.obj
 0001:0004b0d0       ___GLeeLink_GL_SGIX_interlace 0044c0d0 f   cinder:GLee.obj
 0001:0004b0d0       ___GLeeLink_GL_ARB_texture_cube_map 0044c0d0 f   cinder:GLee.obj
 0001:0004b0d0       ___GLeeLink_WGL_3DFX_multisample 0044c0d0 f   cinder:GLee.obj
 0001:0004b0d0       ___GLeeLink_WGL_EXT_framebuffer_sRGB 0044c0d0 f   cinder:GLee.obj
 0001:0004b0d0       ___GLeeLink_GL_EXT_texture_filter_anisotropic 0044c0d0 f   cinder:GLee.obj
 0001:0004b0d0       ___GLeeLink_GL_NV_light_max_exponent 0044c0d0 f   cinder:GLee.obj
 0001:0004b0d0       ___GLeeLink_GL_EXT_texture_compression_s3tc 0044c0d0 f   cinder:GLee.obj
 0001:0004b0d0       ___GLeeLink_GL_EXT_texture_env_combine 0044c0d0 f   cinder:GLee.obj
 0001:0004b0d0       ___GLeeLink_GL_EXT_texture_cube_map 0044c0d0 f   cinder:GLee.obj
 0001:0004b0d0       ___GLeeLink_GL_NV_texture_rectangle 0044c0d0 f   cinder:GLee.obj
 0001:0004b0d0       ___GLeeLink_GL_EXT_index_texture 0044c0d0 f   cinder:GLee.obj
 0001:0004b0d0       ___GLeeLink_GL_SGIX_ycrcb  0044c0d0 f   cinder:GLee.obj
 0001:0004b0d0       ___GLeeLink_GL_ATI_texture_env_combine3 0044c0d0 f   cinder:GLee.obj
 0001:0004b0d0       ___GLeeLink_GL_NV_blend_square 0044c0d0 f   cinder:GLee.obj
 0001:0004b0d0       ___GLeeLink_GL_MESA_pack_invert 0044c0d0 f   cinder:GLee.obj
 0001:0004b0d0       ___GLeeLink_GL_NV_present_video 0044c0d0 f   cinder:GLee.obj
 0001:0004b0d0       ___GLeeLink_GL_EXT_misc_attribute 0044c0d0 f   cinder:GLee.obj
 0001:0004b0d0       ___GLeeLink_GL_NV_depth_clamp 0044c0d0 f   cinder:GLee.obj
 0001:0004b0d0       ___GLeeLink_GL_ARB_pixel_buffer_object 0044c0d0 f   cinder:GLee.obj
 0001:0004b0d0       ___GLeeLink_GL_NV_texture_shader2 0044c0d0 f   cinder:GLee.obj
 0001:0004b0d0       ___GLeeLink_GL_NV_fragment_program_option 0044c0d0 f   cinder:GLee.obj
 0001:0004b0d0       ___GLeeLink_GL_INGR_color_clamp 0044c0d0 f   cinder:GLee.obj
 0001:0004b0d0       ___GLeeLink_GL_NV_texture_shader3 0044c0d0 f   cinder:GLee.obj
 0001:0004b0d0       ___GLeeLink_GL_APPLE_transform_hint 0044c0d0 f   cinder:GLee.obj
 0001:0004b0d0       ___GLeeLink_GL_ARB_texture_env_dot3 0044c0d0 f   cinder:GLee.obj
 0001:0004b0d0       ___GLeeLink_GL_ARB_depth_buffer_float 0044c0d0 f   cinder:GLee.obj
 0001:0004b0d0       ___GLeeLink_GL_SGIX_depth_texture 0044c0d0 f   cinder:GLee.obj
 0001:0004b0d0       ___GLeeLink_GL_NV_texture_expand_normal 0044c0d0 f   cinder:GLee.obj
 0001:0004b0d0       ___GLeeLink_GL_EXT_pixel_transform_color_table 0044c0d0 f   cinder:GLee.obj
 0001:0004b0d0       ___GLeeLink_GL_EXT_422_pixels 0044c0d0 f   cinder:GLee.obj
 0001:0004b0d0       ___GLeeLink_GL_EXT_texture_lod_bias 0044c0d0 f   cinder:GLee.obj
 0001:0004b0d0       ___GLeeLink_GL_EXT_separate_specular_color 0044c0d0 f   cinder:GLee.obj
 0001:0004b0d0       ___GLeeLink_GL_NV_texture_env_combine4 0044c0d0 f   cinder:GLee.obj
 0001:0004b0d0       ___GLeeLink_GL_SGIX_vertex_preclip 0044c0d0 f   cinder:GLee.obj
 0001:0004b0d0       ___GLeeLink_GL_EXT_clip_volume_hint 0044c0d0 f   cinder:GLee.obj
 0001:0004b0d0       ___GLeeLink_GL_NV_float_buffer 0044c0d0 f   cinder:GLee.obj
 0001:0004b0d0       ___GLeeLink_GL_NV_copy_depth_to_color 0044c0d0 f   cinder:GLee.obj
 0001:0004b0d0       ___GLeeLink_GL_ARB_texture_compression_rgtc 0044c0d0 f   cinder:GLee.obj
 0001:0004b0d0       ___GLeeLink_GL_SGIX_blend_alpha_minmax 0044c0d0 f   cinder:GLee.obj
 0001:0004b0d0       ___GLeeLink_GL_SGIX_texture_scale_bias 0044c0d0 f   cinder:GLee.obj
 0001:0004b0d0       ___GLeeLink_GL_SGIS_point_line_texgen 0044c0d0 f   cinder:GLee.obj
 0001:0004b0d0       ___GLeeLink_GL_NV_vertex_array_range2 0044c0d0 f   cinder:GLee.obj
 0001:0004b0d0       ___GLeeLink_GL_IBM_static_data 0044c0d0 f   cinder:GLee.obj
 0001:0004b0d0       ___GLeeLink_GL_SGIS_texture_border_clamp 0044c0d0 f   cinder:GLee.obj
 0001:0004b0d0       ___GLeeLink_GL_ARB_half_float_pixel 0044c0d0 f   cinder:GLee.obj
 0001:0004b0d0       ___GLeeLink_GL_SGIX_shadow 0044c0d0 f   cinder:GLee.obj
 0001:0004b0d0       ___GLeeLink_GL_SGI_color_matrix 0044c0d0 f   cinder:GLee.obj
 0001:0004b0d0       ___GLeeLink_GL_OES_compressed_paletted_texture 0044c0d0 f   cinder:GLee.obj
 0001:0004b0d0       ___GLeeLink_WGL_EXT_depth_float 0044c0d0 f   cinder:GLee.obj
 0001:0004b0d0       ___GLeeLink_GL_ARB_texture_border_clamp 0044c0d0 f   cinder:GLee.obj
 0001:0004b0d0       ___GLeeLink_GL_IBM_rasterpos_clip 0044c0d0 f   cinder:GLee.obj
 0001:0004b0d0       ___GLeeLink_GL_NV_texture_shader 0044c0d0 f   cinder:GLee.obj
 0001:0004b0d0       ___GLeeLink_GL_ARB_texture_rectangle 0044c0d0 f   cinder:GLee.obj
 0001:0004b0d0       ___GLeeLink_GL_ARB_shadow  0044c0d0 f   cinder:GLee.obj
 0001:0004b0d0       ___GLeeLink_GL_SUN_convolution_border_modes 0044c0d0 f   cinder:GLee.obj
 0001:0004b0d0       ___GLeeLink_GL_ARB_fragment_program 0044c0d0 f   cinder:GLee.obj
 0001:0004b0d0       ___GLeeLink_GL_NV_multisample_filter_hint 0044c0d0 f   cinder:GLee.obj
 0001:0004b0d0       ___GLeeLink_GL_EXT_shadow_funcs 0044c0d0 f   cinder:GLee.obj
 0001:0004b0d0       ___GLeeLink_GL_SGIX_impact_pixel_texture 0044c0d0 f   cinder:GLee.obj
 0001:0004b0d0       ___GLeeLink_GL_SGIX_clipmap 0044c0d0 f   cinder:GLee.obj
 0001:0004b0d0       ___GLeeLink_GL_SGIS_texture_select 0044c0d0 f   cinder:GLee.obj
 0001:0004b0d0       ___GLeeLink_GL_EXT_bgra    0044c0d0 f   cinder:GLee.obj
 0001:0004b0d0       ___GLeeLink_GL_INTEL_texture_scissor 0044c0d0 f   cinder:GLee.obj
 0001:0004b0d0       ___GLeeLink_WGL_ATI_pixel_format_float 0044c0d0 f   cinder:GLee.obj
 0001:0004b0d0       ___GLeeLink_GL_SGIX_scalebias_hint 0044c0d0 f   cinder:GLee.obj
 0001:0004b0d0       ___GLeeLink_GL_EXT_packed_pixels 0044c0d0 f   cinder:GLee.obj
 0001:0004b0d0       ___GLeeLink_GL_ARB_texture_env_crossbar 0044c0d0 f   cinder:GLee.obj
 0001:0004b0d0       ___GLeeLink_GL_SGIX_async_pixel 0044c0d0 f   cinder:GLee.obj
 0001:0004b0d0       ___GLeeLink_GL_ARB_fragment_shader 0044c0d0 f   cinder:GLee.obj
 0001:0004b0d0       ___GLeeLink_GL_SGI_texture_color_table 0044c0d0 f   cinder:GLee.obj
 0001:0004b0d0       ___GLeeLink_GL_WIN_phong_shading 0044c0d0 f   cinder:GLee.obj
 0001:0004b0d0       ___GLeeLink_GL_ARB_shading_language_100 0044c0d0 f   cinder:GLee.obj
 0001:0004b0d0       ___GLeeLink_GL_SGIX_calligraphic_fragment 0044c0d0 f   cinder:GLee.obj
 0001:0004b0d0       ___GLeeLink_GL_EXT_texture_env_add 0044c0d0 f   cinder:GLee.obj
 0001:0004b0d0       ___GLeeLink_WGL_NV_render_depth_texture 0044c0d0 f   cinder:GLee.obj
 0001:0004b0d0       ___GLeeLink_GL_ARB_point_sprite 0044c0d0 f   cinder:GLee.obj
 0001:0004b0d0       ___GLeeLink_GL_APPLE_client_storage 0044c0d0 f   cinder:GLee.obj
 0001:0004b0d0       ___GLeeLink_GL_NV_vertex_program2 0044c0d0 f   cinder:GLee.obj
 0001:0004b0d0       ___GLeeLink_GL_NV_vertex_program1_1 0044c0d0 f   cinder:GLee.obj
 0001:0004b0d0       ___GLeeLink_GL_ARB_imaging 0044c0d0 f   cinder:GLee.obj
 0001:0004b0d0       ___GLeeLink_GL_EXT_rescale_normal 0044c0d0 f   cinder:GLee.obj
 0001:0004b0d0       ___GLeeLink_GL_IBM_cull_vertex 0044c0d0 f   cinder:GLee.obj
 0001:0004b0d0       ___GLeeLink_GL_EXT_texture 0044c0d0 f   cinder:GLee.obj
 0001:0004b0d0       ___GLeeLink_GL_ARB_framebuffer_sRGB 0044c0d0 f   cinder:GLee.obj
 0001:0004b0d0       ___GLeeLink_GL_EXT_texture_env_dot3 0044c0d0 f   cinder:GLee.obj
 0001:0004b0d0       ___GLeeLink_WGL_NV_float_buffer 0044c0d0 f   cinder:GLee.obj
 0001:0004b0d0       ___GLeeLink_WGL_EXT_multisample 0044c0d0 f   cinder:GLee.obj
 0001:0004b0d0       ___GLeeLink_GL_OES_read_format 0044c0d0 f   cinder:GLee.obj
 0001:0004b0d0       ___GLeeLink_GL_EXT_pixel_buffer_object 0044c0d0 f   cinder:GLee.obj
 0001:0004b0d0       ___GLeeLink_GL_SGIX_subsample 0044c0d0 f   cinder:GLee.obj
 0001:0004b0d0       ___GLeeLink_GL_ARB_texture_env_add 0044c0d0 f   cinder:GLee.obj
 0001:0004b0d0       ___GLeeLink_WGL_NV_render_texture_rectangle 0044c0d0 f   cinder:GLee.obj
 0001:0004b0d0       ___GLeeLink_GL_SGIS_texture_edge_clamp 0044c0d0 f   cinder:GLee.obj
 0001:0004b0d0       ___GLeeLink_GL_SGIX_resample 0044c0d0 f   cinder:GLee.obj
 0001:0004b0d0       ___GLeeLink_GL_EXT_shared_texture_palette 0044c0d0 f   cinder:GLee.obj
 0001:0004b0d0       ___GLeeLink_GL_ARB_depth_texture 0044c0d0 f   cinder:GLee.obj
 0001:0004b0d0       ___GLeeLink_GL_NV_fragment_program2 0044c0d0 f   cinder:GLee.obj
 0001:0004b0d0       ___GLeeLink_GL_3DFX_texture_compression_FXT1 0044c0d0 f   cinder:GLee.obj
 0001:0004b0d0       ___GLeeLink_GL_ARB_texture_env_combine 0044c0d0 f   cinder:GLee.obj
 0001:0004b0d0       ___GLeeLink_GL_3DFX_multisample 0044c0d0 f   cinder:GLee.obj
 0001:0004b0d0       ___GLeeLink_GL_ARB_texture_mirrored_repeat 0044c0d0 f   cinder:GLee.obj
 0001:0004b0d0       ___GLeeLink_GL_EXT_stencil_wrap 0044c0d0 f   cinder:GLee.obj
 0001:0004b0d0       ___GLeeLink_GL_SGIX_fog_offset 0044c0d0 f   cinder:GLee.obj
 0001:0004b0d0       ___GLeeLink_GL_SGIX_texture_range 0044c0d0 f   cinder:GLee.obj
 0001:0004b0d0       ___GLeeLink_GL_EXT_abgr    0044c0d0 f   cinder:GLee.obj
 0001:0004b0d0       ___GLeeLink_GL_REND_screen_coordinates 0044c0d0 f   cinder:GLee.obj
 0001:0004b0d0       ___GLeeLink_GL_ATI_pixel_format_float 0044c0d0 f   cinder:GLee.obj
 0001:0004b0d0       ___GLeeLink_GL_EXT_texture_shared_exponent 0044c0d0 f   cinder:GLee.obj
 0001:0004b0d0       ___GLeeLink_GL_SGIX_texture_lod_bias 0044c0d0 f   cinder:GLee.obj
 0001:0004b0d0       ___GLeeLink_WGL_3DL_stereo_control 0044c0d0 f   cinder:GLee.obj
 0001:0004b0d0       ___GLeeLink_GL_SGIS_texture_lod 0044c0d0 f   cinder:GLee.obj
 0001:0004b0d0       ___GLeeLink_GL_SGIX_pixel_tiles 0044c0d0 f   cinder:GLee.obj
 0001:0004b0d0       ___GLeeLink_GL_EXT_texture_array 0044c0d0 f   cinder:GLee.obj
 0001:0004b0d0       ___GLeeLink_GL_EXT_packed_depth_stencil 0044c0d0 f   cinder:GLee.obj
 0001:0004b0d0       ___GLeeLink_GL_ARB_shadow_ambient 0044c0d0 f   cinder:GLee.obj
 0001:0004b0d0       ___GLeeLink_GL_S3_s3tc     0044c0d0 f   cinder:GLee.obj
 0001:0004b0d0       ___GLeeLink_GL_SGIX_texture_coordinate_clamp 0044c0d0 f   cinder:GLee.obj
 0001:0004b0d0       ___GLeeLink_GL_NV_texture_compression_vtc 0044c0d0 f   cinder:GLee.obj
 0001:0004b0d0       ___GLeeLink_GL_SGIX_async_histogram 0044c0d0 f   cinder:GLee.obj
 0001:0004b0d0       ___GLeeLink_WGL_EXT_pixel_format_packed_float 0044c0d0 f   cinder:GLee.obj
 0001:0004b0d0       ___GLeeLink_GL_EXT_framebuffer_sRGB 0044c0d0 f   cinder:GLee.obj
 0001:0004b0d0       ___GLeeLink_GL_OML_resample 0044c0d0 f   cinder:GLee.obj
 0001:0004b0d0       ___GLeeLink_GL_HP_convolution_border_modes 0044c0d0 f   cinder:GLee.obj
 0001:0004b0d0       ___GLeeLink_GL_ARB_texture_rg 0044c0d0 f   cinder:GLee.obj
 0001:0004b0d0       ___GLeeLink_GL_EXT_packed_float 0044c0d0 f   cinder:GLee.obj
 0001:0004b0d0       ___GLeeLink_GL_ARB_half_float_vertex 0044c0d0 f   cinder:GLee.obj
 0001:0004b0d0       ___GLeeLink_GL_EXT_texture_compression_latc 0044c0d0 f   cinder:GLee.obj
 0001:0004b0d0       ___GLeeLink_GL_SGIX_shadow_ambient 0044c0d0 f   cinder:GLee.obj
 0001:0004b0d0       ___GLeeLink_GL_SGIX_depth_pass_instrument 0044c0d0 f   cinder:GLee.obj
 0001:0004b0d0       ___GLeeLink_GL_SGIX_texture_multi_buffer 0044c0d0 f   cinder:GLee.obj
 0001:0004b0d0       ___GLeeLink_GL_OML_interlace 0044c0d0 f   cinder:GLee.obj
 0001:0004b0d0       ___GLeeLink_GL_INGR_palette_buffer 0044c0d0 f   cinder:GLee.obj
 0001:0004b0d0       ___GLeeLink_GL_EXT_index_array_formats 0044c0d0 f   cinder:GLee.obj
 0001:0004b0d0       ___GLeeLink_GL_NV_texgen_emboss 0044c0d0 f   cinder:GLee.obj
 0001:0004b0d0       ___GLeeLink_GL_ARB_texture_float 0044c0d0 f   cinder:GLee.obj
 0001:0004b0d0       ___GLeeLink_GL_EXT_texture_compression_rgtc 0044c0d0 f   cinder:GLee.obj
 0001:0004b0d0       ___GLeeLink_GL_FfdMaskSGIX 0044c0d0 f   cinder:GLee.obj
 0001:0004b0d0       ___GLeeLink_GL_EXT_blend_subtract 0044c0d0 f   cinder:GLee.obj
 0001:0004b0d0       ___GLeeLink_GL_MESA_ycbcr_texture 0044c0d0 f   cinder:GLee.obj
 0001:0004b0d0       ___GLeeLink_GL_OML_subsample 0044c0d0 f   cinder:GLee.obj
 0001:0004b0d0       ___GLeeLink_GL_ARB_texture_non_power_of_two 0044c0d0 f   cinder:GLee.obj
 0001:0004b0d0       ___GLeeLink_GL_EXT_texture_compression_dxt1 0044c0d0 f   cinder:GLee.obj
 0001:0004b0d0       ___GLeeLink_GL_APPLE_specular_vector 0044c0d0 f   cinder:GLee.obj
 0001:0004b0d0       ___GLeeLink_WGL_ARB_multisample 0044c0d0 f   cinder:GLee.obj
 0001:0004b0d0       ___GLeeLink_GL_NV_geometry_shader4 0044c0d0 f   cinder:GLee.obj
 0001:0004b0d0       ___GLeeLink_GL_SGIX_ycrcb_subsample 0044c0d0 f   cinder:GLee.obj
 0001:0004b0d0       ___GLeeLink_WGL_ARB_pixel_format_float 0044c0d0 f   cinder:GLee.obj
 0001:0004b0d0       ___GLeeLink_GL_EXT_vertex_array_bgra 0044c0d0 f   cinder:GLee.obj
 0001:0004b0d0       ___GLeeLink_GL_SGIX_texture_select 0044c0d0 f   cinder:GLee.obj
 0001:0004b0d0       ___GLeeLink_GL_NV_vertex_program3 0044c0d0 f   cinder:GLee.obj
 0001:0004b0d0       ___GLeeLink_GL_ATI_texture_mirror_once 0044c0d0 f   cinder:GLee.obj
 0001:0004b0d0       ___GLeeLink_GL_SGIX_fog_scale 0044c0d0 f   cinder:GLee.obj
 0001:0004b0d0       ___GLeeLink_GL_SUN_slice_accum 0044c0d0 f   cinder:GLee.obj
 0001:0004b0d0       ___GLeeLink_GL_NV_packed_depth_stencil 0044c0d0 f   cinder:GLee.obj
 0001:0004b0d0       ___GLeeLink_GL_SGIS_generate_mipmap 0044c0d0 f   cinder:GLee.obj
 0001:0004b0d0       ___GLeeLink_GL_SGIX_ir_instrument1 0044c0d0 f   cinder:GLee.obj
 0001:0004b0d0       ___GLeeLink_GL_ATI_texture_float 0044c0d0 f   cinder:GLee.obj
 0001:0004b0d0       ___GLeeLink_GL_SGIX_texture_add_env 0044c0d0 f   cinder:GLee.obj
 0001:0004b0d0       ___GLeeLink_GL_NV_fog_distance 0044c0d0 f   cinder:GLee.obj
 0001:0004b0d0       ___GLeeLink_GL_EXT_texture_mirror_clamp 0044c0d0 f   cinder:GLee.obj
 0001:0004b0d0       ___GLeeLink_GL_PGI_vertex_hints 0044c0d0 f   cinder:GLee.obj
 0001:0004b0d0       ___GLeeLink_GL_HP_occlusion_test 0044c0d0 f   cinder:GLee.obj
 0001:0004b0d0       ___GLeeLink_GL_EXT_texture_env 0044c0d0 f   cinder:GLee.obj
 0001:0004b0d0       ___GLeeLink_GL_WIN_specular_fog 0044c0d0 f   cinder:GLee.obj
 0001:0004b0d0       ___GLeeLink_GL_HP_texture_lighting 0044c0d0 f   cinder:GLee.obj
 0001:0004b0d0       ___GLeeLink_GL_IBM_texture_mirrored_repeat 0044c0d0 f   cinder:GLee.obj
 0001:0004b0d0       ___GLeeLink_GL_NV_texgen_reflection 0044c0d0 f   cinder:GLee.obj
 0001:0004b0d0       ___GLeeLink_GL_EXT_texture_sRGB 0044c0d0 f   cinder:GLee.obj
 0001:0004b0d0       ___GLeeLink_GL_EXT_cmyka   0044c0d0 f   cinder:GLee.obj
 0001:0004b0d0       ___GLeeLink_GL_SGIX_pixel_texture_bits 0044c0d0 f   cinder:GLee.obj
 0001:0004b0e0       ___GLeeLink_GL_ATI_envmap_bumpmap 0044c0e0 f   cinder:GLee.obj
 0001:0004b1a0       ___GLeeLink_GL_ATI_fragment_shader 0044c1a0 f   cinder:GLee.obj
 0001:0004b3d0       ___GLeeLink_GL_ATI_pn_triangles 0044c3d0 f   cinder:GLee.obj
 0001:0004b450       ___GLeeLink_GL_ATI_vertex_array_object 0044c450 f   cinder:GLee.obj
 0001:0004b630       ___GLeeLink_GL_EXT_vertex_shader 0044c630 f   cinder:GLee.obj
 0001:0004bc50       ___GLeeLink_GL_ATI_vertex_streams 0044cc50 f   cinder:GLee.obj
 0001:0004c2d0       ___GLeeLink_GL_ATI_element_array 0044d2d0 f   cinder:GLee.obj
 0001:0004c370       ___GLeeLink_GL_SUN_mesh_array 0044d370 f   cinder:GLee.obj
 0001:0004c3c0       ___GLeeLink_GL_NV_occlusion_query 0044d3c0 f   cinder:GLee.obj
 0001:0004c4f0       ___GLeeLink_GL_NV_point_sprite 0044d4f0 f   cinder:GLee.obj
 0001:0004c570       ___GLeeLink_GL_EXT_stencil_two_side 0044d570 f   cinder:GLee.obj
 0001:0004c5c0       ___GLeeLink_GL_APPLE_element_array 0044d5c0 f   cinder:GLee.obj
 0001:0004c6a0       ___GLeeLink_GL_APPLE_fence 0044d6a0 f   cinder:GLee.obj
 0001:0004c7f0       ___GLeeLink_GL_APPLE_vertex_array_object 0044d7f0 f   cinder:GLee.obj
 0001:0004c8b0       ___GLeeLink_GL_APPLE_vertex_array_range 0044d8b0 f   cinder:GLee.obj
 0001:0004c950       ___GLeeLink_GL_ATI_draw_buffers 0044d950 f   cinder:GLee.obj
 0001:0004c9a0       ___GLeeLink_GL_NV_fragment_program 0044d9a0 f   cinder:GLee.obj
 0001:0004cab0       ___GLeeLink_GL_NV_half_float 0044dab0 f   cinder:GLee.obj
 0001:0004d160       ___GLeeLink_GL_NV_pixel_data_range 0044e160 f   cinder:GLee.obj
 0001:0004d1e0       ___GLeeLink_GL_NV_primitive_restart 0044e1e0 f   cinder:GLee.obj
 0001:0004d260       ___GLeeLink_GL_ATI_map_object_buffer 0044e260 f   cinder:GLee.obj
 0001:0004d2e0       ___GLeeLink_GL_ATI_separate_stencil 0044e2e0 f   cinder:GLee.obj
 0001:0004d360       ___GLeeLink_GL_ATI_vertex_attrib_array_object 0044e360 f   cinder:GLee.obj
 0001:0004d400       ___GLeeLink_GL_EXT_depth_bounds_test 0044e400 f   cinder:GLee.obj
 0001:0004d450       ___GLeeLink_GL_EXT_blend_equation_separate 0044e450 f   cinder:GLee.obj
 0001:0004d4a0       ___GLeeLink_GL_EXT_framebuffer_object 0044e4a0 f   cinder:GLee.obj
 0001:0004d730       ___GLeeLink_GL_GREMEDY_string_marker 0044e730 f   cinder:GLee.obj
 0001:0004d780       ___GLeeLink_GL_EXT_stencil_clear_tag 0044e780 f   cinder:GLee.obj
 0001:0004d7d0       ___GLeeLink_GL_EXT_framebuffer_blit 0044e7d0 f   cinder:GLee.obj
 0001:0004d820       ___GLeeLink_GL_EXT_framebuffer_multisample 0044e820 f   cinder:GLee.obj
 0001:0004d870       ___GLeeLink_GL_EXT_timer_query 0044e870 f   cinder:GLee.obj
 0001:0004d8f0       ___GLeeLink_GL_EXT_gpu_program_parameters 0044e8f0 f   cinder:GLee.obj
 0001:0004d970       ___GLeeLink_GL_APPLE_flush_buffer_range 0044e970 f   cinder:GLee.obj
 0001:0004d9f0       ___GLeeLink_GL_EXT_gpu_shader4 0044e9f0 f   cinder:GLee.obj
 0001:0004dbb0       ___GLeeLink_GL_EXT_draw_instanced 0044ebb0 f   cinder:GLee.obj
 0001:0004dc30       ___GLeeLink_GL_EXT_texture_buffer_object 0044ec30 f   cinder:GLee.obj
 0001:0004dc80       ___GLeeLink_GL_NV_depth_buffer_float 0044ec80 f   cinder:GLee.obj
 0001:0004dd20       ___GLeeLink_GL_NV_framebuffer_multisample_coverage 0044ed20 f   cinder:GLee.obj
 0001:0004dd70       ___GLeeLink_GL_NV_parameter_buffer_object 0044ed70 f   cinder:GLee.obj
 0001:0004de10       ___GLeeLink_GL_EXT_draw_buffers2 0044ee10 f   cinder:GLee.obj
 0001:0004df20       ___GLeeLink_GL_NV_transform_feedback 0044ef20 f   cinder:GLee.obj
 0001:0004e0e0       ___GLeeLink_GL_EXT_bindable_uniform 0044f0e0 f   cinder:GLee.obj
 0001:0004e180       ___GLeeLink_GL_EXT_texture_integer 0044f180 f   cinder:GLee.obj
 0001:0004e290       ___GLeeLink_GL_GREMEDY_frame_terminator 0044f290 f   cinder:GLee.obj
 0001:0004e2e0       ___GLeeLink_GL_NV_conditional_render 0044f2e0 f   cinder:GLee.obj
 0001:0004e360       ___GLeeLink_GL_EXT_transform_feedback 0044f360 f   cinder:GLee.obj
 0001:0004e490       ___GLeeLink_GL_EXT_direct_state_access 0044f490 f   cinder:GLee.obj
 0001:0004fef0       ___GLeeLink_GL_NV_explicit_multisample 00450ef0 f   cinder:GLee.obj
 0001:0004ff90       ___GLeeLink_GL_NV_transform_feedback2 00450f90 f   cinder:GLee.obj
 0001:000500c0       ___GLeeLink_GL_INGR_blend_func_separate 004510c0 f   cinder:GLee.obj
 0001:00050110       ___GLeeLink_GL_SGIX_igloo_interface 00451110 f   cinder:GLee.obj
 0001:00050160       ___GLeeLink_GL_EXT_fragment_lighting 00451160 f   cinder:GLee.obj
 0001:00050420       ___GLeeLink_GL_EXT_geometry_shader4 00451420 f   cinder:GLee.obj
 0001:000504e0       ___GLeeLink_GL_EXT_scene_marker 004514e0 f   cinder:GLee.obj
 0001:00050560       ___GLeeLink_GL_NV_gpu_program4 00451560 f   cinder:GLee.obj
 0001:00050b50       ___GLeeLink_GL_OES_single_precision 00451b50 f   cinder:GLee.obj
 0001:00050c60       ___GLeeLink_WGL_ARB_buffer_region 00451c60 f   cinder:GLee.obj
 0001:00050d20       ___GLeeLink_WGL_ARB_extensions_string 00451d20 f   cinder:GLee.obj
 0001:00050d70       ___GLeeLink_WGL_ARB_pixel_format 00451d70 f   cinder:GLee.obj
 0001:00050e10       ___GLeeLink_WGL_ARB_make_current_read 00451e10 f   cinder:GLee.obj
 0001:00050e90       ___GLeeLink_WGL_ARB_pbuffer 00451e90 f   cinder:GLee.obj
 0001:00050f70       ___GLeeLink_WGL_ARB_render_texture 00451f70 f   cinder:GLee.obj
 0001:00051010       ___GLeeLink_WGL_ARB_create_context 00452010 f   cinder:GLee.obj
 0001:00051060       ___GLeeLink_WGL_EXT_make_current_read 00452060 f   cinder:GLee.obj
 0001:000510e0       ___GLeeLink_WGL_EXT_pixel_format 004520e0 f   cinder:GLee.obj
 0001:00051180       ___GLeeLink_WGL_EXT_pbuffer 00452180 f   cinder:GLee.obj
 0001:00051260       ___GLeeLink_WGL_I3D_digital_video_control 00452260 f   cinder:GLee.obj
 0001:000512e0       ___GLeeLink_WGL_I3D_gamma  004522e0 f   cinder:GLee.obj
 0001:000513a0       ___GLeeLink_WGL_I3D_genlock 004523a0 f   cinder:GLee.obj
 0001:00051580       ___GLeeLink_WGL_I3D_image_buffer 00452580 f   cinder:GLee.obj
 0001:00051640       ___GLeeLink_WGL_I3D_swap_frame_lock 00452640 f   cinder:GLee.obj
 0001:00051700       ___GLeeLink_WGL_NV_present_video 00452700 f   cinder:GLee.obj
 0001:000517a0       ___GLeeLink_WGL_NV_swap_group 004527a0 f   cinder:GLee.obj
 0001:000518b0       ___GLeeLink_WGL_NV_gpu_affinity 004528b0 f   cinder:GLee.obj
 0001:00051990       ___GLeeLink_WGL_EXT_display_color_table 00452990 f   cinder:GLee.obj
 0001:00051a50       ___GLeeLink_WGL_EXT_extensions_string 00452a50 f   cinder:GLee.obj
 0001:00051aa0       ___GLeeLink_WGL_EXT_swap_control 00452aa0 f   cinder:GLee.obj
 0001:00051b20       ___GLeeLink_WGL_NV_vertex_array_range 00452b20 f   cinder:GLee.obj
 0001:00051ba0       ___GLeeLink_WGL_OML_sync_control 00452ba0 f   cinder:GLee.obj
 0001:00051cb0       ___GLeeLink_WGL_I3D_swap_frame_usage 00452cb0 f   cinder:GLee.obj
 0001:00051d70       ___GLeeLink_WGL_NV_video_output 00452d70 f   cinder:GLee.obj
 0001:00051e80       ___GLeeExtList_init        00452e80 f   cinder:GLee.obj
 0001:00051eb0       ___GLeeExtList_clean       00452eb0 f   cinder:GLee.obj
 0001:00051f50       ___GLeeExtList_add         00452f50 f   cinder:GLee.obj
 0001:00052080       ___GLeeGetExtStrPlat       00453080 f   cinder:GLee.obj
 0001:000520c0       ___GLeeWriteError          004530c0 f   cinder:GLee.obj
 0001:00052110       ___GLeeGetVersionNumber    00453110 f   cinder:GLee.obj
 0001:00052140       ___GLeeGetExtensions       00453140 f   cinder:GLee.obj
 0001:000523f0       ___GLeeCheckExtension      004533f0 f   cinder:GLee.obj
 0001:00052490       _GLeeInit                  00453490 f   cinder:GLee.obj
 0001:00055730       _GLee_Lazy_glBlendColor@16 00456730 f   cinder:GLee.obj
 0001:00055770       _GLee_Lazy_glBlendEquation@4 00456770 f   cinder:GLee.obj
 0001:00055790       _GLee_Lazy_glDrawRangeElements@24 00456790 f   cinder:GLee.obj
 0001:000557d0       _GLee_Lazy_glColorTable@24 004567d0 f   cinder:GLee.obj
 0001:00055810       _GLee_Lazy_glColorTableParameterfv@12 00456810 f   cinder:GLee.obj
 0001:00055840       _GLee_Lazy_glColorTableParameteriv@12 00456840 f   cinder:GLee.obj
 0001:00055870       _GLee_Lazy_glCopyColorTable@20 00456870 f   cinder:GLee.obj
 0001:000558a0       _GLee_Lazy_glGetColorTable@16 004568a0 f   cinder:GLee.obj
 0001:000558d0       _GLee_Lazy_glGetColorTableParameterfv@12 004568d0 f   cinder:GLee.obj
 0001:00055900       _GLee_Lazy_glGetColorTableParameteriv@12 00456900 f   cinder:GLee.obj
 0001:00055930       _GLee_Lazy_glColorSubTable@24 00456930 f   cinder:GLee.obj
 0001:00055970       _GLee_Lazy_glCopyColorSubTable@20 00456970 f   cinder:GLee.obj
 0001:000559a0       _GLee_Lazy_glConvolutionFilter1D@24 004569a0 f   cinder:GLee.obj
 0001:000559e0       _GLee_Lazy_glConvolutionFilter2D@28 004569e0 f   cinder:GLee.obj
 0001:00055a20       _GLee_Lazy_glConvolutionParameterf@12 00456a20 f   cinder:GLee.obj
 0001:00055a50       _GLee_Lazy_glConvolutionParameterfv@12 00456a50 f   cinder:GLee.obj
 0001:00055a80       _GLee_Lazy_glConvolutionParameteri@12 00456a80 f   cinder:GLee.obj
 0001:00055ab0       _GLee_Lazy_glConvolutionParameteriv@12 00456ab0 f   cinder:GLee.obj
 0001:00055ae0       _GLee_Lazy_glCopyConvolutionFilter1D@20 00456ae0 f   cinder:GLee.obj
 0001:00055b10       _GLee_Lazy_glCopyConvolutionFilter2D@24 00456b10 f   cinder:GLee.obj
 0001:00055b50       _GLee_Lazy_glGetConvolutionFilter@16 00456b50 f   cinder:GLee.obj
 0001:00055b80       _GLee_Lazy_glGetConvolutionParameterfv@12 00456b80 f   cinder:GLee.obj
 0001:00055bb0       _GLee_Lazy_glGetConvolutionParameteriv@12 00456bb0 f   cinder:GLee.obj
 0001:00055be0       _GLee_Lazy_glGetSeparableFilter@24 00456be0 f   cinder:GLee.obj
 0001:00055c20       _GLee_Lazy_glSeparableFilter2D@32 00456c20 f   cinder:GLee.obj
 0001:00055c60       _GLee_Lazy_glGetHistogram@20 00456c60 f   cinder:GLee.obj
 0001:00055c90       _GLee_Lazy_glGetHistogramParameterfv@12 00456c90 f   cinder:GLee.obj
 0001:00055cc0       _GLee_Lazy_glGetHistogramParameteriv@12 00456cc0 f   cinder:GLee.obj
 0001:00055cf0       _GLee_Lazy_glGetMinmax@20  00456cf0 f   cinder:GLee.obj
 0001:00055d20       _GLee_Lazy_glGetMinmaxParameterfv@12 00456d20 f   cinder:GLee.obj
 0001:00055d50       _GLee_Lazy_glGetMinmaxParameteriv@12 00456d50 f   cinder:GLee.obj
 0001:00055d80       _GLee_Lazy_glHistogram@16  00456d80 f   cinder:GLee.obj
 0001:00055db0       _GLee_Lazy_glMinmax@12     00456db0 f   cinder:GLee.obj
 0001:00055de0       _GLee_Lazy_glResetHistogram@4 00456de0 f   cinder:GLee.obj
 0001:00055e00       _GLee_Lazy_glResetMinmax@4 00456e00 f   cinder:GLee.obj
 0001:00055e20       _GLee_Lazy_glTexImage3D@40 00456e20 f   cinder:GLee.obj
 0001:00055e70       _GLee_Lazy_glTexSubImage3D@44 00456e70 f   cinder:GLee.obj
 0001:00055ec0       _GLee_Lazy_glCopyTexSubImage3D@36 00456ec0 f   cinder:GLee.obj
 0001:00055f00       _GLee_Lazy_glActiveTexture@4 00456f00 f   cinder:GLee.obj
 0001:00055f20       _GLee_Lazy_glClientActiveTexture@4 00456f20 f   cinder:GLee.obj
 0001:00055f40       _GLee_Lazy_glMultiTexCoord1d@12 00456f40 f   cinder:GLee.obj
 0001:00055f70       _GLee_Lazy_glMultiTexCoord1dv@8 00456f70 f   cinder:GLee.obj
 0001:00055fa0       _GLee_Lazy_glMultiTexCoord1f@8 00456fa0 f   cinder:GLee.obj
 0001:00055fd0       _GLee_Lazy_glMultiTexCoord1fv@8 00456fd0 f   cinder:GLee.obj
 0001:00056000       _GLee_Lazy_glMultiTexCoord1i@8 00457000 f   cinder:GLee.obj
 0001:00056030       _GLee_Lazy_glMultiTexCoord1iv@8 00457030 f   cinder:GLee.obj
 0001:00056060       _GLee_Lazy_glMultiTexCoord1s@8 00457060 f   cinder:GLee.obj
 0001:00056090       _GLee_Lazy_glMultiTexCoord1sv@8 00457090 f   cinder:GLee.obj
 0001:000560c0       _GLee_Lazy_glMultiTexCoord2d@20 004570c0 f   cinder:GLee.obj
 0001:000560f0       _GLee_Lazy_glMultiTexCoord2dv@8 004570f0 f   cinder:GLee.obj
 0001:00056120       _GLee_Lazy_glMultiTexCoord2f@12 00457120 f   cinder:GLee.obj
 0001:00056150       _GLee_Lazy_glMultiTexCoord2fv@8 00457150 f   cinder:GLee.obj
 0001:00056180       _GLee_Lazy_glMultiTexCoord2i@12 00457180 f   cinder:GLee.obj
 0001:000561b0       _GLee_Lazy_glMultiTexCoord2iv@8 004571b0 f   cinder:GLee.obj
 0001:000561e0       _GLee_Lazy_glMultiTexCoord2s@12 004571e0 f   cinder:GLee.obj
 0001:00056210       _GLee_Lazy_glMultiTexCoord2sv@8 00457210 f   cinder:GLee.obj
 0001:00056240       _GLee_Lazy_glMultiTexCoord3d@28 00457240 f   cinder:GLee.obj
 0001:00056280       _GLee_Lazy_glMultiTexCoord3dv@8 00457280 f   cinder:GLee.obj
 0001:000562b0       _GLee_Lazy_glMultiTexCoord3f@16 004572b0 f   cinder:GLee.obj
 0001:000562f0       _GLee_Lazy_glMultiTexCoord3fv@8 004572f0 f   cinder:GLee.obj
 0001:00056320       _GLee_Lazy_glMultiTexCoord3i@16 00457320 f   cinder:GLee.obj
 0001:00056350       _GLee_Lazy_glMultiTexCoord3iv@8 00457350 f   cinder:GLee.obj
 0001:00056380       _GLee_Lazy_glMultiTexCoord3s@16 00457380 f   cinder:GLee.obj
 0001:000563b0       _GLee_Lazy_glMultiTexCoord3sv@8 004573b0 f   cinder:GLee.obj
 0001:000563e0       _GLee_Lazy_glMultiTexCoord4d@36 004573e0 f   cinder:GLee.obj
 0001:00056430       _GLee_Lazy_glMultiTexCoord4dv@8 00457430 f   cinder:GLee.obj
 0001:00056460       _GLee_Lazy_glMultiTexCoord4f@20 00457460 f   cinder:GLee.obj
 0001:000564a0       _GLee_Lazy_glMultiTexCoord4fv@8 004574a0 f   cinder:GLee.obj
 0001:000564d0       _GLee_Lazy_glMultiTexCoord4i@20 004574d0 f   cinder:GLee.obj
 0001:00056500       _GLee_Lazy_glMultiTexCoord4iv@8 00457500 f   cinder:GLee.obj
 0001:00056530       _GLee_Lazy_glMultiTexCoord4s@20 00457530 f   cinder:GLee.obj
 0001:00056570       _GLee_Lazy_glMultiTexCoord4sv@8 00457570 f   cinder:GLee.obj
 0001:000565a0       _GLee_Lazy_glLoadTransposeMatrixf@4 004575a0 f   cinder:GLee.obj
 0001:000565c0       _GLee_Lazy_glLoadTransposeMatrixd@4 004575c0 f   cinder:GLee.obj
 0001:000565e0       _GLee_Lazy_glMultTransposeMatrixf@4 004575e0 f   cinder:GLee.obj
 0001:00056600       _GLee_Lazy_glMultTransposeMatrixd@4 00457600 f   cinder:GLee.obj
 0001:00056620       _GLee_Lazy_glSampleCoverage@8 00457620 f   cinder:GLee.obj
 0001:00056650       _GLee_Lazy_glCompressedTexImage3D@36 00457650 f   cinder:GLee.obj
 0001:00056690       _GLee_Lazy_glCompressedTexImage2D@32 00457690 f   cinder:GLee.obj
 0001:000566d0       _GLee_Lazy_glCompressedTexImage1D@28 004576d0 f   cinder:GLee.obj
 0001:00056710       _GLee_Lazy_glCompressedTexSubImage3D@44 00457710 f   cinder:GLee.obj
 0001:00056760       _GLee_Lazy_glCompressedTexSubImage2D@36 00457760 f   cinder:GLee.obj
 0001:000567a0       _GLee_Lazy_glCompressedTexSubImage1D@28 004577a0 f   cinder:GLee.obj
 0001:000567e0       _GLee_Lazy_glGetCompressedTexImage@12 004577e0 f   cinder:GLee.obj
 0001:00056810       _GLee_Lazy_glBlendFuncSeparate@16 00457810 f   cinder:GLee.obj
 0001:00056840       _GLee_Lazy_glFogCoordf@4   00457840 f   cinder:GLee.obj
 0001:00056860       _GLee_Lazy_glFogCoordfv@4  00457860 f   cinder:GLee.obj
 0001:00056880       _GLee_Lazy_glFogCoordd@8   00457880 f   cinder:GLee.obj
 0001:000568b0       _GLee_Lazy_glFogCoorddv@4  004578b0 f   cinder:GLee.obj
 0001:000568d0       _GLee_Lazy_glFogCoordPointer@12 004578d0 f   cinder:GLee.obj
 0001:00056900       _GLee_Lazy_glMultiDrawArrays@16 00457900 f   cinder:GLee.obj
 0001:00056930       _GLee_Lazy_glMultiDrawElements@20 00457930 f   cinder:GLee.obj
 0001:00056960       _GLee_Lazy_glPointParameterf@8 00457960 f   cinder:GLee.obj
 0001:00056990       _GLee_Lazy_glPointParameterfv@8 00457990 f   cinder:GLee.obj
 0001:000569c0       _GLee_Lazy_glPointParameteri@8 004579c0 f   cinder:GLee.obj
 0001:000569f0       _GLee_Lazy_glPointParameteriv@8 004579f0 f   cinder:GLee.obj
 0001:00056a20       _GLee_Lazy_glSecondaryColor3b@12 00457a20 f   cinder:GLee.obj
 0001:00056a50       _GLee_Lazy_glSecondaryColor3bv@4 00457a50 f   cinder:GLee.obj
 0001:00056a70       _GLee_Lazy_glSecondaryColor3d@24 00457a70 f   cinder:GLee.obj
 0001:00056ab0       _GLee_Lazy_glSecondaryColor3dv@4 00457ab0 f   cinder:GLee.obj
 0001:00056ad0       _GLee_Lazy_glSecondaryColor3f@12 00457ad0 f   cinder:GLee.obj
 0001:00056b00       _GLee_Lazy_glSecondaryColor3fv@4 00457b00 f   cinder:GLee.obj
 0001:00056b20       _GLee_Lazy_glSecondaryColor3i@12 00457b20 f   cinder:GLee.obj
 0001:00056b50       _GLee_Lazy_glSecondaryColor3iv@4 00457b50 f   cinder:GLee.obj
 0001:00056b70       _GLee_Lazy_glSecondaryColor3s@12 00457b70 f   cinder:GLee.obj
 0001:00056ba0       _GLee_Lazy_glSecondaryColor3sv@4 00457ba0 f   cinder:GLee.obj
 0001:00056bc0       _GLee_Lazy_glSecondaryColor3ub@12 00457bc0 f   cinder:GLee.obj
 0001:00056bf0       _GLee_Lazy_glSecondaryColor3ubv@4 00457bf0 f   cinder:GLee.obj
 0001:00056c10       _GLee_Lazy_glSecondaryColor3ui@12 00457c10 f   cinder:GLee.obj
 0001:00056c40       _GLee_Lazy_glSecondaryColor3uiv@4 00457c40 f   cinder:GLee.obj
 0001:00056c60       _GLee_Lazy_glSecondaryColor3us@12 00457c60 f   cinder:GLee.obj
 0001:00056c90       _GLee_Lazy_glSecondaryColor3usv@4 00457c90 f   cinder:GLee.obj
 0001:00056cb0       _GLee_Lazy_glSecondaryColorPointer@16 00457cb0 f   cinder:GLee.obj
 0001:00056ce0       _GLee_Lazy_glWindowPos2d@16 00457ce0 f   cinder:GLee.obj
 0001:00056d10       _GLee_Lazy_glWindowPos2dv@4 00457d10 f   cinder:GLee.obj
 0001:00056d30       _GLee_Lazy_glWindowPos2f@8 00457d30 f   cinder:GLee.obj
 0001:00056d60       _GLee_Lazy_glWindowPos2fv@4 00457d60 f   cinder:GLee.obj
 0001:00056d80       _GLee_Lazy_glWindowPos2i@8 00457d80 f   cinder:GLee.obj
 0001:00056db0       _GLee_Lazy_glWindowPos2iv@4 00457db0 f   cinder:GLee.obj
 0001:00056dd0       _GLee_Lazy_glWindowPos2s@8 00457dd0 f   cinder:GLee.obj
 0001:00056e00       _GLee_Lazy_glWindowPos2sv@4 00457e00 f   cinder:GLee.obj
 0001:00056e20       _GLee_Lazy_glWindowPos3d@24 00457e20 f   cinder:GLee.obj
 0001:00056e60       _GLee_Lazy_glWindowPos3dv@4 00457e60 f   cinder:GLee.obj
 0001:00056e80       _GLee_Lazy_glWindowPos3f@12 00457e80 f   cinder:GLee.obj
 0001:00056eb0       _GLee_Lazy_glWindowPos3fv@4 00457eb0 f   cinder:GLee.obj
 0001:00056ed0       _GLee_Lazy_glWindowPos3i@12 00457ed0 f   cinder:GLee.obj
 0001:00056f00       _GLee_Lazy_glWindowPos3iv@4 00457f00 f   cinder:GLee.obj
 0001:00056f20       _GLee_Lazy_glWindowPos3s@12 00457f20 f   cinder:GLee.obj
 0001:00056f50       _GLee_Lazy_glWindowPos3sv@4 00457f50 f   cinder:GLee.obj
 0001:00056f70       _GLee_Lazy_glGenQueries@8  00457f70 f   cinder:GLee.obj
 0001:00056fa0       _GLee_Lazy_glDeleteQueries@8 00457fa0 f   cinder:GLee.obj
 0001:00056fd0       _GLee_Lazy_glIsQuery@4     00457fd0 f   cinder:GLee.obj
 0001:00057000       _GLee_Lazy_glBeginQuery@8  00458000 f   cinder:GLee.obj
 0001:00057030       _GLee_Lazy_glEndQuery@4    00458030 f   cinder:GLee.obj
 0001:00057050       _GLee_Lazy_glGetQueryiv@12 00458050 f   cinder:GLee.obj
 0001:00057080       _GLee_Lazy_glGetQueryObjectiv@12 00458080 f   cinder:GLee.obj
 0001:000570b0       _GLee_Lazy_glGetQueryObjectuiv@12 004580b0 f   cinder:GLee.obj
 0001:000570e0       _GLee_Lazy_glBindBuffer@8  004580e0 f   cinder:GLee.obj
 0001:00057110       _GLee_Lazy_glDeleteBuffers@8 00458110 f   cinder:GLee.obj
 0001:00057140       _GLee_Lazy_glGenBuffers@8  00458140 f   cinder:GLee.obj
 0001:00057170       _GLee_Lazy_glIsBuffer@4    00458170 f   cinder:GLee.obj
 0001:000571a0       _GLee_Lazy_glBufferData@16 004581a0 f   cinder:GLee.obj
 0001:000571d0       _GLee_Lazy_glBufferSubData@16 004581d0 f   cinder:GLee.obj
 0001:00057200       _GLee_Lazy_glGetBufferSubData@16 00458200 f   cinder:GLee.obj
 0001:00057230       _GLee_Lazy_glMapBuffer@8   00458230 f   cinder:GLee.obj
 0001:00057260       _GLee_Lazy_glUnmapBuffer@4 00458260 f   cinder:GLee.obj
 0001:00057290       _GLee_Lazy_glGetBufferParameteriv@12 00458290 f   cinder:GLee.obj
 0001:000572c0       _GLee_Lazy_glGetBufferPointerv@12 004582c0 f   cinder:GLee.obj
 0001:000572f0       _GLee_Lazy_glBlendEquationSeparate@8 004582f0 f   cinder:GLee.obj
 0001:00057320       _GLee_Lazy_glDrawBuffers@8 00458320 f   cinder:GLee.obj
 0001:00057350       _GLee_Lazy_glStencilOpSeparate@16 00458350 f   cinder:GLee.obj
 0001:00057380       _GLee_Lazy_glStencilFuncSeparate@16 00458380 f   cinder:GLee.obj
 0001:000573b0       _GLee_Lazy_glStencilMaskSeparate@8 004583b0 f   cinder:GLee.obj
 0001:000573e0       _GLee_Lazy_glAttachShader@8 004583e0 f   cinder:GLee.obj
 0001:00057410       _GLee_Lazy_glBindAttribLocation@12 00458410 f   cinder:GLee.obj
 0001:00057440       _GLee_Lazy_glCompileShader@4 00458440 f   cinder:GLee.obj
 0001:00057460       _GLee_Lazy_glCreateProgram@0 00458460 f   cinder:GLee.obj
 0001:00057480       _GLee_Lazy_glCreateShader@4 00458480 f   cinder:GLee.obj
 0001:000574b0       _GLee_Lazy_glDeleteProgram@4 004584b0 f   cinder:GLee.obj
 0001:000574d0       _GLee_Lazy_glDeleteShader@4 004584d0 f   cinder:GLee.obj
 0001:000574f0       _GLee_Lazy_glDetachShader@8 004584f0 f   cinder:GLee.obj
 0001:00057520       _GLee_Lazy_glDisableVertexAttribArray@4 00458520 f   cinder:GLee.obj
 0001:00057540       _GLee_Lazy_glEnableVertexAttribArray@4 00458540 f   cinder:GLee.obj
 0001:00057560       _GLee_Lazy_glGetActiveAttrib@28 00458560 f   cinder:GLee.obj
 0001:000575a0       _GLee_Lazy_glGetActiveUniform@28 004585a0 f   cinder:GLee.obj
 0001:000575e0       _GLee_Lazy_glGetAttachedShaders@16 004585e0 f   cinder:GLee.obj
 0001:00057610       _GLee_Lazy_glGetAttribLocation@8 00458610 f   cinder:GLee.obj
 0001:00057640       _GLee_Lazy_glGetProgramiv@12 00458640 f   cinder:GLee.obj
 0001:00057670       _GLee_Lazy_glGetProgramInfoLog@16 00458670 f   cinder:GLee.obj
 0001:000576a0       _GLee_Lazy_glGetShaderiv@12 004586a0 f   cinder:GLee.obj
 0001:000576d0       _GLee_Lazy_glGetShaderInfoLog@16 004586d0 f   cinder:GLee.obj
 0001:00057700       _GLee_Lazy_glGetShaderSource@16 00458700 f   cinder:GLee.obj
 0001:00057730       _GLee_Lazy_glGetUniformLocation@8 00458730 f   cinder:GLee.obj
 0001:00057760       _GLee_Lazy_glGetUniformfv@12 00458760 f   cinder:GLee.obj
 0001:00057790       _GLee_Lazy_glGetUniformiv@12 00458790 f   cinder:GLee.obj
 0001:000577c0       _GLee_Lazy_glGetVertexAttribdv@12 004587c0 f   cinder:GLee.obj
 0001:000577f0       _GLee_Lazy_glGetVertexAttribfv@12 004587f0 f   cinder:GLee.obj
 0001:00057820       _GLee_Lazy_glGetVertexAttribiv@12 00458820 f   cinder:GLee.obj
 0001:00057850       _GLee_Lazy_glGetVertexAttribPointerv@12 00458850 f   cinder:GLee.obj
 0001:00057880       _GLee_Lazy_glIsProgram@4   00458880 f   cinder:GLee.obj
 0001:000578b0       _GLee_Lazy_glIsShader@4    004588b0 f   cinder:GLee.obj
 0001:000578e0       _GLee_Lazy_glLinkProgram@4 004588e0 f   cinder:GLee.obj
 0001:00057900       _GLee_Lazy_glShaderSource@16 00458900 f   cinder:GLee.obj
 0001:00057930       _GLee_Lazy_glUseProgram@4  00458930 f   cinder:GLee.obj
 0001:00057950       _GLee_Lazy_glUniform1f@8   00458950 f   cinder:GLee.obj
 0001:00057980       _GLee_Lazy_glUniform2f@12  00458980 f   cinder:GLee.obj
 0001:000579b0       _GLee_Lazy_glUniform3f@16  004589b0 f   cinder:GLee.obj
 0001:000579f0       _GLee_Lazy_glUniform4f@20  004589f0 f   cinder:GLee.obj
 0001:00057a30       _GLee_Lazy_glUniform1i@8   00458a30 f   cinder:GLee.obj
 0001:00057a60       _GLee_Lazy_glUniform2i@12  00458a60 f   cinder:GLee.obj
 0001:00057a90       _GLee_Lazy_glUniform3i@16  00458a90 f   cinder:GLee.obj
 0001:00057ac0       _GLee_Lazy_glUniform4i@20  00458ac0 f   cinder:GLee.obj
 0001:00057af0       _GLee_Lazy_glUniform1fv@12 00458af0 f   cinder:GLee.obj
 0001:00057b20       _GLee_Lazy_glUniform2fv@12 00458b20 f   cinder:GLee.obj
 0001:00057b50       _GLee_Lazy_glUniform3fv@12 00458b50 f   cinder:GLee.obj
 0001:00057b80       _GLee_Lazy_glUniform4fv@12 00458b80 f   cinder:GLee.obj
 0001:00057bb0       _GLee_Lazy_glUniform1iv@12 00458bb0 f   cinder:GLee.obj
 0001:00057be0       _GLee_Lazy_glUniform2iv@12 00458be0 f   cinder:GLee.obj
 0001:00057c10       _GLee_Lazy_glUniform3iv@12 00458c10 f   cinder:GLee.obj
 0001:00057c40       _GLee_Lazy_glUniform4iv@12 00458c40 f   cinder:GLee.obj
 0001:00057c70       _GLee_Lazy_glUniformMatrix2fv@16 00458c70 f   cinder:GLee.obj
 0001:00057ca0       _GLee_Lazy_glUniformMatrix3fv@16 00458ca0 f   cinder:GLee.obj
 0001:00057cd0       _GLee_Lazy_glUniformMatrix4fv@16 00458cd0 f   cinder:GLee.obj
 0001:00057d00       _GLee_Lazy_glValidateProgram@4 00458d00 f   cinder:GLee.obj
 0001:00057d20       _GLee_Lazy_glVertexAttrib1d@12 00458d20 f   cinder:GLee.obj
 0001:00057d50       _GLee_Lazy_glVertexAttrib1dv@8 00458d50 f   cinder:GLee.obj
 0001:00057d80       _GLee_Lazy_glVertexAttrib1f@8 00458d80 f   cinder:GLee.obj
 0001:00057db0       _GLee_Lazy_glVertexAttrib1fv@8 00458db0 f   cinder:GLee.obj
 0001:00057de0       _GLee_Lazy_glVertexAttrib1s@8 00458de0 f   cinder:GLee.obj
 0001:00057e10       _GLee_Lazy_glVertexAttrib1sv@8 00458e10 f   cinder:GLee.obj
 0001:00057e40       _GLee_Lazy_glVertexAttrib2d@20 00458e40 f   cinder:GLee.obj
 0001:00057e70       _GLee_Lazy_glVertexAttrib2dv@8 00458e70 f   cinder:GLee.obj
 0001:00057ea0       _GLee_Lazy_glVertexAttrib2f@12 00458ea0 f   cinder:GLee.obj
 0001:00057ed0       _GLee_Lazy_glVertexAttrib2fv@8 00458ed0 f   cinder:GLee.obj
 0001:00057f00       _GLee_Lazy_glVertexAttrib2s@12 00458f00 f   cinder:GLee.obj
 0001:00057f30       _GLee_Lazy_glVertexAttrib2sv@8 00458f30 f   cinder:GLee.obj
 0001:00057f60       _GLee_Lazy_glVertexAttrib3d@28 00458f60 f   cinder:GLee.obj
 0001:00057fa0       _GLee_Lazy_glVertexAttrib3dv@8 00458fa0 f   cinder:GLee.obj
 0001:00057fd0       _GLee_Lazy_glVertexAttrib3f@16 00458fd0 f   cinder:GLee.obj
 0001:00058010       _GLee_Lazy_glVertexAttrib3fv@8 00459010 f   cinder:GLee.obj
 0001:00058040       _GLee_Lazy_glVertexAttrib3s@16 00459040 f   cinder:GLee.obj
 0001:00058070       _GLee_Lazy_glVertexAttrib3sv@8 00459070 f   cinder:GLee.obj
 0001:000580a0       _GLee_Lazy_glVertexAttrib4Nbv@8 004590a0 f   cinder:GLee.obj
 0001:000580d0       _GLee_Lazy_glVertexAttrib4Niv@8 004590d0 f   cinder:GLee.obj
 0001:00058100       _GLee_Lazy_glVertexAttrib4Nsv@8 00459100 f   cinder:GLee.obj
 0001:00058130       _GLee_Lazy_glVertexAttrib4Nub@20 00459130 f   cinder:GLee.obj
 0001:00058170       _GLee_Lazy_glVertexAttrib4Nubv@8 00459170 f   cinder:GLee.obj
 0001:000581a0       _GLee_Lazy_glVertexAttrib4Nuiv@8 004591a0 f   cinder:GLee.obj
 0001:000581d0       _GLee_Lazy_glVertexAttrib4Nusv@8 004591d0 f   cinder:GLee.obj
 0001:00058200       _GLee_Lazy_glVertexAttrib4bv@8 00459200 f   cinder:GLee.obj
 0001:00058230       _GLee_Lazy_glVertexAttrib4d@36 00459230 f   cinder:GLee.obj
 0001:00058280       _GLee_Lazy_glVertexAttrib4dv@8 00459280 f   cinder:GLee.obj
 0001:000582b0       _GLee_Lazy_glVertexAttrib4f@20 004592b0 f   cinder:GLee.obj
 0001:000582f0       _GLee_Lazy_glVertexAttrib4fv@8 004592f0 f   cinder:GLee.obj
 0001:00058320       _GLee_Lazy_glVertexAttrib4iv@8 00459320 f   cinder:GLee.obj
 0001:00058350       _GLee_Lazy_glVertexAttrib4s@20 00459350 f   cinder:GLee.obj
 0001:00058390       _GLee_Lazy_glVertexAttrib4sv@8 00459390 f   cinder:GLee.obj
 0001:000583c0       _GLee_Lazy_glVertexAttrib4ubv@8 004593c0 f   cinder:GLee.obj
 0001:000583f0       _GLee_Lazy_glVertexAttrib4uiv@8 004593f0 f   cinder:GLee.obj
 0001:00058420       _GLee_Lazy_glVertexAttrib4usv@8 00459420 f   cinder:GLee.obj
 0001:00058450       _GLee_Lazy_glVertexAttribPointer@24 00459450 f   cinder:GLee.obj
 0001:00058490       _GLee_Lazy_glUniformMatrix2x3fv@16 00459490 f   cinder:GLee.obj
 0001:000584c0       _GLee_Lazy_glUniformMatrix3x2fv@16 004594c0 f   cinder:GLee.obj
 0001:000584f0       _GLee_Lazy_glUniformMatrix2x4fv@16 004594f0 f   cinder:GLee.obj
 0001:00058520       _GLee_Lazy_glUniformMatrix4x2fv@16 00459520 f   cinder:GLee.obj
 0001:00058550       _GLee_Lazy_glUniformMatrix3x4fv@16 00459550 f   cinder:GLee.obj
 0001:00058580       _GLee_Lazy_glUniformMatrix4x3fv@16 00459580 f   cinder:GLee.obj
 0001:000585b0       _GLee_Lazy_glColorMaski@20 004595b0 f   cinder:GLee.obj
 0001:000585f0       _GLee_Lazy_glGetBooleani_v@12 004595f0 f   cinder:GLee.obj
 0001:00058620       _GLee_Lazy_glGetIntegeri_v@12 00459620 f   cinder:GLee.obj
 0001:00058650       _GLee_Lazy_glEnablei@8     00459650 f   cinder:GLee.obj
 0001:00058680       _GLee_Lazy_glDisablei@8    00459680 f   cinder:GLee.obj
 0001:000586b0       _GLee_Lazy_glIsEnabledi@8  004596b0 f   cinder:GLee.obj
 0001:000586e0       _GLee_Lazy_glBeginTransformFeedback@4 004596e0 f   cinder:GLee.obj
 0001:00058700       _GLee_Lazy_glEndTransformFeedback@0 00459700 f   cinder:GLee.obj
 0001:00058720       _GLee_Lazy_glBindBufferRange@20 00459720 f   cinder:GLee.obj
 0001:00058750       _GLee_Lazy_glBindBufferBase@12 00459750 f   cinder:GLee.obj
 0001:00058780       _GLee_Lazy_glTransformFeedbackVaryings@16 00459780 f   cinder:GLee.obj
 0001:000587b0       _GLee_Lazy_glGetTransformFeedbackVarying@12 004597b0 f   cinder:GLee.obj
 0001:000587e0       _GLee_Lazy_glClampColor@8  004597e0 f   cinder:GLee.obj
 0001:00058810       _GLee_Lazy_glBeginConditionalRender@8 00459810 f   cinder:GLee.obj
 0001:00058840       _GLee_Lazy_glEndConditionalRender@0 00459840 f   cinder:GLee.obj
 0001:00058860       _GLee_Lazy_glVertexAttribI1i@8 00459860 f   cinder:GLee.obj
 0001:00058890       _GLee_Lazy_glVertexAttribI2i@12 00459890 f   cinder:GLee.obj
 0001:000588c0       _GLee_Lazy_glVertexAttribI3i@16 004598c0 f   cinder:GLee.obj
 0001:000588f0       _GLee_Lazy_glVertexAttribI4i@20 004598f0 f   cinder:GLee.obj
 0001:00058920       _GLee_Lazy_glVertexAttribI1ui@8 00459920 f   cinder:GLee.obj
 0001:00058950       _GLee_Lazy_glVertexAttribI2ui@12 00459950 f   cinder:GLee.obj
 0001:00058980       _GLee_Lazy_glVertexAttribI3ui@16 00459980 f   cinder:GLee.obj
 0001:000589b0       _GLee_Lazy_glVertexAttribI4ui@20 004599b0 f   cinder:GLee.obj
 0001:000589e0       _GLee_Lazy_glVertexAttribI1iv@8 004599e0 f   cinder:GLee.obj
 0001:00058a10       _GLee_Lazy_glVertexAttribI2iv@8 00459a10 f   cinder:GLee.obj
 0001:00058a40       _GLee_Lazy_glVertexAttribI3iv@8 00459a40 f   cinder:GLee.obj
 0001:00058a70       _GLee_Lazy_glVertexAttribI4iv@8 00459a70 f   cinder:GLee.obj
 0001:00058aa0       _GLee_Lazy_glVertexAttribI1uiv@8 00459aa0 f   cinder:GLee.obj
 0001:00058ad0       _GLee_Lazy_glVertexAttribI2uiv@8 00459ad0 f   cinder:GLee.obj
 0001:00058b00       _GLee_Lazy_glVertexAttribI3uiv@8 00459b00 f   cinder:GLee.obj
 0001:00058b30       _GLee_Lazy_glVertexAttribI4uiv@8 00459b30 f   cinder:GLee.obj
 0001:00058b60       _GLee_Lazy_glVertexAttribI4bv@8 00459b60 f   cinder:GLee.obj
 0001:00058b90       _GLee_Lazy_glVertexAttribI4sv@8 00459b90 f   cinder:GLee.obj
 0001:00058bc0       _GLee_Lazy_glVertexAttribI4ubv@8 00459bc0 f   cinder:GLee.obj
 0001:00058bf0       _GLee_Lazy_glVertexAttribI4usv@8 00459bf0 f   cinder:GLee.obj
 0001:00058c20       _GLee_Lazy_glVertexAttribIPointer@20 00459c20 f   cinder:GLee.obj
 0001:00058c50       _GLee_Lazy_glGetVertexAttribIiv@12 00459c50 f   cinder:GLee.obj
 0001:00058c80       _GLee_Lazy_glGetVertexAttribIuiv@12 00459c80 f   cinder:GLee.obj
 0001:00058cb0       _GLee_Lazy_glGetUniformuiv@12 00459cb0 f   cinder:GLee.obj
 0001:00058ce0       _GLee_Lazy_glBindFragDataLocation@12 00459ce0 f   cinder:GLee.obj
 0001:00058d10       _GLee_Lazy_glGetFragDataLocation@8 00459d10 f   cinder:GLee.obj
 0001:00058d40       _GLee_Lazy_glUniform1ui@8  00459d40 f   cinder:GLee.obj
 0001:00058d70       _GLee_Lazy_glUniform2ui@12 00459d70 f   cinder:GLee.obj
 0001:00058da0       _GLee_Lazy_glUniform3ui@16 00459da0 f   cinder:GLee.obj
 0001:00058dd0       _GLee_Lazy_glUniform4ui@20 00459dd0 f   cinder:GLee.obj
 0001:00058e00       _GLee_Lazy_glUniform1uiv@12 00459e00 f   cinder:GLee.obj
 0001:00058e30       _GLee_Lazy_glUniform2uiv@12 00459e30 f   cinder:GLee.obj
 0001:00058e60       _GLee_Lazy_glUniform3uiv@12 00459e60 f   cinder:GLee.obj
 0001:00058e90       _GLee_Lazy_glUniform4uiv@12 00459e90 f   cinder:GLee.obj
 0001:00058ec0       _GLee_Lazy_glTexParameterIiv@12 00459ec0 f   cinder:GLee.obj
 0001:00058ef0       _GLee_Lazy_glTexParameterIuiv@12 00459ef0 f   cinder:GLee.obj
 0001:00058f20       _GLee_Lazy_glGetTexParameterIiv@12 00459f20 f   cinder:GLee.obj
 0001:00058f50       _GLee_Lazy_glGetTexParameterIuiv@12 00459f50 f   cinder:GLee.obj
 0001:00058f80       _GLee_Lazy_glClearBufferiv@12 00459f80 f   cinder:GLee.obj
 0001:00058fb0       _GLee_Lazy_glClearBufferuiv@12 00459fb0 f   cinder:GLee.obj
 0001:00058fe0       _GLee_Lazy_glClearBufferfv@12 00459fe0 f   cinder:GLee.obj
 0001:00059010       _GLee_Lazy_glClearBufferfi@16 0045a010 f   cinder:GLee.obj
 0001:00059040       _GLee_Lazy_glGetStringi@8  0045a040 f   cinder:GLee.obj
 0001:00059070       _GLee_Lazy_glActiveTextureARB@4 0045a070 f   cinder:GLee.obj
 0001:00059090       _GLee_Lazy_glClientActiveTextureARB@4 0045a090 f   cinder:GLee.obj
 0001:000590b0       _GLee_Lazy_glMultiTexCoord1dARB@12 0045a0b0 f   cinder:GLee.obj
 0001:000590e0       _GLee_Lazy_glMultiTexCoord1dvARB@8 0045a0e0 f   cinder:GLee.obj
 0001:00059110       _GLee_Lazy_glMultiTexCoord1fARB@8 0045a110 f   cinder:GLee.obj
 0001:00059140       _GLee_Lazy_glMultiTexCoord1fvARB@8 0045a140 f   cinder:GLee.obj
 0001:00059170       _GLee_Lazy_glMultiTexCoord1iARB@8 0045a170 f   cinder:GLee.obj
 0001:000591a0       _GLee_Lazy_glMultiTexCoord1ivARB@8 0045a1a0 f   cinder:GLee.obj
 0001:000591d0       _GLee_Lazy_glMultiTexCoord1sARB@8 0045a1d0 f   cinder:GLee.obj
 0001:00059200       _GLee_Lazy_glMultiTexCoord1svARB@8 0045a200 f   cinder:GLee.obj
 0001:00059230       _GLee_Lazy_glMultiTexCoord2dARB@20 0045a230 f   cinder:GLee.obj
 0001:00059260       _GLee_Lazy_glMultiTexCoord2dvARB@8 0045a260 f   cinder:GLee.obj
 0001:00059290       _GLee_Lazy_glMultiTexCoord2fARB@12 0045a290 f   cinder:GLee.obj
 0001:000592c0       _GLee_Lazy_glMultiTexCoord2fvARB@8 0045a2c0 f   cinder:GLee.obj
 0001:000592f0       _GLee_Lazy_glMultiTexCoord2iARB@12 0045a2f0 f   cinder:GLee.obj
 0001:00059320       _GLee_Lazy_glMultiTexCoord2ivARB@8 0045a320 f   cinder:GLee.obj
 0001:00059350       _GLee_Lazy_glMultiTexCoord2sARB@12 0045a350 f   cinder:GLee.obj
 0001:00059380       _GLee_Lazy_glMultiTexCoord2svARB@8 0045a380 f   cinder:GLee.obj
 0001:000593b0       _GLee_Lazy_glMultiTexCoord3dARB@28 0045a3b0 f   cinder:GLee.obj
 0001:000593f0       _GLee_Lazy_glMultiTexCoord3dvARB@8 0045a3f0 f   cinder:GLee.obj
 0001:00059420       _GLee_Lazy_glMultiTexCoord3fARB@16 0045a420 f   cinder:GLee.obj
 0001:00059460       _GLee_Lazy_glMultiTexCoord3fvARB@8 0045a460 f   cinder:GLee.obj
 0001:00059490       _GLee_Lazy_glMultiTexCoord3iARB@16 0045a490 f   cinder:GLee.obj
 0001:000594c0       _GLee_Lazy_glMultiTexCoord3ivARB@8 0045a4c0 f   cinder:GLee.obj
 0001:000594f0       _GLee_Lazy_glMultiTexCoord3sARB@16 0045a4f0 f   cinder:GLee.obj
 0001:00059520       _GLee_Lazy_glMultiTexCoord3svARB@8 0045a520 f   cinder:GLee.obj
 0001:00059550       _GLee_Lazy_glMultiTexCoord4dARB@36 0045a550 f   cinder:GLee.obj
 0001:000595a0       _GLee_Lazy_glMultiTexCoord4dvARB@8 0045a5a0 f   cinder:GLee.obj
 0001:000595d0       _GLee_Lazy_glMultiTexCoord4fARB@20 0045a5d0 f   cinder:GLee.obj
 0001:00059610       _GLee_Lazy_glMultiTexCoord4fvARB@8 0045a610 f   cinder:GLee.obj
 0001:00059640       _GLee_Lazy_glMultiTexCoord4iARB@20 0045a640 f   cinder:GLee.obj
 0001:00059670       _GLee_Lazy_glMultiTexCoord4ivARB@8 0045a670 f   cinder:GLee.obj
 0001:000596a0       _GLee_Lazy_glMultiTexCoord4sARB@20 0045a6a0 f   cinder:GLee.obj
 0001:000596e0       _GLee_Lazy_glMultiTexCoord4svARB@8 0045a6e0 f   cinder:GLee.obj
 0001:00059710       _GLee_Lazy_glLoadTransposeMatrixfARB@4 0045a710 f   cinder:GLee.obj
 0001:00059730       _GLee_Lazy_glLoadTransposeMatrixdARB@4 0045a730 f   cinder:GLee.obj
 0001:00059750       _GLee_Lazy_glMultTransposeMatrixfARB@4 0045a750 f   cinder:GLee.obj
 0001:00059770       _GLee_Lazy_glMultTransposeMatrixdARB@4 0045a770 f   cinder:GLee.obj
 0001:00059790       _GLee_Lazy_glSampleCoverageARB@8 0045a790 f   cinder:GLee.obj
 0001:000597c0       _GLee_Lazy_glCompressedTexImage3DARB@36 0045a7c0 f   cinder:GLee.obj
 0001:00059800       _GLee_Lazy_glCompressedTexImage2DARB@32 0045a800 f   cinder:GLee.obj
 0001:00059840       _GLee_Lazy_glCompressedTexImage1DARB@28 0045a840 f   cinder:GLee.obj
 0001:00059880       _GLee_Lazy_glCompressedTexSubImage3DARB@44 0045a880 f   cinder:GLee.obj
 0001:000598d0       _GLee_Lazy_glCompressedTexSubImage2DARB@36 0045a8d0 f   cinder:GLee.obj
 0001:00059910       _GLee_Lazy_glCompressedTexSubImage1DARB@28 0045a910 f   cinder:GLee.obj
 0001:00059950       _GLee_Lazy_glGetCompressedTexImageARB@12 0045a950 f   cinder:GLee.obj
 0001:00059980       _GLee_Lazy_glPointParameterfARB@8 0045a980 f   cinder:GLee.obj
 0001:000599b0       _GLee_Lazy_glPointParameterfvARB@8 0045a9b0 f   cinder:GLee.obj
 0001:000599e0       _GLee_Lazy_glWeightbvARB@8 0045a9e0 f   cinder:GLee.obj
 0001:00059a10       _GLee_Lazy_glWeightsvARB@8 0045aa10 f   cinder:GLee.obj
 0001:00059a40       _GLee_Lazy_glWeightivARB@8 0045aa40 f   cinder:GLee.obj
 0001:00059a70       _GLee_Lazy_glWeightfvARB@8 0045aa70 f   cinder:GLee.obj
 0001:00059aa0       _GLee_Lazy_glWeightdvARB@8 0045aaa0 f   cinder:GLee.obj
 0001:00059ad0       _GLee_Lazy_glWeightubvARB@8 0045aad0 f   cinder:GLee.obj
 0001:00059b00       _GLee_Lazy_glWeightusvARB@8 0045ab00 f   cinder:GLee.obj
 0001:00059b30       _GLee_Lazy_glWeightuivARB@8 0045ab30 f   cinder:GLee.obj
 0001:00059b60       _GLee_Lazy_glWeightPointerARB@16 0045ab60 f   cinder:GLee.obj
 0001:00059b90       _GLee_Lazy_glVertexBlendARB@4 0045ab90 f   cinder:GLee.obj
 0001:00059bb0       _GLee_Lazy_glCurrentPaletteMatrixARB@4 0045abb0 f   cinder:GLee.obj
 0001:00059bd0       _GLee_Lazy_glMatrixIndexubvARB@8 0045abd0 f   cinder:GLee.obj
 0001:00059c00       _GLee_Lazy_glMatrixIndexusvARB@8 0045ac00 f   cinder:GLee.obj
 0001:00059c30       _GLee_Lazy_glMatrixIndexuivARB@8 0045ac30 f   cinder:GLee.obj
 0001:00059c60       _GLee_Lazy_glMatrixIndexPointerARB@16 0045ac60 f   cinder:GLee.obj
 0001:00059c90       _GLee_Lazy_glWindowPos2dARB@16 0045ac90 f   cinder:GLee.obj
